
build/src/code/z_camera.o:     file format elf32-tradbigmips


Disassembly of section .text:

00000000 <func_800437F0>:
       0:	46007005 	abs.s	$f0,$f14
       4:	3c013f80 	lui	at,0x3f80
       8:	4600603c 	c.lt.s	$f12,$f0
       c:	00000000 	nop
      10:	45020006 	bc1fl	2c <func_800437F0+0x2c>
      14:	44812000 	mtc1	at,$f4
      18:	3c013f80 	lui	at,0x3f80
      1c:	44811000 	mtc1	at,$f2
      20:	03e00008 	jr	ra
      24:	46001006 	mov.s	$f0,$f2
      28:	44812000 	mtc1	at,$f4
      2c:	3c010000 	lui	at,0x0
      30:	c4260d30 	lwc1	$f6,3376(at)
      34:	3c010000 	lui	at,0x0
      38:	46062401 	sub.s	$f16,$f4,$f6
      3c:	46106482 	mul.s	$f18,$f12,$f16
      40:	4612003c 	c.lt.s	$f0,$f18
      44:	00000000 	nop
      48:	45000009 	bc1f	70 <func_800437F0+0x70>
      4c:	00000000 	nop
      50:	460e7202 	mul.s	$f8,$f14,$f14
      54:	00000000 	nop
      58:	46104282 	mul.s	$f10,$f8,$f16
      5c:	00000000 	nop
      60:	46129102 	mul.s	$f4,$f18,$f18
      64:	46045083 	div.s	$f2,$f10,$f4
      68:	03e00008 	jr	ra
      6c:	46001006 	mov.s	$f0,$f2
      70:	c4260d34 	lwc1	$f6,3380(at)
      74:	46006401 	sub.s	$f16,$f12,$f0
      78:	3c010000 	lui	at,0x0
      7c:	460c3382 	mul.s	$f14,$f6,$f12
      80:	c42a0d38 	lwc1	$f10,3384(at)
      84:	3c013f80 	lui	at,0x3f80
      88:	46108202 	mul.s	$f8,$f16,$f16
      8c:	00000000 	nop
      90:	460a4102 	mul.s	$f4,$f8,$f10
      94:	44815000 	mtc1	at,$f10
      98:	460e7182 	mul.s	$f6,$f14,$f14
      9c:	46062203 	div.s	$f8,$f4,$f6
      a0:	46085081 	sub.s	$f2,$f10,$f8
      a4:	03e00008 	jr	ra
      a8:	46001006 	mov.s	$f0,$f2

000000ac <func_8004389C>:
      ac:	460e6081 	sub.s	$f2,$f12,$f14
      b0:	afa7000c 	sw	a3,12(sp)
      b4:	c7a4000c 	lwc1	$f4,12(sp)
      b8:	afa60008 	sw	a2,8(sp)
      bc:	46001005 	abs.s	$f0,$f2
      c0:	c7a60008 	lwc1	$f6,8(sp)
      c4:	4600203e 	c.le.s	$f4,$f0
      c8:	00000000 	nop
      cc:	45020005 	bc1fl	e4 <func_8004389C+0x38>
      d0:	46006406 	mov.s	$f16,$f12
      d4:	46061202 	mul.s	$f8,$f2,$f6
      d8:	03e00008 	jr	ra
      dc:	46087000 	add.s	$f0,$f14,$f8
      e0:	46006406 	mov.s	$f16,$f12
      e4:	03e00008 	jr	ra
      e8:	46008006 	mov.s	$f0,$f16

000000ec <func_800438DC>:
      ec:	460e6081 	sub.s	$f2,$f12,$f14
      f0:	afa7000c 	sw	a3,12(sp)
      f4:	c7a4000c 	lwc1	$f4,12(sp)
      f8:	afa60008 	sw	a2,8(sp)
      fc:	46001005 	abs.s	$f0,$f2
     100:	c7a60008 	lwc1	$f6,8(sp)
     104:	4600203e 	c.le.s	$f4,$f0
     108:	00000000 	nop
     10c:	45020005 	bc1fl	124 <func_800438DC+0x38>
     110:	46007306 	mov.s	$f12,$f14
     114:	46061202 	mul.s	$f8,$f2,$f6
     118:	03e00008 	jr	ra
     11c:	46087000 	add.s	$f0,$f14,$f8
     120:	46007306 	mov.s	$f12,$f14
     124:	03e00008 	jr	ra
     128:	46006006 	mov.s	$f0,$f12

0000012c <func_8004391C>:
     12c:	afa40000 	sw	a0,0(sp)
     130:	afa50004 	sw	a1,4(sp)
     134:	00052c00 	sll	a1,a1,0x10
     138:	00042400 	sll	a0,a0,0x10
     13c:	00042403 	sra	a0,a0,0x10
     140:	00052c03 	sra	a1,a1,0x10
     144:	00851023 	subu	v0,a0,a1
     148:	afa7000c 	sw	a3,12(sp)
     14c:	00021400 	sll	v0,v0,0x10
     150:	00073c00 	sll	a3,a3,0x10
     154:	44866000 	mtc1	a2,$f12
     158:	00021403 	sra	v0,v0,0x10
     15c:	04400003 	bltz	v0,16c <func_8004391C+0x40>
     160:	00073c03 	sra	a3,a3,0x10
     164:	10000002 	b	170 <func_8004391C+0x44>
     168:	00401825 	move	v1,v0
     16c:	00021823 	negu	v1,v0
     170:	0067082a 	slt	at,v1,a3
     174:	1420000e 	bnez	at,1b0 <func_8004391C+0x84>
     178:	00801825 	move	v1,a0
     17c:	44822000 	mtc1	v0,$f4
     180:	3c013f00 	lui	at,0x3f00
     184:	44815000 	mtc1	at,$f10
     188:	468021a0 	cvt.s.w	$f6,$f4
     18c:	460c3202 	mul.s	$f8,$f6,$f12
     190:	460a4400 	add.s	$f16,$f8,$f10
     194:	4600848d 	trunc.w.s	$f18,$f16
     198:	44199000 	mfc1	t9,$f18
     19c:	00000000 	nop
     1a0:	00b91821 	addu	v1,a1,t9
     1a4:	00031400 	sll	v0,v1,0x10
     1a8:	03e00008 	jr	ra
     1ac:	00021403 	sra	v0,v0,0x10
     1b0:	00031400 	sll	v0,v1,0x10
     1b4:	03e00008 	jr	ra
     1b8:	00021403 	sra	v0,v0,0x10

000001bc <func_800439AC>:
     1bc:	afa40000 	sw	a0,0(sp)
     1c0:	afa50004 	sw	a1,4(sp)
     1c4:	00052c00 	sll	a1,a1,0x10
     1c8:	00042400 	sll	a0,a0,0x10
     1cc:	00042403 	sra	a0,a0,0x10
     1d0:	00052c03 	sra	a1,a1,0x10
     1d4:	00851023 	subu	v0,a0,a1
     1d8:	afa7000c 	sw	a3,12(sp)
     1dc:	00021400 	sll	v0,v0,0x10
     1e0:	00073c00 	sll	a3,a3,0x10
     1e4:	44866000 	mtc1	a2,$f12
     1e8:	00021403 	sra	v0,v0,0x10
     1ec:	04400003 	bltz	v0,1fc <func_800439AC+0x40>
     1f0:	00073c03 	sra	a3,a3,0x10
     1f4:	10000002 	b	200 <func_800439AC+0x44>
     1f8:	00401825 	move	v1,v0
     1fc:	00021823 	negu	v1,v0
     200:	0067082a 	slt	at,v1,a3
     204:	1420000e 	bnez	at,240 <func_800439AC+0x84>
     208:	00a01825 	move	v1,a1
     20c:	44822000 	mtc1	v0,$f4
     210:	3c013f00 	lui	at,0x3f00
     214:	44815000 	mtc1	at,$f10
     218:	468021a0 	cvt.s.w	$f6,$f4
     21c:	460c3202 	mul.s	$f8,$f6,$f12
     220:	460a4400 	add.s	$f16,$f8,$f10
     224:	4600848d 	trunc.w.s	$f18,$f16
     228:	44199000 	mfc1	t9,$f18
     22c:	00000000 	nop
     230:	00b91821 	addu	v1,a1,t9
     234:	00031400 	sll	v0,v1,0x10
     238:	03e00008 	jr	ra
     23c:	00021403 	sra	v0,v0,0x10
     240:	00031400 	sll	v0,v1,0x10
     244:	03e00008 	jr	ra
     248:	00021403 	sra	v0,v0,0x10

0000024c <func_80043A3C>:
     24c:	27bdffe0 	addiu	sp,sp,-32
     250:	afbf001c 	sw	ra,28(sp)
     254:	afb00018 	sw	s0,24(sp)
     258:	afa60028 	sw	a2,40(sp)
     25c:	afa7002c 	sw	a3,44(sp)
     260:	afa40020 	sw	a0,32(sp)
     264:	00e03025 	move	a2,a3
     268:	00a08025 	move	s0,a1
     26c:	8fa70030 	lw	a3,48(sp)
     270:	c4ae0000 	lwc1	$f14,0(a1)
     274:	0c000000 	jal	0 <func_800437F0>
     278:	c48c0000 	lwc1	$f12,0(a0)
     27c:	e6000000 	swc1	$f0,0(s0)
     280:	8faf0020 	lw	t7,32(sp)
     284:	8fa70030 	lw	a3,48(sp)
     288:	8fa60028 	lw	a2,40(sp)
     28c:	c60e0004 	lwc1	$f14,4(s0)
     290:	0c000000 	jal	0 <func_800437F0>
     294:	c5ec0004 	lwc1	$f12,4(t7)
     298:	e6000004 	swc1	$f0,4(s0)
     29c:	8fb80020 	lw	t8,32(sp)
     2a0:	8fa70030 	lw	a3,48(sp)
     2a4:	8fa6002c 	lw	a2,44(sp)
     2a8:	c60e0008 	lwc1	$f14,8(s0)
     2ac:	0c000000 	jal	0 <func_800437F0>
     2b0:	c70c0008 	lwc1	$f12,8(t8)
     2b4:	e6000008 	swc1	$f0,8(s0)
     2b8:	8fbf001c 	lw	ra,28(sp)
     2bc:	8fb00018 	lw	s0,24(sp)
     2c0:	27bd0020 	addiu	sp,sp,32
     2c4:	03e00008 	jr	ra
     2c8:	00000000 	nop

000002cc <func_80043ABC>:
     2cc:	3c010000 	lui	at,0x0
     2d0:	c4200d3c 	lwc1	$f0,3388(at)
     2d4:	3c0142c8 	lui	at,0x42c8
     2d8:	44812000 	mtc1	at,$f4
     2dc:	3c020000 	lui	v0,0x0
     2e0:	24420000 	addiu	v0,v0,0
     2e4:	e48400c8 	swc1	$f4,200(a0)
     2e8:	8c4e0000 	lw	t6,0(v0)
     2ec:	85cf01a2 	lh	t7,418(t6)
     2f0:	448f3000 	mtc1	t7,$f6
     2f4:	00000000 	nop
     2f8:	46803220 	cvt.s.w	$f8,$f6
     2fc:	e48800c4 	swc1	$f8,196(a0)
     300:	8c580000 	lw	t8,0(v0)
     304:	871901a0 	lh	t9,416(t8)
     308:	44995000 	mtc1	t9,$f10
     30c:	00000000 	nop
     310:	46805420 	cvt.s.w	$f16,$f10
     314:	e49000c0 	swc1	$f16,192(a0)
     318:	8c480000 	lw	t0,0(v0)
     31c:	85090198 	lh	t1,408(t0)
     320:	44899000 	mtc1	t1,$f18
     324:	00000000 	nop
     328:	46809120 	cvt.s.w	$f4,$f18
     32c:	46002182 	mul.s	$f6,$f4,$f0
     330:	e48600cc 	swc1	$f6,204(a0)
     334:	8c4a0000 	lw	t2,0(v0)
     338:	854b019a 	lh	t3,410(t2)
     33c:	448b4000 	mtc1	t3,$f8
     340:	00000000 	nop
     344:	468042a0 	cvt.s.w	$f10,$f8
     348:	46005402 	mul.s	$f16,$f10,$f0
     34c:	e49000d0 	swc1	$f16,208(a0)
     350:	8c4c0000 	lw	t4,0(v0)
     354:	858d019c 	lh	t5,412(t4)
     358:	448d9000 	mtc1	t5,$f18
     35c:	00000000 	nop
     360:	46809120 	cvt.s.w	$f4,$f18
     364:	46002182 	mul.s	$f6,$f4,$f0
     368:	03e00008 	jr	ra
     36c:	e48600d4 	swc1	$f6,212(a0)

00000370 <func_80043B60>:
     370:	3c020000 	lui	v0,0x0
     374:	24420000 	addiu	v0,v0,0
     378:	8c4e0000 	lw	t6,0(v0)
     37c:	3c010000 	lui	at,0x0
     380:	c4200d40 	lwc1	$f0,3392(at)
     384:	85cf01ca 	lh	t7,458(t6)
     388:	448f2000 	mtc1	t7,$f4
     38c:	00000000 	nop
     390:	468021a0 	cvt.s.w	$f6,$f4
     394:	e48600c0 	swc1	$f6,192(a0)
     398:	8c580000 	lw	t8,0(v0)
     39c:	871901ca 	lh	t9,458(t8)
     3a0:	44994000 	mtc1	t9,$f8
     3a4:	00000000 	nop
     3a8:	468042a0 	cvt.s.w	$f10,$f8
     3ac:	e48a00c8 	swc1	$f10,200(a0)
     3b0:	8c480000 	lw	t0,0(v0)
     3b4:	850901ca 	lh	t1,458(t0)
     3b8:	e48000cc 	swc1	$f0,204(a0)
     3bc:	e48000d0 	swc1	$f0,208(a0)
     3c0:	44898000 	mtc1	t1,$f16
     3c4:	e48000d4 	swc1	$f0,212(a0)
     3c8:	468084a0 	cvt.s.w	$f18,$f16
     3cc:	03e00008 	jr	ra
     3d0:	e49200c4 	swc1	$f18,196(a0)

000003d4 <func_80043BC4>:
     3d4:	84ae0000 	lh	t6,0(a1)
     3d8:	27bdfff0 	addiu	sp,sp,-16
     3dc:	27b90004 	addiu	t9,sp,4
     3e0:	448e2000 	mtc1	t6,$f4
     3e4:	00801025 	move	v0,a0
     3e8:	468021a0 	cvt.s.w	$f6,$f4
     3ec:	e7a60004 	swc1	$f6,4(sp)
     3f0:	84af0002 	lh	t7,2(a1)
     3f4:	448f4000 	mtc1	t7,$f8
     3f8:	00000000 	nop
     3fc:	468042a0 	cvt.s.w	$f10,$f8
     400:	e7aa0008 	swc1	$f10,8(sp)
     404:	84b80004 	lh	t8,4(a1)
     408:	44988000 	mtc1	t8,$f16
     40c:	00000000 	nop
     410:	468084a0 	cvt.s.w	$f18,$f16
     414:	e7b2000c 	swc1	$f18,12(sp)
     418:	8f290000 	lw	t1,0(t9)
     41c:	ac890000 	sw	t1,0(a0)
     420:	8f280004 	lw	t0,4(t9)
     424:	ac880004 	sw	t0,4(a0)
     428:	8f290008 	lw	t1,8(t9)
     42c:	27bd0010 	addiu	sp,sp,16
     430:	03e00008 	jr	ra
     434:	ac890008 	sw	t1,8(a0)

00000438 <func_80043C28>:
     438:	27bdffd0 	addiu	sp,sp,-48
     43c:	afbf0014 	sw	ra,20(sp)
     440:	afa40030 	sw	a0,48(sp)
     444:	00a03825 	move	a3,a1
     448:	afa70034 	sw	a3,52(sp)
     44c:	00c02825 	move	a1,a2
     450:	0c000000 	jal	0 <func_800437F0>
     454:	27a40018 	addiu	a0,sp,24
     458:	8fa70034 	lw	a3,52(sp)
     45c:	c7a60018 	lwc1	$f6,24(sp)
     460:	c7b0001c 	lwc1	$f16,28(sp)
     464:	c4e40000 	lwc1	$f4,0(a3)
     468:	27ae0024 	addiu	t6,sp,36
     46c:	8fa20030 	lw	v0,48(sp)
     470:	46062200 	add.s	$f8,$f4,$f6
     474:	c7a60020 	lwc1	$f6,32(sp)
     478:	e7a80024 	swc1	$f8,36(sp)
     47c:	c4ea0004 	lwc1	$f10,4(a3)
     480:	46105480 	add.s	$f18,$f10,$f16
     484:	e7b20028 	swc1	$f18,40(sp)
     488:	c4e40008 	lwc1	$f4,8(a3)
     48c:	46062200 	add.s	$f8,$f4,$f6
     490:	e7a8002c 	swc1	$f8,44(sp)
     494:	8dd80000 	lw	t8,0(t6)
     498:	ac580000 	sw	t8,0(v0)
     49c:	8dcf0004 	lw	t7,4(t6)
     4a0:	ac4f0004 	sw	t7,4(v0)
     4a4:	8dd80008 	lw	t8,8(t6)
     4a8:	ac580008 	sw	t8,8(v0)
     4ac:	8fbf0014 	lw	ra,20(sp)
     4b0:	27bd0030 	addiu	sp,sp,48
     4b4:	03e00008 	jr	ra
     4b8:	00000000 	nop

000004bc <func_80043CAC>:
     4bc:	44876000 	mtc1	a3,$f12
     4c0:	c4c60000 	lwc1	$f6,0(a2)
     4c4:	c4a40000 	lwc1	$f4,0(a1)
     4c8:	27bdfff0 	addiu	sp,sp,-16
     4cc:	460c3202 	mul.s	$f8,$f6,$f12
     4d0:	27ae0004 	addiu	t6,sp,4
     4d4:	00801025 	move	v0,a0
     4d8:	46082280 	add.s	$f10,$f4,$f8
     4dc:	e7aa0004 	swc1	$f10,4(sp)
     4e0:	c4d20004 	lwc1	$f18,4(a2)
     4e4:	c4b00004 	lwc1	$f16,4(a1)
     4e8:	460c9182 	mul.s	$f6,$f18,$f12
     4ec:	46068100 	add.s	$f4,$f16,$f6
     4f0:	e7a40008 	swc1	$f4,8(sp)
     4f4:	c4ca0008 	lwc1	$f10,8(a2)
     4f8:	c4a80008 	lwc1	$f8,8(a1)
     4fc:	460c5482 	mul.s	$f18,$f10,$f12
     500:	46124400 	add.s	$f16,$f8,$f18
     504:	e7b0000c 	swc1	$f16,12(sp)
     508:	8dd80000 	lw	t8,0(t6)
     50c:	ac980000 	sw	t8,0(a0)
     510:	8dcf0004 	lw	t7,4(t6)
     514:	ac8f0004 	sw	t7,4(a0)
     518:	8dd80008 	lw	t8,8(t6)
     51c:	27bd0010 	addiu	sp,sp,16
     520:	03e00008 	jr	ra
     524:	ac980008 	sw	t8,8(a0)

00000528 <func_80043D18>:
     528:	27bdff88 	addiu	sp,sp,-120
     52c:	afbf0034 	sw	ra,52(sp)
     530:	afb00030 	sw	s0,48(sp)
     534:	afa5007c 	sw	a1,124(sp)
     538:	8c8e008c 	lw	t6,140(a0)
     53c:	00c08025 	move	s0,a2
     540:	27a4003c 	addiu	a0,sp,60
     544:	25cf07c0 	addiu	t7,t6,1984
     548:	0c000000 	jal	0 <func_800437F0>
     54c:	afaf0074 	sw	t7,116(sp)
     550:	3c014100 	lui	at,0x4100
     554:	44813000 	mtc1	at,$f6
     558:	c7a4003c 	lwc1	$f4,60(sp)
     55c:	27a4005c 	addiu	a0,sp,92
     560:	8fa5007c 	lw	a1,124(sp)
     564:	46062200 	add.s	$f8,$f4,$f6
     568:	27a6003c 	addiu	a2,sp,60
     56c:	0c000000 	jal	0 <func_800437F0>
     570:	e7a8003c 	swc1	$f8,60(sp)
     574:	26180018 	addiu	t8,s0,24
     578:	24190001 	li	t9,1
     57c:	24080001 	li	t0,1
     580:	24090001 	li	t1,1
     584:	240affff 	li	t2,-1
     588:	260b0024 	addiu	t3,s0,36
     58c:	afab0024 	sw	t3,36(sp)
     590:	afaa0020 	sw	t2,32(sp)
     594:	afa9001c 	sw	t1,28(sp)
     598:	afa80018 	sw	t0,24(sp)
     59c:	afb90014 	sw	t9,20(sp)
     5a0:	afb80010 	sw	t8,16(sp)
     5a4:	8fa40074 	lw	a0,116(sp)
     5a8:	8fa5007c 	lw	a1,124(sp)
     5ac:	27a6005c 	addiu	a2,sp,92
     5b0:	0c000000 	jal	0 <func_800437F0>
     5b4:	27a70068 	addiu	a3,sp,104
     5b8:	1440003a 	bnez	v0,6a4 <func_80043D18+0x17c>
     5bc:	27a40050 	addiu	a0,sp,80
     5c0:	8fa5007c 	lw	a1,124(sp)
     5c4:	0c000000 	jal	0 <func_800437F0>
     5c8:	02003025 	move	a2,s0
     5cc:	c7aa0050 	lwc1	$f10,80(sp)
     5d0:	8e0d0000 	lw	t5,0(s0)
     5d4:	27a70068 	addiu	a3,sp,104
     5d8:	46005407 	neg.s	$f16,$f10
     5dc:	3c0140a0 	lui	at,0x40a0
     5e0:	e610000c 	swc1	$f16,12(s0)
     5e4:	c7b20054 	lwc1	$f18,84(sp)
     5e8:	44818000 	mtc1	at,$f16
     5ec:	27a50048 	addiu	a1,sp,72
     5f0:	46009107 	neg.s	$f4,$f18
     5f4:	27a60044 	addiu	a2,sp,68
     5f8:	e6040010 	swc1	$f4,16(s0)
     5fc:	c7a60058 	lwc1	$f6,88(sp)
     600:	46003207 	neg.s	$f8,$f6
     604:	e6080014 	swc1	$f8,20(s0)
     608:	aced0000 	sw	t5,0(a3)
     60c:	8e0c0004 	lw	t4,4(s0)
     610:	acec0004 	sw	t4,4(a3)
     614:	8e0d0008 	lw	t5,8(s0)
     618:	aced0008 	sw	t5,8(a3)
     61c:	c7aa006c 	lwc1	$f10,108(sp)
     620:	8fa40074 	lw	a0,116(sp)
     624:	46105480 	add.s	$f18,$f10,$f16
     628:	0c000000 	jal	0 <func_800437F0>
     62c:	e7b2006c 	swc1	$f18,108(sp)
     630:	c6020004 	lwc1	$f2,4(s0)
     634:	3c0140a0 	lui	at,0x40a0
     638:	44812000 	mtc1	at,$f4
     63c:	46001181 	sub.s	$f6,$f2,$f0
     640:	3c013f80 	lui	at,0x3f80
     644:	4606203c 	c.lt.s	$f4,$f6
     648:	00000000 	nop
     64c:	4502000f 	bc1fl	68c <func_80043D18+0x164>
     650:	44818000 	mtc1	at,$f16
     654:	c6080000 	lwc1	$f8,0(s0)
     658:	c60a000c 	lwc1	$f10,12(s0)
     65c:	c6120010 	lwc1	$f18,16(s0)
     660:	c6060008 	lwc1	$f6,8(s0)
     664:	460a4400 	add.s	$f16,$f8,$f10
     668:	c6080014 	lwc1	$f8,20(s0)
     66c:	00001025 	move	v0,zero
     670:	46121100 	add.s	$f4,$f2,$f18
     674:	e6100000 	swc1	$f16,0(s0)
     678:	46083280 	add.s	$f10,$f6,$f8
     67c:	e6040004 	swc1	$f4,4(s0)
     680:	1000002b 	b	730 <func_80043D18+0x208>
     684:	e60a0008 	swc1	$f10,8(s0)
     688:	44818000 	mtc1	at,$f16
     68c:	8fae0048 	lw	t6,72(sp)
     690:	46100480 	add.s	$f18,$f0,$f16
     694:	ae0e0018 	sw	t6,24(s0)
     698:	8faf0044 	lw	t7,68(sp)
     69c:	e7b2006c 	swc1	$f18,108(sp)
     6a0:	ae0f0024 	sw	t7,36(s0)
     6a4:	8e030018 	lw	v1,24(s0)
     6a8:	3c010000 	lui	at,0x0
     6ac:	c4200d44 	lwc1	$f0,3396(at)
     6b0:	84780008 	lh	t8,8(v1)
     6b4:	44982000 	mtc1	t8,$f4
     6b8:	00000000 	nop
     6bc:	468021a0 	cvt.s.w	$f6,$f4
     6c0:	46003202 	mul.s	$f8,$f6,$f0
     6c4:	e608000c 	swc1	$f8,12(s0)
     6c8:	8479000a 	lh	t9,10(v1)
     6cc:	44995000 	mtc1	t9,$f10
     6d0:	00000000 	nop
     6d4:	46805420 	cvt.s.w	$f16,$f10
     6d8:	c60a000c 	lwc1	$f10,12(s0)
     6dc:	46008482 	mul.s	$f18,$f16,$f0
     6e0:	e6120010 	swc1	$f18,16(s0)
     6e4:	8468000c 	lh	t0,12(v1)
     6e8:	44882000 	mtc1	t0,$f4
     6ec:	00000000 	nop
     6f0:	468021a0 	cvt.s.w	$f6,$f4
     6f4:	c6040010 	lwc1	$f4,16(s0)
     6f8:	46003202 	mul.s	$f8,$f6,$f0
     6fc:	e6080014 	swc1	$f8,20(s0)
     700:	c7b00068 	lwc1	$f16,104(sp)
     704:	46105480 	add.s	$f18,$f10,$f16
     708:	c60a0014 	lwc1	$f10,20(s0)
     70c:	e6120000 	swc1	$f18,0(s0)
     710:	c7a6006c 	lwc1	$f6,108(sp)
     714:	46062200 	add.s	$f8,$f4,$f6
     718:	e6080004 	swc1	$f8,4(s0)
     71c:	c7b00070 	lwc1	$f16,112(sp)
     720:	46105480 	add.s	$f18,$f10,$f16
     724:	e6120008 	swc1	$f18,8(s0)
     728:	8fa20044 	lw	v0,68(sp)
     72c:	24420001 	addiu	v0,v0,1
     730:	8fbf0034 	lw	ra,52(sp)
     734:	8fb00030 	lw	s0,48(sp)
     738:	27bd0078 	addiu	sp,sp,120
     73c:	03e00008 	jr	ra
     740:	00000000 	nop

00000744 <func_80043F34>:
     744:	27bdffb8 	addiu	sp,sp,-72
     748:	afa60050 	sw	a2,80(sp)
     74c:	8fae0050 	lw	t6,80(sp)
     750:	afbf0014 	sw	ra,20(sp)
     754:	27a60020 	addiu	a2,sp,32
     758:	8dd80000 	lw	t8,0(t6)
     75c:	acd80000 	sw	t8,0(a2)
     760:	8dcf0004 	lw	t7,4(t6)
     764:	accf0004 	sw	t7,4(a2)
     768:	8dd80008 	lw	t8,8(t6)
     76c:	0c000000 	jal	0 <func_800437F0>
     770:	acd80008 	sw	t8,8(a2)
     774:	27a80020 	addiu	t0,sp,32
     778:	8d0a0000 	lw	t2,0(t0)
     77c:	8fb90050 	lw	t9,80(sp)
     780:	af2a0000 	sw	t2,0(t9)
     784:	8d090004 	lw	t1,4(t0)
     788:	af290004 	sw	t1,4(t9)
     78c:	8d0a0008 	lw	t2,8(t0)
     790:	af2a0008 	sw	t2,8(t9)
     794:	8fbf0014 	lw	ra,20(sp)
     798:	27bd0048 	addiu	sp,sp,72
     79c:	03e00008 	jr	ra
     7a0:	00000000 	nop

000007a4 <func_80043F94>:
     7a4:	27bdff78 	addiu	sp,sp,-136
     7a8:	afbf0034 	sw	ra,52(sp)
     7ac:	afb10030 	sw	s1,48(sp)
     7b0:	afb0002c 	sw	s0,44(sp)
     7b4:	afa40088 	sw	a0,136(sp)
     7b8:	8c8f008c 	lw	t7,140(a0)
     7bc:	00c08025 	move	s0,a2
     7c0:	00a08825 	move	s1,a1
     7c4:	25f807c0 	addiu	t8,t7,1984
     7c8:	afb80084 	sw	t8,132(sp)
     7cc:	0c000000 	jal	0 <func_800437F0>
     7d0:	27a40040 	addiu	a0,sp,64
     7d4:	3c014100 	lui	at,0x4100
     7d8:	44813000 	mtc1	at,$f6
     7dc:	c7a40040 	lwc1	$f4,64(sp)
     7e0:	27a4006c 	addiu	a0,sp,108
     7e4:	02202825 	move	a1,s1
     7e8:	46062200 	add.s	$f8,$f4,$f6
     7ec:	27a60040 	addiu	a2,sp,64
     7f0:	0c000000 	jal	0 <func_800437F0>
     7f4:	e7a80040 	swc1	$f8,64(sp)
     7f8:	26190018 	addiu	t9,s0,24
     7fc:	24080001 	li	t0,1
     800:	24090001 	li	t1,1
     804:	240a0001 	li	t2,1
     808:	240bffff 	li	t3,-1
     80c:	260c0024 	addiu	t4,s0,36
     810:	afac0024 	sw	t4,36(sp)
     814:	afab0020 	sw	t3,32(sp)
     818:	afaa001c 	sw	t2,28(sp)
     81c:	afa90018 	sw	t1,24(sp)
     820:	afa80014 	sw	t0,20(sp)
     824:	afb90010 	sw	t9,16(sp)
     828:	8fa40084 	lw	a0,132(sp)
     82c:	02202825 	move	a1,s1
     830:	27a6006c 	addiu	a2,sp,108
     834:	0c000000 	jal	0 <func_800437F0>
     838:	27a70078 	addiu	a3,sp,120
     83c:	1440003a 	bnez	v0,928 <func_80043F94+0x184>
     840:	27a40060 	addiu	a0,sp,96
     844:	02202825 	move	a1,s1
     848:	0c000000 	jal	0 <func_800437F0>
     84c:	02003025 	move	a2,s0
     850:	c7aa0060 	lwc1	$f10,96(sp)
     854:	8e0e0000 	lw	t6,0(s0)
     858:	27a70078 	addiu	a3,sp,120
     85c:	46005407 	neg.s	$f16,$f10
     860:	3c0140a0 	lui	at,0x40a0
     864:	e610000c 	swc1	$f16,12(s0)
     868:	c7b20064 	lwc1	$f18,100(sp)
     86c:	44818000 	mtc1	at,$f16
     870:	27a5004c 	addiu	a1,sp,76
     874:	46009107 	neg.s	$f4,$f18
     878:	27a60048 	addiu	a2,sp,72
     87c:	e6040010 	swc1	$f4,16(s0)
     880:	c7a60068 	lwc1	$f6,104(sp)
     884:	46003207 	neg.s	$f8,$f6
     888:	e6080014 	swc1	$f8,20(s0)
     88c:	acee0000 	sw	t6,0(a3)
     890:	8e0d0004 	lw	t5,4(s0)
     894:	aced0004 	sw	t5,4(a3)
     898:	8e0e0008 	lw	t6,8(s0)
     89c:	acee0008 	sw	t6,8(a3)
     8a0:	c7aa007c 	lwc1	$f10,124(sp)
     8a4:	8fa40084 	lw	a0,132(sp)
     8a8:	46105480 	add.s	$f18,$f10,$f16
     8ac:	0c000000 	jal	0 <func_800437F0>
     8b0:	e7b2007c 	swc1	$f18,124(sp)
     8b4:	c6020004 	lwc1	$f2,4(s0)
     8b8:	3c0140a0 	lui	at,0x40a0
     8bc:	44812000 	mtc1	at,$f4
     8c0:	46001181 	sub.s	$f6,$f2,$f0
     8c4:	3c013f80 	lui	at,0x3f80
     8c8:	4606203c 	c.lt.s	$f4,$f6
     8cc:	00000000 	nop
     8d0:	4502000f 	bc1fl	910 <func_80043F94+0x16c>
     8d4:	44818000 	mtc1	at,$f16
     8d8:	c6080000 	lwc1	$f8,0(s0)
     8dc:	c60a000c 	lwc1	$f10,12(s0)
     8e0:	c6120010 	lwc1	$f18,16(s0)
     8e4:	c6060008 	lwc1	$f6,8(s0)
     8e8:	460a4400 	add.s	$f16,$f8,$f10
     8ec:	c6080014 	lwc1	$f8,20(s0)
     8f0:	00001025 	move	v0,zero
     8f4:	46121100 	add.s	$f4,$f2,$f18
     8f8:	e6100000 	swc1	$f16,0(s0)
     8fc:	46083280 	add.s	$f10,$f6,$f8
     900:	e6040004 	swc1	$f4,4(s0)
     904:	1000008d 	b	b3c <func_80043F94+0x398>
     908:	e60a0008 	swc1	$f10,8(s0)
     90c:	44818000 	mtc1	at,$f16
     910:	8faf004c 	lw	t7,76(sp)
     914:	46100480 	add.s	$f18,$f0,$f16
     918:	ae0f0018 	sw	t7,24(s0)
     91c:	8fb80048 	lw	t8,72(sp)
     920:	e7b2007c 	swc1	$f18,124(sp)
     924:	ae180024 	sw	t8,36(s0)
     928:	8e020018 	lw	v0,24(s0)
     92c:	3c010000 	lui	at,0x0
     930:	c4200000 	lwc1	$f0,0(at)
     934:	84590008 	lh	t9,8(v0)
     938:	3c013f00 	lui	at,0x3f00
     93c:	44992000 	mtc1	t9,$f4
     940:	00000000 	nop
     944:	468021a0 	cvt.s.w	$f6,$f4
     948:	46003202 	mul.s	$f8,$f6,$f0
     94c:	e608000c 	swc1	$f8,12(s0)
     950:	8448000a 	lh	t0,10(v0)
     954:	44885000 	mtc1	t0,$f10
     958:	00000000 	nop
     95c:	46805420 	cvt.s.w	$f16,$f10
     960:	44815000 	mtc1	at,$f10
     964:	3c010000 	lui	at,0x0
     968:	46008482 	mul.s	$f18,$f16,$f0
     96c:	e6120010 	swc1	$f18,16(s0)
     970:	8449000c 	lh	t1,12(v0)
     974:	c6020010 	lwc1	$f2,16(s0)
     978:	44892000 	mtc1	t1,$f4
     97c:	4602503c 	c.lt.s	$f10,$f2
     980:	468021a0 	cvt.s.w	$f6,$f4
     984:	46003202 	mul.s	$f8,$f6,$f0
     988:	45010007 	bc1t	9a8 <func_80043F94+0x204>
     98c:	e6080014 	swc1	$f8,20(s0)
     990:	c4300000 	lwc1	$f16,0(at)
     994:	3c020000 	lui	v0,0x0
     998:	4610103c 	c.lt.s	$f2,$f16
     99c:	00000000 	nop
     9a0:	4500000d 	bc1f	9d8 <func_80043F94+0x234>
     9a4:	00000000 	nop
     9a8:	c612000c 	lwc1	$f18,12(s0)
     9ac:	c7a40078 	lwc1	$f4,120(sp)
     9b0:	c6100014 	lwc1	$f16,20(s0)
     9b4:	46049180 	add.s	$f6,$f18,$f4
     9b8:	e6060000 	swc1	$f6,0(s0)
     9bc:	c7a8007c 	lwc1	$f8,124(sp)
     9c0:	46081280 	add.s	$f10,$f2,$f8
     9c4:	e60a0004 	swc1	$f10,4(s0)
     9c8:	c7b20080 	lwc1	$f18,128(sp)
     9cc:	46128100 	add.s	$f4,$f16,$f18
     9d0:	10000059 	b	b38 <func_80043F94+0x394>
     9d4:	e6040008 	swc1	$f4,8(s0)
     9d8:	8c420000 	lw	v0,0(v0)
     9dc:	50400057 	beqzl	v0,b3c <func_80043F94+0x398>
     9e0:	24020001 	li	v0,1
     9e4:	844a0008 	lh	t2,8(v0)
     9e8:	27ae006c 	addiu	t6,sp,108
     9ec:	27af0078 	addiu	t7,sp,120
     9f0:	448a3000 	mtc1	t2,$f6
     9f4:	24180001 	li	t8,1
     9f8:	46803220 	cvt.s.w	$f8,$f6
     9fc:	46004302 	mul.s	$f12,$f8,$f0
     a00:	e7ac0054 	swc1	$f12,84(sp)
     a04:	844b000a 	lh	t3,10(v0)
     a08:	448b8000 	mtc1	t3,$f16
     a0c:	00000000 	nop
     a10:	468084a0 	cvt.s.w	$f18,$f16
     a14:	46009382 	mul.s	$f14,$f18,$f0
     a18:	e7ae0058 	swc1	$f14,88(sp)
     a1c:	844c000c 	lh	t4,12(v0)
     a20:	448c3000 	mtc1	t4,$f6
     a24:	00000000 	nop
     a28:	46803220 	cvt.s.w	$f8,$f6
     a2c:	46004402 	mul.s	$f16,$f8,$f0
     a30:	e7b0005c 	swc1	$f16,92(sp)
     a34:	844d000e 	lh	t5,14(v0)
     a38:	44068000 	mfc1	a2,$f16
     a3c:	afb8001c 	sw	t8,28(sp)
     a40:	448d9000 	mtc1	t5,$f18
     a44:	afaf0018 	sw	t7,24(sp)
     a48:	afae0014 	sw	t6,20(sp)
     a4c:	468094a0 	cvt.s.w	$f18,$f18
     a50:	afb10010 	sw	s1,16(sp)
     a54:	44079000 	mfc1	a3,$f18
     a58:	0c000000 	jal	0 <func_800437F0>
     a5c:	00000000 	nop
     a60:	1040001b 	beqz	v0,ad0 <func_80043F94+0x32c>
     a64:	27a40060 	addiu	a0,sp,96
     a68:	27b90054 	addiu	t9,sp,84
     a6c:	8f290000 	lw	t1,0(t9)
     a70:	3c0a0000 	lui	t2,0x0
     a74:	ae09000c 	sw	t1,12(s0)
     a78:	8f280004 	lw	t0,4(t9)
     a7c:	c606000c 	lwc1	$f6,12(s0)
     a80:	ae080010 	sw	t0,16(s0)
     a84:	8f290008 	lw	t1,8(t9)
     a88:	c6040010 	lwc1	$f4,16(s0)
     a8c:	ae090014 	sw	t1,20(s0)
     a90:	8d4a0000 	lw	t2,0(t2)
     a94:	ae0a0018 	sw	t2,24(s0)
     a98:	8fab0088 	lw	t3,136(sp)
     a9c:	856c0146 	lh	t4,326(t3)
     aa0:	ae0c0024 	sw	t4,36(s0)
     aa4:	c7a80078 	lwc1	$f8,120(sp)
     aa8:	46083280 	add.s	$f10,$f6,$f8
     aac:	c6060014 	lwc1	$f6,20(s0)
     ab0:	e60a0000 	swc1	$f10,0(s0)
     ab4:	c7b0007c 	lwc1	$f16,124(sp)
     ab8:	46102480 	add.s	$f18,$f4,$f16
     abc:	e6120004 	swc1	$f18,4(s0)
     ac0:	c7a80080 	lwc1	$f8,128(sp)
     ac4:	46083280 	add.s	$f10,$f6,$f8
     ac8:	1000001b 	b	b38 <func_80043F94+0x394>
     acc:	e60a0008 	swc1	$f10,8(s0)
     ad0:	02202825 	move	a1,s1
     ad4:	0c000000 	jal	0 <func_800437F0>
     ad8:	02003025 	move	a2,s0
     adc:	c7a40060 	lwc1	$f4,96(sp)
     ae0:	00001025 	move	v0,zero
     ae4:	46002407 	neg.s	$f16,$f4
     ae8:	c6040000 	lwc1	$f4,0(s0)
     aec:	e610000c 	swc1	$f16,12(s0)
     af0:	c7b20064 	lwc1	$f18,100(sp)
     af4:	c610000c 	lwc1	$f16,12(s0)
     af8:	46009187 	neg.s	$f6,$f18
     afc:	46102480 	add.s	$f18,$f4,$f16
     b00:	e6060010 	swc1	$f6,16(s0)
     b04:	c7a80068 	lwc1	$f8,104(sp)
     b08:	c6060004 	lwc1	$f6,4(s0)
     b0c:	c6040008 	lwc1	$f4,8(s0)
     b10:	46004287 	neg.s	$f10,$f8
     b14:	c6080010 	lwc1	$f8,16(s0)
     b18:	e60a0014 	swc1	$f10,20(s0)
     b1c:	c6100014 	lwc1	$f16,20(s0)
     b20:	e6120000 	swc1	$f18,0(s0)
     b24:	46083280 	add.s	$f10,$f6,$f8
     b28:	46102480 	add.s	$f18,$f4,$f16
     b2c:	e60a0004 	swc1	$f10,4(s0)
     b30:	10000002 	b	b3c <func_80043F94+0x398>
     b34:	e6120008 	swc1	$f18,8(s0)
     b38:	24020001 	li	v0,1
     b3c:	8fbf0034 	lw	ra,52(sp)
     b40:	8fb0002c 	lw	s0,44(sp)
     b44:	8fb10030 	lw	s1,48(sp)
     b48:	03e00008 	jr	ra
     b4c:	27bd0088 	addiu	sp,sp,136

00000b50 <func_80044340>:
     b50:	27bdffb8 	addiu	sp,sp,-72
     b54:	afa60050 	sw	a2,80(sp)
     b58:	8fae0050 	lw	t6,80(sp)
     b5c:	afbf0014 	sw	ra,20(sp)
     b60:	27a60020 	addiu	a2,sp,32
     b64:	8dd80000 	lw	t8,0(t6)
     b68:	acd80000 	sw	t8,0(a2)
     b6c:	8dcf0004 	lw	t7,4(t6)
     b70:	accf0004 	sw	t7,4(a2)
     b74:	8dd80008 	lw	t8,8(t6)
     b78:	0c000000 	jal	0 <func_800437F0>
     b7c:	acd80008 	sw	t8,8(a2)
     b80:	27a80020 	addiu	t0,sp,32
     b84:	8d0a0000 	lw	t2,0(t0)
     b88:	8fb90050 	lw	t9,80(sp)
     b8c:	af2a0000 	sw	t2,0(t9)
     b90:	8d090004 	lw	t1,4(t0)
     b94:	af290004 	sw	t1,4(t9)
     b98:	8d0a0008 	lw	t2,8(t0)
     b9c:	af2a0008 	sw	t2,8(t9)
     ba0:	8fbf0014 	lw	ra,20(sp)
     ba4:	27bd0048 	addiu	sp,sp,72
     ba8:	03e00008 	jr	ra
     bac:	00000000 	nop

00000bb0 <func_800443A0>:
     bb0:	27bdffb0 	addiu	sp,sp,-80
     bb4:	afbf002c 	sw	ra,44(sp)
     bb8:	afa40050 	sw	a0,80(sp)
     bbc:	afa50054 	sw	a1,84(sp)
     bc0:	8c84008c 	lw	a0,140(a0)
     bc4:	27af0034 	addiu	t7,sp,52
     bc8:	27a90038 	addiu	t1,sp,56
     bcc:	24180001 	li	t8,1
     bd0:	24190001 	li	t9,1
     bd4:	24080001 	li	t0,1
     bd8:	afa00034 	sw	zero,52(sp)
     bdc:	afa8001c 	sw	t0,28(sp)
     be0:	afb90018 	sw	t9,24(sp)
     be4:	afb80014 	sw	t8,20(sp)
     be8:	afa90024 	sw	t1,36(sp)
     bec:	afaf0010 	sw	t7,16(sp)
     bf0:	afa00020 	sw	zero,32(sp)
     bf4:	27a70040 	addiu	a3,sp,64
     bf8:	0c000000 	jal	0 <func_800437F0>
     bfc:	248407c0 	addiu	a0,a0,1984
     c00:	1040000b 	beqz	v0,c30 <func_800443A0+0x80>
     c04:	8fa40034 	lw	a0,52(sp)
     c08:	0c000000 	jal	0 <func_800437F0>
     c0c:	8fa50054 	lw	a1,84(sp)
     c10:	44802000 	mtc1	zero,$f4
     c14:	00000000 	nop
     c18:	4604003c 	c.lt.s	$f0,$f4
     c1c:	00000000 	nop
     c20:	45020004 	bc1fl	c34 <func_800443A0+0x84>
     c24:	00001025 	move	v0,zero
     c28:	10000002 	b	c34 <func_800443A0+0x84>
     c2c:	24020001 	li	v0,1
     c30:	00001025 	move	v0,zero
     c34:	8fbf002c 	lw	ra,44(sp)
     c38:	27bd0050 	addiu	sp,sp,80
     c3c:	03e00008 	jr	ra
     c40:	00000000 	nop

00000c44 <func_80044434>:
     c44:	27bdffd0 	addiu	sp,sp,-48
     c48:	afbf001c 	sw	ra,28(sp)
     c4c:	afb00018 	sw	s0,24(sp)
     c50:	afa40030 	sw	a0,48(sp)
     c54:	afa60038 	sw	a2,56(sp)
     c58:	afa7003c 	sw	a3,60(sp)
     c5c:	8c84008c 	lw	a0,140(a0)
     c60:	00c03825 	move	a3,a2
     c64:	00a08025 	move	s0,a1
     c68:	27a50028 	addiu	a1,sp,40
     c6c:	8fa6003c 	lw	a2,60(sp)
     c70:	0c000000 	jal	0 <func_800437F0>
     c74:	248407c0 	addiu	a0,a0,1984
     c78:	3c01c6fa 	lui	at,0xc6fa
     c7c:	44812000 	mtc1	at,$f4
     c80:	46000086 	mov.s	$f2,$f0
     c84:	8faf0028 	lw	t7,40(sp)
     c88:	46040032 	c.eq.s	$f0,$f4
     c8c:	00000000 	nop
     c90:	45020009 	bc1fl	cb8 <func_80044434+0x74>
     c94:	85f80008 	lh	t8,8(t7)
     c98:	44800000 	mtc1	zero,$f0
     c9c:	3c013f80 	lui	at,0x3f80
     ca0:	44813000 	mtc1	at,$f6
     ca4:	e6000000 	swc1	$f0,0(s0)
     ca8:	e6000008 	swc1	$f0,8(s0)
     cac:	10000017 	b	d0c <func_80044434+0xc8>
     cb0:	e6060004 	swc1	$f6,4(s0)
     cb4:	85f80008 	lh	t8,8(t7)
     cb8:	3c010000 	lui	at,0x0
     cbc:	c4200d50 	lwc1	$f0,3408(at)
     cc0:	44984000 	mtc1	t8,$f8
     cc4:	00000000 	nop
     cc8:	468042a0 	cvt.s.w	$f10,$f8
     ccc:	46005402 	mul.s	$f16,$f10,$f0
     cd0:	e6100000 	swc1	$f16,0(s0)
     cd4:	8fb90028 	lw	t9,40(sp)
     cd8:	8728000a 	lh	t0,10(t9)
     cdc:	44889000 	mtc1	t0,$f18
     ce0:	00000000 	nop
     ce4:	46809120 	cvt.s.w	$f4,$f18
     ce8:	46002182 	mul.s	$f6,$f4,$f0
     cec:	e6060004 	swc1	$f6,4(s0)
     cf0:	8fa90028 	lw	t1,40(sp)
     cf4:	852a000c 	lh	t2,12(t1)
     cf8:	448a4000 	mtc1	t2,$f8
     cfc:	00000000 	nop
     d00:	468042a0 	cvt.s.w	$f10,$f8
     d04:	46005402 	mul.s	$f16,$f10,$f0
     d08:	e6100008 	swc1	$f16,8(s0)
     d0c:	8fbf001c 	lw	ra,28(sp)
     d10:	8fb00018 	lw	s0,24(sp)
     d14:	27bd0030 	addiu	sp,sp,48
     d18:	03e00008 	jr	ra
     d1c:	46001006 	mov.s	$f0,$f2

00000d20 <func_80044510>:
     d20:	27bdffc8 	addiu	sp,sp,-56
     d24:	afbf0014 	sw	ra,20(sp)
     d28:	afa5003c 	sw	a1,60(sp)
     d2c:	8cb80000 	lw	t8,0(a1)
     d30:	27a6002c 	addiu	a2,sp,44
     d34:	3c0142a0 	lui	at,0x42a0
     d38:	acd80000 	sw	t8,0(a2)
     d3c:	8caf0004 	lw	t7,4(a1)
     d40:	44813000 	mtc1	at,$f6
     d44:	27a7001c 	addiu	a3,sp,28
     d48:	accf0004 	sw	t7,4(a2)
     d4c:	8cb80008 	lw	t8,8(a1)
     d50:	27a50020 	addiu	a1,sp,32
     d54:	acd80008 	sw	t8,8(a2)
     d58:	c7a40030 	lwc1	$f4,48(sp)
     d5c:	46062200 	add.s	$f8,$f4,$f6
     d60:	0c000000 	jal	0 <func_800437F0>
     d64:	e7a80030 	swc1	$f8,48(sp)
     d68:	8fbf0014 	lw	ra,20(sp)
     d6c:	27bd0038 	addiu	sp,sp,56
     d70:	03e00008 	jr	ra
     d74:	00000000 	nop

00000d78 <func_80044568>:
     d78:	27bdff90 	addiu	sp,sp,-112
     d7c:	f7bc0030 	sdc1	$f28,48(sp)
     d80:	3c01c6fa 	lui	at,0xc6fa
     d84:	4481e000 	mtc1	at,$f28
     d88:	f7ba0028 	sdc1	$f26,40(sp)
     d8c:	3c014120 	lui	at,0x4120
     d90:	afbf005c 	sw	ra,92(sp)
     d94:	afb70058 	sw	s7,88(sp)
     d98:	afb60054 	sw	s6,84(sp)
     d9c:	afb50050 	sw	s5,80(sp)
     da0:	afb4004c 	sw	s4,76(sp)
     da4:	afb30048 	sw	s3,72(sp)
     da8:	afb20044 	sw	s2,68(sp)
     dac:	afb10040 	sw	s1,64(sp)
     db0:	afb0003c 	sw	s0,60(sp)
     db4:	f7b80020 	sdc1	$f24,32(sp)
     db8:	f7b60018 	sdc1	$f22,24(sp)
     dbc:	f7b40010 	sdc1	$f20,16(sp)
     dc0:	4481d000 	mtc1	at,$f26
     dc4:	8c90008c 	lw	s0,140(a0)
     dc8:	3c013f00 	lui	at,0x3f00
     dcc:	4481c000 	mtc1	at,$f24
     dd0:	3c010000 	lui	at,0x0
     dd4:	00e08825 	move	s1,a3
     dd8:	00c09025 	move	s2,a2
     ddc:	0080a025 	move	s4,a0
     de0:	00a0b825 	move	s7,a1
     de4:	c4360000 	lwc1	$f22,0(at)
     de8:	24130003 	li	s3,3
     dec:	27b5006c 	addiu	s5,sp,108
     df0:	24160001 	li	s6,1
     df4:	261007c0 	addiu	s0,s0,1984
     df8:	02002025 	move	a0,s0
     dfc:	02a02825 	move	a1,s5
     e00:	02203025 	move	a2,s1
     e04:	0c000000 	jal	0 <func_800437F0>
     e08:	02403825 	move	a3,s2
     e0c:	461c0032 	c.eq.s	$f0,$f28
     e10:	46000506 	mov.s	$f20,$f0
     e14:	8fae006c 	lw	t6,108(sp)
     e18:	02002025 	move	a0,s0
     e1c:	4501000f 	bc1t	e5c <func_80044568+0xe4>
     e20:	8fa5006c 	lw	a1,108(sp)
     e24:	c6840104 	lwc1	$f4,260(s4)
     e28:	4600203c 	c.lt.s	$f4,$f0
     e2c:	00000000 	nop
     e30:	45000012 	bc1f	e7c <func_80044568+0x104>
     e34:	00000000 	nop
     e38:	85cf000a 	lh	t7,10(t6)
     e3c:	448f3000 	mtc1	t7,$f6
     e40:	00000000 	nop
     e44:	46803220 	cvt.s.w	$f8,$f6
     e48:	46164282 	mul.s	$f10,$f8,$f22
     e4c:	460ac03c 	c.lt.s	$f24,$f10
     e50:	00000000 	nop
     e54:	45010009 	bc1t	e7c <func_80044568+0x104>
     e58:	00000000 	nop
     e5c:	44800000 	mtc1	zero,$f0
     e60:	3c013f80 	lui	at,0x3f80
     e64:	44818000 	mtc1	at,$f16
     e68:	4600e506 	mov.s	$f20,$f28
     e6c:	e6e00000 	swc1	$f0,0(s7)
     e70:	e6e00008 	swc1	$f0,8(s7)
     e74:	10000021 	b	efc <func_80044568+0x184>
     e78:	e6f00004 	swc1	$f16,4(s7)
     e7c:	0c000000 	jal	0 <func_800437F0>
     e80:	8e260000 	lw	a2,0(s1)
     e84:	54560006 	bnel	v0,s6,ea0 <func_80044568+0x128>
     e88:	8fb8006c 	lw	t8,108(sp)
     e8c:	461aa481 	sub.s	$f18,$f20,$f26
     e90:	2673ffff 	addiu	s3,s3,-1
     e94:	10000017 	b	ef4 <func_80044568+0x17c>
     e98:	e6520004 	swc1	$f18,4(s2)
     e9c:	8fb8006c 	lw	t8,108(sp)
     ea0:	87190008 	lh	t9,8(t8)
     ea4:	44992000 	mtc1	t9,$f4
     ea8:	00000000 	nop
     eac:	468021a0 	cvt.s.w	$f6,$f4
     eb0:	46163202 	mul.s	$f8,$f6,$f22
     eb4:	e6e80000 	swc1	$f8,0(s7)
     eb8:	8fa8006c 	lw	t0,108(sp)
     ebc:	8509000a 	lh	t1,10(t0)
     ec0:	44895000 	mtc1	t1,$f10
     ec4:	00000000 	nop
     ec8:	46805420 	cvt.s.w	$f16,$f10
     ecc:	46168482 	mul.s	$f18,$f16,$f22
     ed0:	e6f20004 	swc1	$f18,4(s7)
     ed4:	8faa006c 	lw	t2,108(sp)
     ed8:	854b000c 	lh	t3,12(t2)
     edc:	448b2000 	mtc1	t3,$f4
     ee0:	00000000 	nop
     ee4:	468021a0 	cvt.s.w	$f6,$f4
     ee8:	46163202 	mul.s	$f8,$f6,$f22
     eec:	10000003 	b	efc <func_80044568+0x184>
     ef0:	e6e80008 	swc1	$f8,8(s7)
     ef4:	5660ffc1 	bnezl	s3,dfc <func_80044568+0x84>
     ef8:	02002025 	move	a0,s0
     efc:	16600003 	bnez	s3,f0c <func_80044568+0x194>
     f00:	3c040000 	lui	a0,0x0
     f04:	0c000000 	jal	0 <func_800437F0>
     f08:	24840000 	addiu	a0,a0,0
     f0c:	8fbf005c 	lw	ra,92(sp)
     f10:	4600a006 	mov.s	$f0,$f20
     f14:	d7b40010 	ldc1	$f20,16(sp)
     f18:	d7b60018 	ldc1	$f22,24(sp)
     f1c:	d7b80020 	ldc1	$f24,32(sp)
     f20:	d7ba0028 	ldc1	$f26,40(sp)
     f24:	d7bc0030 	ldc1	$f28,48(sp)
     f28:	8fb0003c 	lw	s0,60(sp)
     f2c:	8fb10040 	lw	s1,64(sp)
     f30:	8fb20044 	lw	s2,68(sp)
     f34:	8fb30048 	lw	s3,72(sp)
     f38:	8fb4004c 	lw	s4,76(sp)
     f3c:	8fb50050 	lw	s5,80(sp)
     f40:	8fb60054 	lw	s6,84(sp)
     f44:	8fb70058 	lw	s7,88(sp)
     f48:	03e00008 	jr	ra
     f4c:	27bd0070 	addiu	sp,sp,112

00000f50 <func_80044740>:
     f50:	27bdffe8 	addiu	sp,sp,-24
     f54:	afbf0014 	sw	ra,20(sp)
     f58:	8c84008c 	lw	a0,140(a0)
     f5c:	24060032 	li	a2,50
     f60:	0c000000 	jal	0 <func_800437F0>
     f64:	248407c0 	addiu	a0,a0,1984
     f68:	8fbf0014 	lw	ra,20(sp)
     f6c:	00021400 	sll	v0,v0,0x10
     f70:	00021403 	sra	v0,v0,0x10
     f74:	03e00008 	jr	ra
     f78:	27bd0018 	addiu	sp,sp,24

00000f7c <func_8004476C>:
     f7c:	27bdffe8 	addiu	sp,sp,-24
     f80:	afbf0014 	sw	ra,20(sp)
     f84:	00803825 	move	a3,a0
     f88:	8c84008c 	lw	a0,140(a0)
     f8c:	84e50148 	lh	a1,328(a3)
     f90:	24060032 	li	a2,50
     f94:	0c000000 	jal	0 <func_800437F0>
     f98:	248407c0 	addiu	a0,a0,1984
     f9c:	8fbf0014 	lw	ra,20(sp)
     fa0:	27bd0018 	addiu	sp,sp,24
     fa4:	03e00008 	jr	ra
     fa8:	00000000 	nop

00000fac <func_8004479C>:
     fac:	27bdffc8 	addiu	sp,sp,-56
     fb0:	afa40038 	sw	a0,56(sp)
     fb4:	8fae0038 	lw	t6,56(sp)
     fb8:	afbf0014 	sw	ra,20(sp)
     fbc:	afa5003c 	sw	a1,60(sp)
     fc0:	afa60040 	sw	a2,64(sp)
     fc4:	27a40020 	addiu	a0,sp,32
     fc8:	0c000000 	jal	0 <func_800437F0>
     fcc:	8dc50090 	lw	a1,144(t6)
     fd0:	8faf0038 	lw	t7,56(sp)
     fd4:	8fb8003c 	lw	t8,60(sp)
     fd8:	8fa50040 	lw	a1,64(sp)
     fdc:	8de4008c 	lw	a0,140(t7)
     fe0:	8f060000 	lw	a2,0(t8)
     fe4:	0c000000 	jal	0 <func_800437F0>
     fe8:	248407c0 	addiu	a0,a0,1984
     fec:	8fb90038 	lw	t9,56(sp)
     ff0:	afa20034 	sw	v0,52(sp)
     ff4:	8fa8003c 	lw	t0,60(sp)
     ff8:	8f24008c 	lw	a0,140(t9)
     ffc:	00402825 	move	a1,v0
    1000:	8d060000 	lw	a2,0(t0)
    1004:	0c000000 	jal	0 <func_800437F0>
    1008:	248407c0 	addiu	a0,a0,1984
    100c:	14400003 	bnez	v0,101c <func_8004479C+0x70>
    1010:	8fbf0014 	lw	ra,20(sp)
    1014:	10000002 	b	1020 <func_8004479C+0x74>
    1018:	2403ffff 	li	v1,-1
    101c:	8fa30034 	lw	v1,52(sp)
    1020:	00601025 	move	v0,v1
    1024:	03e00008 	jr	ra
    1028:	27bd0038 	addiu	sp,sp,56

0000102c <func_8004481C>:
    102c:	27bdffb8 	addiu	sp,sp,-72
    1030:	afb00018 	sw	s0,24(sp)
    1034:	00808025 	move	s0,a0
    1038:	afbf001c 	sw	ra,28(sp)
    103c:	afa5004c 	sw	a1,76(sp)
    1040:	8e050090 	lw	a1,144(s0)
    1044:	0c000000 	jal	0 <func_800437F0>
    1048:	27a40028 	addiu	a0,sp,40
    104c:	0c000000 	jal	0 <func_800437F0>
    1050:	8e040090 	lw	a0,144(s0)
    1054:	c7a4002c 	lwc1	$f4,44(sp)
    1058:	27a50044 	addiu	a1,sp,68
    105c:	27a6003c 	addiu	a2,sp,60
    1060:	46002180 	add.s	$f6,$f4,$f0
    1064:	27a70028 	addiu	a3,sp,40
    1068:	e7a6002c 	swc1	$f6,44(sp)
    106c:	8e04008c 	lw	a0,140(s0)
    1070:	0c000000 	jal	0 <func_800437F0>
    1074:	248407c0 	addiu	a0,a0,1984
    1078:	3c01c6fa 	lui	at,0xc6fa
    107c:	44814000 	mtc1	at,$f8
    1080:	8fa50044 	lw	a1,68(sp)
    1084:	46080032 	c.eq.s	$f0,$f8
    1088:	00000000 	nop
    108c:	45020004 	bc1fl	10a0 <func_8004481C+0x74>
    1090:	8e04008c 	lw	a0,140(s0)
    1094:	1000000c 	b	10c8 <func_8004481C+0x9c>
    1098:	00001025 	move	v0,zero
    109c:	8e04008c 	lw	a0,140(s0)
    10a0:	8fa6003c 	lw	a2,60(sp)
    10a4:	0c000000 	jal	0 <func_800437F0>
    10a8:	248407c0 	addiu	a0,a0,1984
    10ac:	8fae004c 	lw	t6,76(sp)
    10b0:	a5c20000 	sh	v0,0(t6)
    10b4:	8e04008c 	lw	a0,140(s0)
    10b8:	8fa6003c 	lw	a2,60(sp)
    10bc:	8fa50044 	lw	a1,68(sp)
    10c0:	0c000000 	jal	0 <func_800437F0>
    10c4:	248407c0 	addiu	a0,a0,1984
    10c8:	8fbf001c 	lw	ra,28(sp)
    10cc:	8fb00018 	lw	s0,24(sp)
    10d0:	27bd0048 	addiu	sp,sp,72
    10d4:	03e00008 	jr	ra
    10d8:	00000000 	nop

000010dc <func_800448CC>:
    10dc:	27bdffb8 	addiu	sp,sp,-72
    10e0:	afb00020 	sw	s0,32(sp)
    10e4:	00808025 	move	s0,a0
    10e8:	afbf0024 	sw	ra,36(sp)
    10ec:	afa5004c 	sw	a1,76(sp)
    10f0:	8e050090 	lw	a1,144(s0)
    10f4:	0c000000 	jal	0 <func_800437F0>
    10f8:	27a40034 	addiu	a0,sp,52
    10fc:	8fa3004c 	lw	v1,76(sp)
    1100:	c7a40038 	lwc1	$f4,56(sp)
    1104:	27ae0030 	addiu	t6,sp,48
    1108:	e4640000 	swc1	$f4,0(v1)
    110c:	8e04008c 	lw	a0,140(s0)
    1110:	afae0014 	sw	t6,20(sp)
    1114:	8fa7003c 	lw	a3,60(sp)
    1118:	8fa60034 	lw	a2,52(sp)
    111c:	afa30010 	sw	v1,16(sp)
    1120:	0c000000 	jal	0 <func_800437F0>
    1124:	248507c0 	addiu	a1,a0,1984
    1128:	14400006 	bnez	v0,1144 <func_800448CC+0x68>
    112c:	8fa3004c 	lw	v1,76(sp)
    1130:	3c01c6fa 	lui	at,0xc6fa
    1134:	44813000 	mtc1	at,$f6
    1138:	2402ffff 	li	v0,-1
    113c:	1000001a 	b	11a8 <func_800448CC+0xcc>
    1140:	e4660000 	swc1	$f6,0(v1)
    1144:	8e0f0090 	lw	t7,144(s0)
    1148:	3c01c6fa 	lui	at,0xc6fa
    114c:	8df8067c 	lw	t8,1660(t7)
    1150:	0018c900 	sll	t9,t8,0x4
    1154:	07220006 	bltzl	t9,1170 <func_800448CC+0x94>
    1158:	8e04008c 	lw	a0,140(s0)
    115c:	44814000 	mtc1	at,$f8
    1160:	2402ffff 	li	v0,-1
    1164:	10000010 	b	11a8 <func_800448CC+0xcc>
    1168:	e4680000 	swc1	$f8,0(v1)
    116c:	8e04008c 	lw	a0,140(s0)
    1170:	8fa50030 	lw	a1,48(sp)
    1174:	0c000000 	jal	0 <func_800437F0>
    1178:	248407c0 	addiu	a0,a0,1984
    117c:	18400007 	blez	v0,119c <func_800448CC+0xc0>
    1180:	8fa50030 	lw	a1,48(sp)
    1184:	8e04008c 	lw	a0,140(s0)
    1188:	afa2002c 	sw	v0,44(sp)
    118c:	0c000000 	jal	0 <func_800437F0>
    1190:	248407c0 	addiu	a0,a0,1984
    1194:	1c400003 	bgtz	v0,11a4 <func_800448CC+0xc8>
    1198:	8fa3002c 	lw	v1,44(sp)
    119c:	10000002 	b	11a8 <func_800448CC+0xcc>
    11a0:	2402fffe 	li	v0,-2
    11a4:	00601025 	move	v0,v1
    11a8:	8fbf0024 	lw	ra,36(sp)
    11ac:	8fb00020 	lw	s0,32(sp)
    11b0:	27bd0048 	addiu	sp,sp,72
    11b4:	03e00008 	jr	ra
    11b8:	00000000 	nop

000011bc <func_800449AC>:
    11bc:	27bdffc0 	addiu	sp,sp,-64
    11c0:	afa40040 	sw	a0,64(sp)
    11c4:	8fae0040 	lw	t6,64(sp)
    11c8:	afbf001c 	sw	ra,28(sp)
    11cc:	afa50044 	sw	a1,68(sp)
    11d0:	afa60048 	sw	a2,72(sp)
    11d4:	27a4002c 	addiu	a0,sp,44
    11d8:	0c000000 	jal	0 <func_800437F0>
    11dc:	8dc50090 	lw	a1,144(t6)
    11e0:	c7a40030 	lwc1	$f4,48(sp)
    11e4:	8fa30044 	lw	v1,68(sp)
    11e8:	8faf0040 	lw	t7,64(sp)
    11ec:	e7a40028 	swc1	$f4,40(sp)
    11f0:	27b80028 	addiu	t8,sp,40
    11f4:	8de4008c 	lw	a0,140(t7)
    11f8:	27b90024 	addiu	t9,sp,36
    11fc:	8c670008 	lw	a3,8(v1)
    1200:	8c660000 	lw	a2,0(v1)
    1204:	afb90014 	sw	t9,20(sp)
    1208:	afb80010 	sw	t8,16(sp)
    120c:	0c000000 	jal	0 <func_800437F0>
    1210:	248507c0 	addiu	a1,a0,1984
    1214:	14400005 	bnez	v0,122c <func_800449AC+0x70>
    1218:	8fa80044 	lw	t0,68(sp)
    121c:	3c01c6fa 	lui	at,0xc6fa
    1220:	44810000 	mtc1	at,$f0
    1224:	10000014 	b	1278 <func_800449AC+0xbc>
    1228:	8fbf001c 	lw	ra,28(sp)
    122c:	c7a60028 	lwc1	$f6,40(sp)
    1230:	c5080004 	lwc1	$f8,4(t0)
    1234:	3c01c6fa 	lui	at,0xc6fa
    1238:	8fa90040 	lw	t1,64(sp)
    123c:	4608303c 	c.lt.s	$f6,$f8
    1240:	00000000 	nop
    1244:	45020005 	bc1fl	125c <func_800449AC+0xa0>
    1248:	8d24008c 	lw	a0,140(t1)
    124c:	44810000 	mtc1	at,$f0
    1250:	10000009 	b	1278 <func_800449AC+0xbc>
    1254:	8fbf001c 	lw	ra,28(sp)
    1258:	8d24008c 	lw	a0,140(t1)
    125c:	8fa50024 	lw	a1,36(sp)
    1260:	0c000000 	jal	0 <func_800437F0>
    1264:	248407c0 	addiu	a0,a0,1984
    1268:	8faa0048 	lw	t2,72(sp)
    126c:	ad420000 	sw	v0,0(t2)
    1270:	c7a00028 	lwc1	$f0,40(sp)
    1274:	8fbf001c 	lw	ra,28(sp)
    1278:	27bd0040 	addiu	sp,sp,64
    127c:	03e00008 	jr	ra
    1280:	00000000 	nop

00001284 <func_80044A74>:
    1284:	27bdffe8 	addiu	sp,sp,-24
    1288:	afbf0014 	sw	ra,20(sp)
    128c:	c48a0008 	lwc1	$f10,8(a0)
    1290:	c4a80008 	lwc1	$f8,8(a1)
    1294:	c4860000 	lwc1	$f6,0(a0)
    1298:	c4a40000 	lwc1	$f4,0(a1)
    129c:	460a4381 	sub.s	$f14,$f8,$f10
    12a0:	0c000000 	jal	0 <func_800437F0>
    12a4:	46062301 	sub.s	$f12,$f4,$f6
    12a8:	3c010000 	lui	at,0x0
    12ac:	c4300d58 	lwc1	$f16,3416(at)
    12b0:	3c010000 	lui	at,0x0
    12b4:	c4240d5c 	lwc1	$f4,3420(at)
    12b8:	46100482 	mul.s	$f18,$f0,$f16
    12bc:	3c013f00 	lui	at,0x3f00
    12c0:	44814000 	mtc1	at,$f8
    12c4:	8fbf0014 	lw	ra,20(sp)
    12c8:	27bd0018 	addiu	sp,sp,24
    12cc:	46049182 	mul.s	$f6,$f18,$f4
    12d0:	46083280 	add.s	$f10,$f6,$f8
    12d4:	4600540d 	trunc.w.s	$f16,$f10
    12d8:	44028000 	mfc1	v0,$f16
    12dc:	00000000 	nop
    12e0:	00021400 	sll	v0,v0,0x10
    12e4:	03e00008 	jr	ra
    12e8:	00021403 	sra	v0,v0,0x10

000012ec <func_80044ADC>:
    12ec:	27bdff90 	addiu	sp,sp,-112
    12f0:	afb00018 	sw	s0,24(sp)
    12f4:	00808025 	move	s0,a0
    12f8:	afbf001c 	sw	ra,28(sp)
    12fc:	afa50074 	sw	a1,116(sp)
    1300:	afa60078 	sw	a2,120(sp)
    1304:	0c000000 	jal	0 <func_800437F0>
    1308:	87a40076 	lh	a0,118(sp)
    130c:	e7a0003c 	swc1	$f0,60(sp)
    1310:	0c000000 	jal	0 <func_800437F0>
    1314:	87a40076 	lh	a0,118(sp)
    1318:	8e040090 	lw	a0,144(s0)
    131c:	0c000000 	jal	0 <func_800437F0>
    1320:	e7a00038 	swc1	$f0,56(sp)
    1324:	3c020000 	lui	v0,0x0
    1328:	8c420000 	lw	v0,0(v0)
    132c:	3c010000 	lui	at,0x0
    1330:	c4320000 	lwc1	$f18,0(at)
    1334:	844e01ba 	lh	t6,442(v0)
    1338:	844f01b6 	lh	t7,438(v0)
    133c:	845801b8 	lh	t8,440(v0)
    1340:	448e2000 	mtc1	t6,$f4
    1344:	448f5000 	mtc1	t7,$f10
    1348:	c7ac0038 	lwc1	$f12,56(sp)
    134c:	468021a0 	cvt.s.w	$f6,$f4
    1350:	87b9007a 	lh	t9,122(sp)
    1354:	3c010000 	lui	at,0x0
    1358:	46805120 	cvt.s.w	$f4,$f10
    135c:	46123202 	mul.s	$f8,$f6,$f18
    1360:	00000000 	nop
    1364:	46004082 	mul.s	$f2,$f8,$f0
    1368:	44984000 	mtc1	t8,$f8
    136c:	46122182 	mul.s	$f6,$f4,$f18
    1370:	468042a0 	cvt.s.w	$f10,$f8
    1374:	46003402 	mul.s	$f16,$f6,$f0
    1378:	c6060094 	lwc1	$f6,148(s0)
    137c:	e7a60064 	swc1	$f6,100(sp)
    1380:	46125102 	mul.s	$f4,$f10,$f18
    1384:	c6080104 	lwc1	$f8,260(s0)
    1388:	c7a6003c 	lwc1	$f6,60(sp)
    138c:	46024280 	add.s	$f10,$f8,$f2
    1390:	46002382 	mul.s	$f14,$f4,$f0
    1394:	e7aa0068 	swc1	$f10,104(sp)
    1398:	46068202 	mul.s	$f8,$f16,$f6
    139c:	c604009c 	lwc1	$f4,156(s0)
    13a0:	c7aa0064 	lwc1	$f10,100(sp)
    13a4:	c7a60068 	lwc1	$f6,104(sp)
    13a8:	e7a4006c 	swc1	$f4,108(sp)
    13ac:	e7a6005c 	swc1	$f6,92(sp)
    13b0:	460a4100 	add.s	$f4,$f8,$f10
    13b4:	460c8202 	mul.s	$f8,$f16,$f12
    13b8:	c7aa006c 	lwc1	$f10,108(sp)
    13bc:	e7a40058 	swc1	$f4,88(sp)
    13c0:	460a4100 	add.s	$f4,$f8,$f10
    13c4:	17200009 	bnez	t9,13ec <func_80044ADC+0x100>
    13c8:	e7a40060 	swc1	$f4,96(sp)
    13cc:	8e08008c 	lw	t0,140(s0)
    13d0:	3c050000 	lui	a1,0x0
    13d4:	24a50000 	addiu	a1,a1,0
    13d8:	8d09009c 	lw	t1,156(t0)
    13dc:	27a40064 	addiu	a0,sp,100
    13e0:	312a0001 	andi	t2,t1,0x1
    13e4:	15400022 	bnez	t2,1470 <func_80044ADC+0x184>
    13e8:	00000000 	nop
    13ec:	c7b2003c 	lwc1	$f18,60(sp)
    13f0:	c7aa0064 	lwc1	$f10,100(sp)
    13f4:	c7a8006c 	lwc1	$f8,108(sp)
    13f8:	46127482 	mul.s	$f18,$f14,$f18
    13fc:	c7a60068 	lwc1	$f6,104(sp)
    1400:	3c060000 	lui	a2,0x0
    1404:	460c7102 	mul.s	$f4,$f14,$f12
    1408:	e4260000 	swc1	$f6,0(at)
    140c:	02002025 	move	a0,s0
    1410:	27a50064 	addiu	a1,sp,100
    1414:	24c60000 	addiu	a2,a2,0
    1418:	460a9280 	add.s	$f10,$f18,$f10
    141c:	e7ae002c 	swc1	$f14,44(sp)
    1420:	e7b00030 	swc1	$f16,48(sp)
    1424:	46082200 	add.s	$f8,$f4,$f8
    1428:	e42a0000 	swc1	$f10,0(at)
    142c:	3c010000 	lui	at,0x0
    1430:	0c000000 	jal	0 <func_800437F0>
    1434:	e4280000 	swc1	$f8,0(at)
    1438:	87ab007a 	lh	t3,122(sp)
    143c:	11600006 	beqz	t3,1458 <func_80044ADC+0x16c>
    1440:	00000000 	nop
    1444:	c6120104 	lwc1	$f18,260(s0)
    1448:	3c010000 	lui	at,0x0
    144c:	e4320000 	swc1	$f18,0(at)
    1450:	3c010000 	lui	at,0x0
    1454:	e4320000 	swc1	$f18,0(at)
    1458:	3c010000 	lui	at,0x0
    145c:	c4300000 	lwc1	$f16,0(at)
    1460:	3c010000 	lui	at,0x0
    1464:	c4320000 	lwc1	$f18,0(at)
    1468:	10000048 	b	158c <func_80044ADC+0x2a0>
    146c:	c6020104 	lwc1	$f2,260(s0)
    1470:	0c000000 	jal	0 <func_800437F0>
    1474:	e7b00030 	swc1	$f16,48(sp)
    1478:	3c0140a0 	lui	at,0x40a0
    147c:	44811000 	mtc1	at,$f2
    1480:	3c010000 	lui	at,0x0
    1484:	c4260000 	lwc1	$f6,0(at)
    1488:	3c010000 	lui	at,0x0
    148c:	c4280000 	lwc1	$f8,0(at)
    1490:	3c010000 	lui	at,0x0
    1494:	e7a0002c 	swc1	$f0,44(sp)
    1498:	46024282 	mul.s	$f10,$f8,$f2
    149c:	c4280000 	lwc1	$f8,0(at)
    14a0:	27a70034 	addiu	a3,sp,52
    14a4:	02002025 	move	a0,s0
    14a8:	27a5004c 	addiu	a1,sp,76
    14ac:	27a60058 	addiu	a2,sp,88
    14b0:	460a3100 	add.s	$f4,$f6,$f10
    14b4:	e4240000 	swc1	$f4,0(at)
    14b8:	3c010000 	lui	at,0x0
    14bc:	c4260000 	lwc1	$f6,0(at)
    14c0:	3c010000 	lui	at,0x0
    14c4:	46023282 	mul.s	$f10,$f6,$f2
    14c8:	460a4100 	add.s	$f4,$f8,$f10
    14cc:	e4240000 	swc1	$f4,0(at)
    14d0:	3c010000 	lui	at,0x0
    14d4:	c4260000 	lwc1	$f6,0(at)
    14d8:	3c010000 	lui	at,0x0
    14dc:	c4280000 	lwc1	$f8,0(at)
    14e0:	3c010000 	lui	at,0x0
    14e4:	46024282 	mul.s	$f10,$f8,$f2
    14e8:	c7a80030 	lwc1	$f8,48(sp)
    14ec:	4608003c 	c.lt.s	$f0,$f8
    14f0:	460a3100 	add.s	$f4,$f6,$f10
    14f4:	c7a6002c 	lwc1	$f6,44(sp)
    14f8:	4500000a 	bc1f	1524 <func_80044ADC+0x238>
    14fc:	e4240000 	swc1	$f4,0(at)
    1500:	3c060000 	lui	a2,0x0
    1504:	e7a60030 	swc1	$f6,48(sp)
    1508:	24c60000 	addiu	a2,a2,0
    150c:	02002025 	move	a0,s0
    1510:	0c000000 	jal	0 <func_800437F0>
    1514:	27a5004c 	addiu	a1,sp,76
    1518:	46000406 	mov.s	$f16,$f0
    151c:	1000000e 	b	1558 <func_80044ADC+0x26c>
    1520:	46000486 	mov.s	$f18,$f0
    1524:	0c000000 	jal	0 <func_800437F0>
    1528:	27a70034 	addiu	a3,sp,52
    152c:	3c060000 	lui	a2,0x0
    1530:	3c010000 	lui	at,0x0
    1534:	e4200000 	swc1	$f0,0(at)
    1538:	24c60000 	addiu	a2,a2,0
    153c:	02002025 	move	a0,s0
    1540:	27a5004c 	addiu	a1,sp,76
    1544:	0c000000 	jal	0 <func_800437F0>
    1548:	27a70034 	addiu	a3,sp,52
    154c:	3c010000 	lui	at,0x0
    1550:	c4320000 	lwc1	$f18,0(at)
    1554:	46000406 	mov.s	$f16,$f0
    1558:	3c01c6fa 	lui	at,0xc6fa
    155c:	44816000 	mtc1	at,$f12
    1560:	00000000 	nop
    1564:	460c9032 	c.eq.s	$f18,$f12
    1568:	00000000 	nop
    156c:	45020003 	bc1fl	157c <func_80044ADC+0x290>
    1570:	460c0032 	c.eq.s	$f0,$f12
    1574:	c6120104 	lwc1	$f18,260(s0)
    1578:	460c0032 	c.eq.s	$f0,$f12
    157c:	c6020104 	lwc1	$f2,260(s0)
    1580:	45000002 	bc1f	158c <func_80044ADC+0x2a0>
    1584:	00000000 	nop
    1588:	46009406 	mov.s	$f16,$f18
    158c:	3c0c0000 	lui	t4,0x0
    1590:	8d8c0000 	lw	t4,0(t4)
    1594:	3c010000 	lui	at,0x0
    1598:	c4280000 	lwc1	$f8,0(at)
    159c:	858d01bc 	lh	t5,444(t4)
    15a0:	3c013f80 	lui	at,0x3f80
    15a4:	46029181 	sub.s	$f6,$f18,$f2
    15a8:	448d5000 	mtc1	t5,$f10
    15ac:	c7ae0030 	lwc1	$f14,48(sp)
    15b0:	46805120 	cvt.s.w	$f4,$f10
    15b4:	44815000 	mtc1	at,$f10
    15b8:	3c010000 	lui	at,0x0
    15bc:	e4300000 	swc1	$f16,0(at)
    15c0:	3c010000 	lui	at,0x0
    15c4:	e4320000 	swc1	$f18,0(at)
    15c8:	46082002 	mul.s	$f0,$f4,$f8
    15cc:	46028201 	sub.s	$f8,$f16,$f2
    15d0:	46005101 	sub.s	$f4,$f10,$f0
    15d4:	46060302 	mul.s	$f12,$f0,$f6
    15d8:	00000000 	nop
    15dc:	46082182 	mul.s	$f6,$f4,$f8
    15e0:	0c000000 	jal	0 <func_800437F0>
    15e4:	e7a60040 	swc1	$f6,64(sp)
    15e8:	3c010000 	lui	at,0x0
    15ec:	c42a0000 	lwc1	$f10,0(at)
    15f0:	3c010000 	lui	at,0x0
    15f4:	c4280000 	lwc1	$f8,0(at)
    15f8:	460a0102 	mul.s	$f4,$f0,$f10
    15fc:	3c013f00 	lui	at,0x3f00
    1600:	44815000 	mtc1	at,$f10
    1604:	c7ac0040 	lwc1	$f12,64(sp)
    1608:	c7ae002c 	lwc1	$f14,44(sp)
    160c:	46082182 	mul.s	$f6,$f4,$f8
    1610:	460a3100 	add.s	$f4,$f6,$f10
    1614:	4600220d 	trunc.w.s	$f8,$f4
    1618:	44104000 	mfc1	s0,$f8
    161c:	00000000 	nop
    1620:	00108400 	sll	s0,s0,0x10
    1624:	0c000000 	jal	0 <func_800437F0>
    1628:	00108403 	sra	s0,s0,0x10
    162c:	3c010000 	lui	at,0x0
    1630:	c4260000 	lwc1	$f6,0(at)
    1634:	3c010000 	lui	at,0x0
    1638:	c4240000 	lwc1	$f4,0(at)
    163c:	46060282 	mul.s	$f10,$f0,$f6
    1640:	3c013f00 	lui	at,0x3f00
    1644:	44813000 	mtc1	at,$f6
    1648:	8fbf001c 	lw	ra,28(sp)
    164c:	46045202 	mul.s	$f8,$f10,$f4
    1650:	46064280 	add.s	$f10,$f8,$f6
    1654:	4600510d 	trunc.w.s	$f4,$f10
    1658:	44082000 	mfc1	t0,$f4
    165c:	00000000 	nop
    1660:	02081021 	addu	v0,s0,t0
    1664:	00021400 	sll	v0,v0,0x10
    1668:	8fb00018 	lw	s0,24(sp)
    166c:	27bd0070 	addiu	sp,sp,112
    1670:	03e00008 	jr	ra
    1674:	00021403 	sra	v0,v0,0x10

00001678 <func_80044E68>:
    1678:	27bdff38 	addiu	sp,sp,-200
    167c:	afbf0024 	sw	ra,36(sp)
    1680:	afa400c8 	sw	a0,200(sp)
    1684:	afa500cc 	sw	a1,204(sp)
    1688:	f7b60018 	sdc1	$f22,24(sp)
    168c:	f7b40010 	sdc1	$f20,16(sp)
    1690:	afa600d0 	sw	a2,208(sp)
    1694:	afa700d4 	sw	a3,212(sp)
    1698:	0c000000 	jal	0 <func_800437F0>
    169c:	87a400ce 	lh	a0,206(sp)
    16a0:	46000586 	mov.s	$f22,$f0
    16a4:	0c000000 	jal	0 <func_800437F0>
    16a8:	87a400ce 	lh	a0,206(sp)
    16ac:	46000506 	mov.s	$f20,$f0
    16b0:	0c000000 	jal	0 <func_800437F0>
    16b4:	87a400d2 	lh	a0,210(sp)
    16b8:	e7a000bc 	swc1	$f0,188(sp)
    16bc:	0c000000 	jal	0 <func_800437F0>
    16c0:	87a400d2 	lh	a0,210(sp)
    16c4:	87a400d6 	lh	a0,214(sp)
    16c8:	e7a000b8 	swc1	$f0,184(sp)
    16cc:	00042023 	negu	a0,a0
    16d0:	00042400 	sll	a0,a0,0x10
    16d4:	00042403 	sra	a0,a0,0x10
    16d8:	0c000000 	jal	0 <func_800437F0>
    16dc:	afa40060 	sw	a0,96(sp)
    16e0:	8fa40060 	lw	a0,96(sp)
    16e4:	0c000000 	jal	0 <func_800437F0>
    16e8:	e7a000b4 	swc1	$f0,180(sp)
    16ec:	4600b107 	neg.s	$f4,$f22
    16f0:	c7a600bc 	lwc1	$f6,188(sp)
    16f4:	e7a40060 	swc1	$f4,96(sp)
    16f8:	c7aa0060 	lwc1	$f10,96(sp)
    16fc:	3c013f80 	lui	at,0x3f80
    1700:	44812000 	mtc1	at,$f4
    1704:	46065402 	mul.s	$f16,$f10,$f6
    1708:	e7aa0028 	swc1	$f10,40(sp)
    170c:	46002381 	sub.s	$f14,$f4,$f0
    1710:	4606a082 	mul.s	$f2,$f20,$f6
    1714:	c7a400b8 	lwc1	$f4,184(sp)
    1718:	27b900a4 	addiu	t9,sp,164
    171c:	8fa200c8 	lw	v0,200(sp)
    1720:	46021202 	mul.s	$f8,$f2,$f2
    1724:	00000000 	nop
    1728:	46161182 	mul.s	$f6,$f2,$f22
    172c:	e7a80054 	swc1	$f8,84(sp)
    1730:	460e3202 	mul.s	$f8,$f6,$f14
    1734:	c7a600b4 	lwc1	$f6,180(sp)
    1738:	4604a302 	mul.s	$f12,$f20,$f4
    173c:	e7a6002c 	swc1	$f6,44(sp)
    1740:	e7a8004c 	swc1	$f8,76(sp)
    1744:	46066282 	mul.s	$f10,$f12,$f6
    1748:	e7aa0044 	swc1	$f10,68(sp)
    174c:	c7aa0028 	lwc1	$f10,40(sp)
    1750:	e7a80028 	swc1	$f8,40(sp)
    1754:	c7a80054 	lwc1	$f8,84(sp)
    1758:	46045482 	mul.s	$f18,$f10,$f4
    175c:	00000000 	nop
    1760:	46026282 	mul.s	$f10,$f12,$f2
    1764:	00000000 	nop
    1768:	460e5102 	mul.s	$f4,$f10,$f14
    176c:	00000000 	nop
    1770:	4606b282 	mul.s	$f10,$f22,$f6
    1774:	e7a40040 	swc1	$f4,64(sp)
    1778:	e7aa003c 	swc1	$f10,60(sp)
    177c:	44815000 	mtc1	at,$f10
    1780:	00000000 	nop
    1784:	46085281 	sub.s	$f10,$f10,$f8
    1788:	46005282 	mul.s	$f10,$f10,$f0
    178c:	46085280 	add.s	$f10,$f10,$f8
    1790:	460a8202 	mul.s	$f8,$f16,$f10
    1794:	c7aa0028 	lwc1	$f10,40(sp)
    1798:	e7a40028 	swc1	$f4,40(sp)
    179c:	c7a40044 	lwc1	$f4,68(sp)
    17a0:	46045181 	sub.s	$f6,$f10,$f4
    17a4:	e7a40030 	swc1	$f4,48(sp)
    17a8:	4606a182 	mul.s	$f6,$f20,$f6
    17ac:	46064200 	add.s	$f8,$f8,$f6
    17b0:	c7a60028 	lwc1	$f6,40(sp)
    17b4:	e7aa0028 	swc1	$f10,40(sp)
    17b8:	c7aa003c 	lwc1	$f10,60(sp)
    17bc:	460a3100 	add.s	$f4,$f6,$f10
    17c0:	46049102 	mul.s	$f4,$f18,$f4
    17c4:	46044200 	add.s	$f8,$f8,$f4
    17c8:	4616b102 	mul.s	$f4,$f22,$f22
    17cc:	e7a800a4 	swc1	$f8,164(sp)
    17d0:	460cb202 	mul.s	$f8,$f22,$f12
    17d4:	e7a40054 	swc1	$f4,84(sp)
    17d8:	460e4102 	mul.s	$f4,$f8,$f14
    17dc:	c7a8002c 	lwc1	$f8,44(sp)
    17e0:	e7a6002c 	swc1	$f6,44(sp)
    17e4:	c7a60030 	lwc1	$f6,48(sp)
    17e8:	46081202 	mul.s	$f8,$f2,$f8
    17ec:	e7aa0030 	swc1	$f10,48(sp)
    17f0:	c7aa0054 	lwc1	$f10,84(sp)
    17f4:	e7a40050 	swc1	$f4,80(sp)
    17f8:	e7a80058 	swc1	$f8,88(sp)
    17fc:	c7a80028 	lwc1	$f8,40(sp)
    1800:	46064200 	add.s	$f8,$f8,$f6
    1804:	46088182 	mul.s	$f6,$f16,$f8
    1808:	44814000 	mtc1	at,$f8
    180c:	00000000 	nop
    1810:	460a4201 	sub.s	$f8,$f8,$f10
    1814:	46004282 	mul.s	$f10,$f8,$f0
    1818:	c7a80054 	lwc1	$f8,84(sp)
    181c:	46085280 	add.s	$f10,$f10,$f8
    1820:	460aa202 	mul.s	$f8,$f20,$f10
    1824:	46083280 	add.s	$f10,$f6,$f8
    1828:	c7a60058 	lwc1	$f6,88(sp)
    182c:	46062201 	sub.s	$f8,$f4,$f6
    1830:	46089182 	mul.s	$f6,$f18,$f8
    1834:	46065200 	add.s	$f8,$f10,$f6
    1838:	460c6282 	mul.s	$f10,$f12,$f12
    183c:	c7a6002c 	lwc1	$f6,44(sp)
    1840:	e7a800a8 	swc1	$f8,168(sp)
    1844:	c7a80030 	lwc1	$f8,48(sp)
    1848:	e7aa0054 	swc1	$f10,84(sp)
    184c:	46083281 	sub.s	$f10,$f6,$f8
    1850:	c7a80058 	lwc1	$f8,88(sp)
    1854:	460a8182 	mul.s	$f6,$f16,$f10
    1858:	46082280 	add.s	$f10,$f4,$f8
    185c:	460aa102 	mul.s	$f4,$f20,$f10
    1860:	44815000 	mtc1	at,$f10
    1864:	46043200 	add.s	$f8,$f6,$f4
    1868:	c7a60054 	lwc1	$f6,84(sp)
    186c:	46065101 	sub.s	$f4,$f10,$f6
    1870:	c7a60054 	lwc1	$f6,84(sp)
    1874:	46002282 	mul.s	$f10,$f4,$f0
    1878:	46065100 	add.s	$f4,$f10,$f6
    187c:	46049282 	mul.s	$f10,$f18,$f4
    1880:	460a4180 	add.s	$f6,$f8,$f10
    1884:	e7a600ac 	swc1	$f6,172(sp)
    1888:	8f290000 	lw	t1,0(t9)
    188c:	ac490000 	sw	t1,0(v0)
    1890:	8f280004 	lw	t0,4(t9)
    1894:	ac480004 	sw	t0,4(v0)
    1898:	8f290008 	lw	t1,8(t9)
    189c:	ac490008 	sw	t1,8(v0)
    18a0:	8fbf0024 	lw	ra,36(sp)
    18a4:	d7b60018 	ldc1	$f22,24(sp)
    18a8:	d7b40010 	ldc1	$f20,16(sp)
    18ac:	03e00008 	jr	ra
    18b0:	27bd00c8 	addiu	sp,sp,200

000018b4 <func_800450A4>:
    18b4:	3c020000 	lui	v0,0x0
    18b8:	8c420000 	lw	v0,0(v0)
    18bc:	3c010000 	lui	at,0x0
    18c0:	c4300d78 	lwc1	$f16,3448(at)
    18c4:	844e01e6 	lh	t6,486(v0)
    18c8:	c4800100 	lwc1	$f0,256(a0)
    18cc:	44857000 	mtc1	a1,$f14
    18d0:	448e2000 	mtc1	t6,$f4
    18d4:	00000000 	nop
    18d8:	468021a0 	cvt.s.w	$f6,$f4
    18dc:	46103082 	mul.s	$f2,$f6,$f16
    18e0:	4602003c 	c.lt.s	$f0,$f2
    18e4:	00000000 	nop
    18e8:	45020004 	bc1fl	18fc <func_800450A4+0x48>
    18ec:	4600703e 	c.le.s	$f14,$f0
    18f0:	03e00008 	jr	ra
    18f4:	46001006 	mov.s	$f0,$f2
    18f8:	4600703e 	c.le.s	$f14,$f0
    18fc:	00000000 	nop
    1900:	45020004 	bc1fl	1914 <func_800450A4+0x60>
    1904:	844f01e8 	lh	t7,488(v0)
    1908:	03e00008 	jr	ra
    190c:	46007006 	mov.s	$f0,$f14
    1910:	844f01e8 	lh	t7,488(v0)
    1914:	448f4000 	mtc1	t7,$f8
    1918:	00000000 	nop
    191c:	468042a0 	cvt.s.w	$f10,$f8
    1920:	46105482 	mul.s	$f18,$f10,$f16
    1924:	00000000 	nop
    1928:	46009302 	mul.s	$f12,$f18,$f0
    192c:	00000000 	nop
    1930:	03e00008 	jr	ra
    1934:	46006006 	mov.s	$f0,$f12

00001938 <Camera_CopyModeValuesToPREG>:
    1938:	27bdffc8 	addiu	sp,sp,-56
    193c:	afb20020 	sw	s2,32(sp)
    1940:	3c120000 	lui	s2,0x0
    1944:	26520000 	addiu	s2,s2,0
    1948:	8e4e0000 	lw	t6,0(s2)
    194c:	afbf0034 	sw	ra,52(sp)
    1950:	afb60030 	sw	s6,48(sp)
    1954:	afb5002c 	sw	s5,44(sp)
    1958:	afb40028 	sw	s4,40(sp)
    195c:	afb30024 	sw	s3,36(sp)
    1960:	afb1001c 	sw	s1,28(sp)
    1964:	afb00018 	sw	s0,24(sp)
    1968:	afa5003c 	sw	a1,60(sp)
    196c:	85cf02f8 	lh	t7,760(t6)
    1970:	00058400 	sll	s0,a1,0x10
    1974:	00108403 	sra	s0,s0,0x10
    1978:	11e00007 	beqz	t7,1998 <Camera_CopyModeValuesToPREG+0x60>
    197c:	0080a825 	move	s5,a0
    1980:	3c040000 	lui	a0,0x0
    1984:	24840000 	addiu	a0,a0,0
    1988:	86a50164 	lh	a1,356(s5)
    198c:	86a60142 	lh	a2,322(s5)
    1990:	0c000000 	jal	0 <func_800437F0>
    1994:	02003825 	move	a3,s0
    1998:	86b80142 	lh	t8,322(s5)
    199c:	3c160000 	lui	s6,0x0
    19a0:	26d60000 	addiu	s6,s6,0
    19a4:	0018c8c0 	sll	t9,t8,0x3
    19a8:	02d94021 	addu	t0,s6,t9
    19ac:	8d090004 	lw	t1,4(t0)
    19b0:	0010a0c0 	sll	s4,s0,0x3
    19b4:	00008825 	move	s1,zero
    19b8:	01341021 	addu	v0,t1,s4
    19bc:	844a0002 	lh	t2,2(v0)
    19c0:	8c430004 	lw	v1,4(v0)
    19c4:	3c130000 	lui	s3,0x0
    19c8:	1940001b 	blez	t2,1a38 <Camera_CopyModeValuesToPREG+0x100>
    19cc:	00608025 	move	s0,v1
    19d0:	26730000 	addiu	s3,s3,0
    19d4:	860d0002 	lh	t5,2(s0)
    19d8:	8e4c0000 	lw	t4,0(s2)
    19dc:	860b0000 	lh	t3,0(s0)
    19e0:	000d7040 	sll	t6,t5,0x1
    19e4:	018e7821 	addu	t7,t4,t6
    19e8:	a5eb0254 	sh	t3,596(t7)
    19ec:	8e580000 	lw	t8,0(s2)
    19f0:	02602025 	move	a0,s3
    19f4:	871902f8 	lh	t9,760(t8)
    19f8:	53200005 	beqzl	t9,1a10 <Camera_CopyModeValuesToPREG+0xd8>
    19fc:	86a80142 	lh	t0,322(s5)
    1a00:	86050002 	lh	a1,2(s0)
    1a04:	0c000000 	jal	0 <func_800437F0>
    1a08:	86060000 	lh	a2,0(s0)
    1a0c:	86a80142 	lh	t0,322(s5)
    1a10:	26310001 	addiu	s1,s1,1
    1a14:	26100004 	addiu	s0,s0,4
    1a18:	000848c0 	sll	t1,t0,0x3
    1a1c:	02c95021 	addu	t2,s6,t1
    1a20:	8d4d0004 	lw	t5,4(t2)
    1a24:	01b46021 	addu	t4,t5,s4
    1a28:	858e0002 	lh	t6,2(t4)
    1a2c:	022e082a 	slt	at,s1,t6
    1a30:	5420ffe9 	bnezl	at,19d8 <Camera_CopyModeValuesToPREG+0xa0>
    1a34:	860d0002 	lh	t5,2(s0)
    1a38:	a6a0015e 	sh	zero,350(s5)
    1a3c:	8fbf0034 	lw	ra,52(sp)
    1a40:	8fb60030 	lw	s6,48(sp)
    1a44:	8fb5002c 	lw	s5,44(sp)
    1a48:	8fb40028 	lw	s4,40(sp)
    1a4c:	8fb30024 	lw	s3,36(sp)
    1a50:	8fb20020 	lw	s2,32(sp)
    1a54:	8fb1001c 	lw	s1,28(sp)
    1a58:	8fb00018 	lw	s0,24(sp)
    1a5c:	03e00008 	jr	ra
    1a60:	27bd0038 	addiu	sp,sp,56

00001a64 <Camera_CopyPREGToModeValues>:
    1a64:	27bdffd0 	addiu	sp,sp,-48
    1a68:	afbf002c 	sw	ra,44(sp)
    1a6c:	afb50028 	sw	s5,40(sp)
    1a70:	afb40024 	sw	s4,36(sp)
    1a74:	afb30020 	sw	s3,32(sp)
    1a78:	afb2001c 	sw	s2,28(sp)
    1a7c:	afb10018 	sw	s1,24(sp)
    1a80:	afb00014 	sw	s0,20(sp)
    1a84:	848e0142 	lh	t6,322(a0)
    1a88:	3c150000 	lui	s5,0x0
    1a8c:	26b50000 	addiu	s5,s5,0
    1a90:	000e78c0 	sll	t7,t6,0x3
    1a94:	84880144 	lh	t0,324(a0)
    1a98:	02afc021 	addu	t8,s5,t7
    1a9c:	8f190004 	lw	t9,4(t8)
    1aa0:	000848c0 	sll	t1,t0,0x3
    1aa4:	00809825 	move	s3,a0
    1aa8:	03291021 	addu	v0,t9,t1
    1aac:	844a0002 	lh	t2,2(v0)
    1ab0:	8c430004 	lw	v1,4(v0)
    1ab4:	00008825 	move	s1,zero
    1ab8:	1940001f 	blez	t2,1b38 <Camera_CopyPREGToModeValues+0xd4>
    1abc:	00608025 	move	s0,v1
    1ac0:	3c140000 	lui	s4,0x0
    1ac4:	3c120000 	lui	s2,0x0
    1ac8:	26520000 	addiu	s2,s2,0
    1acc:	26940000 	addiu	s4,s4,0
    1ad0:	86060002 	lh	a2,2(s0)
    1ad4:	8e4b0000 	lw	t3,0(s2)
    1ad8:	02802025 	move	a0,s4
    1adc:	00066040 	sll	t4,a2,0x1
    1ae0:	016c6821 	addu	t5,t3,t4
    1ae4:	85ae0254 	lh	t6,596(t5)
    1ae8:	a60e0000 	sh	t6,0(s0)
    1aec:	8e4f0000 	lw	t7,0(s2)
    1af0:	85f802f8 	lh	t8,760(t7)
    1af4:	53000004 	beqzl	t8,1b08 <Camera_CopyPREGToModeValues+0xa4>
    1af8:	86680142 	lh	t0,322(s3)
    1afc:	0c000000 	jal	0 <func_800437F0>
    1b00:	86050000 	lh	a1,0(s0)
    1b04:	86680142 	lh	t0,322(s3)
    1b08:	866b0144 	lh	t3,324(s3)
    1b0c:	26310001 	addiu	s1,s1,1
    1b10:	0008c8c0 	sll	t9,t0,0x3
    1b14:	02b94821 	addu	t1,s5,t9
    1b18:	8d2a0004 	lw	t2,4(t1)
    1b1c:	000b60c0 	sll	t4,t3,0x3
    1b20:	26100004 	addiu	s0,s0,4
    1b24:	014c6821 	addu	t5,t2,t4
    1b28:	85ae0002 	lh	t6,2(t5)
    1b2c:	022e082a 	slt	at,s1,t6
    1b30:	5420ffe8 	bnezl	at,1ad4 <Camera_CopyPREGToModeValues+0x70>
    1b34:	86060002 	lh	a2,2(s0)
    1b38:	8fbf002c 	lw	ra,44(sp)
    1b3c:	8fb00014 	lw	s0,20(sp)
    1b40:	8fb10018 	lw	s1,24(sp)
    1b44:	8fb2001c 	lw	s2,28(sp)
    1b48:	8fb30020 	lw	s3,32(sp)
    1b4c:	8fb40024 	lw	s4,36(sp)
    1b50:	8fb50028 	lw	s5,40(sp)
    1b54:	27bd0030 	addiu	sp,sp,48
    1b58:	03e00008 	jr	ra
    1b5c:	24020001 	li	v0,1

00001b60 <func_80045350>:
    1b60:	00042c00 	sll	a1,a0,0x10
    1b64:	00052c03 	sra	a1,a1,0x10
    1b68:	27bdffe8 	addiu	sp,sp,-24
    1b6c:	30aef000 	andi	t6,a1,0xf000
    1b70:	3401f000 	li	at,0xf000
    1b74:	afbf0014 	sw	ra,20(sp)
    1b78:	11c10026 	beq	t6,at,1c14 <func_80045350+0xb4>
    1b7c:	afa40018 	sw	a0,24(sp)
    1b80:	30a27000 	andi	v0,a1,0x7000
    1b84:	24011000 	li	at,4096
    1b88:	1041000b 	beq	v0,at,1bb8 <func_80045350+0x58>
    1b8c:	30a88000 	andi	t0,a1,0x8000
    1b90:	24012000 	li	at,8192
    1b94:	1041000d 	beq	v0,at,1bcc <func_80045350+0x6c>
    1b98:	2418001b 	li	t8,27
    1b9c:	24013000 	li	at,12288
    1ba0:	1041000e 	beq	v0,at,1bdc <func_80045350+0x7c>
    1ba4:	24190020 	li	t9,32
    1ba8:	3c020000 	lui	v0,0x0
    1bac:	24420000 	addiu	v0,v0,0
    1bb0:	1000000d 	b	1be8 <func_80045350+0x88>
    1bb4:	ac400000 	sw	zero,0(v0)
    1bb8:	3c020000 	lui	v0,0x0
    1bbc:	24420000 	addiu	v0,v0,0
    1bc0:	240f001a 	li	t7,26
    1bc4:	10000008 	b	1be8 <func_80045350+0x88>
    1bc8:	ac4f0000 	sw	t7,0(v0)
    1bcc:	3c020000 	lui	v0,0x0
    1bd0:	24420000 	addiu	v0,v0,0
    1bd4:	10000004 	b	1be8 <func_80045350+0x88>
    1bd8:	ac580000 	sw	t8,0(v0)
    1bdc:	3c020000 	lui	v0,0x0
    1be0:	24420000 	addiu	v0,v0,0
    1be4:	ac590000 	sw	t9,0(v0)
    1be8:	51000007 	beqzl	t0,1c08 <func_80045350+0xa8>
    1bec:	8c440000 	lw	a0,0(v0)
    1bf0:	8c440000 	lw	a0,0(v0)
    1bf4:	0c000000 	jal	0 <func_800437F0>
    1bf8:	a7a5001a 	sh	a1,26(sp)
    1bfc:	10000005 	b	1c14 <func_80045350+0xb4>
    1c00:	87a5001a 	lh	a1,26(sp)
    1c04:	8c440000 	lw	a0,0(v0)
    1c08:	0c000000 	jal	0 <func_800437F0>
    1c0c:	a7a5001a 	sh	a1,26(sp)
    1c10:	87a5001a 	lh	a1,26(sp)
    1c14:	30a40f00 	andi	a0,a1,0xf00
    1c18:	24010f00 	li	at,3840
    1c1c:	1081000f 	beq	a0,at,1c5c <func_80045350+0xfc>
    1c20:	00041203 	sra	v0,a0,0x8
    1c24:	00024c00 	sll	t1,v0,0x10
    1c28:	00021c00 	sll	v1,v0,0x10
    1c2c:	00095403 	sra	t2,t1,0x10
    1c30:	15400002 	bnez	t2,1c3c <func_80045350+0xdc>
    1c34:	00031c03 	sra	v1,v1,0x10
    1c38:	24030032 	li	v1,50
    1c3c:	3c020000 	lui	v0,0x0
    1c40:	24420000 	addiu	v0,v0,0
    1c44:	8c4b0000 	lw	t3,0(v0)
    1c48:	506b0005 	beql	v1,t3,1c60 <func_80045350+0x100>
    1c4c:	8fbf0014 	lw	ra,20(sp)
    1c50:	ac430000 	sw	v1,0(v0)
    1c54:	0c000000 	jal	0 <func_800437F0>
    1c58:	94440002 	lhu	a0,2(v0)
    1c5c:	8fbf0014 	lw	ra,20(sp)
    1c60:	27bd0018 	addiu	sp,sp,24
    1c64:	03e00008 	jr	ra
    1c68:	00000000 	nop

00001c6c <func_8004545C>:
    1c6c:	27bdffd0 	addiu	sp,sp,-48
    1c70:	afa7003c 	sw	a3,60(sp)
    1c74:	8fae003c 	lw	t6,60(sp)
    1c78:	8faf0040 	lw	t7,64(sp)
    1c7c:	afa60038 	sw	a2,56(sp)
    1c80:	afbf001c 	sw	ra,28(sp)
    1c84:	afa40030 	sw	a0,48(sp)
    1c88:	afa50034 	sw	a1,52(sp)
    1c8c:	00a03025 	move	a2,a1
    1c90:	27b80024 	addiu	t8,sp,36
    1c94:	8dc40018 	lw	a0,24(t6)
    1c98:	8de50018 	lw	a1,24(t7)
    1c9c:	8fa70038 	lw	a3,56(sp)
    1ca0:	0c000000 	jal	0 <func_800437F0>
    1ca4:	afb80010 	sw	t8,16(sp)
    1ca8:	1440000f 	bnez	v0,1ce8 <func_8004545C+0x7c>
    1cac:	8fa30030 	lw	v1,48(sp)
    1cb0:	3c040000 	lui	a0,0x0
    1cb4:	24840094 	addiu	a0,a0,148
    1cb8:	8fa5003c 	lw	a1,60(sp)
    1cbc:	0c000000 	jal	0 <func_800437F0>
    1cc0:	8fa60040 	lw	a2,64(sp)
    1cc4:	8fb9003c 	lw	t9,60(sp)
    1cc8:	8fa20030 	lw	v0,48(sp)
    1ccc:	8f290000 	lw	t1,0(t9)
    1cd0:	ac490000 	sw	t1,0(v0)
    1cd4:	8f280004 	lw	t0,4(t9)
    1cd8:	ac480004 	sw	t0,4(v0)
    1cdc:	8f290008 	lw	t1,8(t9)
    1ce0:	10000009 	b	1d08 <func_8004545C+0x9c>
    1ce4:	ac490008 	sw	t1,8(v0)
    1ce8:	27aa0024 	addiu	t2,sp,36
    1cec:	8d4c0000 	lw	t4,0(t2)
    1cf0:	00601025 	move	v0,v1
    1cf4:	ac6c0000 	sw	t4,0(v1)
    1cf8:	8d4b0004 	lw	t3,4(t2)
    1cfc:	ac6b0004 	sw	t3,4(v1)
    1d00:	8d4c0008 	lw	t4,8(t2)
    1d04:	ac6c0008 	sw	t4,8(v1)
    1d08:	8fbf001c 	lw	ra,28(sp)
    1d0c:	27bd0030 	addiu	sp,sp,48
    1d10:	03e00008 	jr	ra
    1d14:	00000000 	nop

00001d18 <func_80045508>:
    1d18:	27bdffa8 	addiu	sp,sp,-88
    1d1c:	afbf001c 	sw	ra,28(sp)
    1d20:	afb10018 	sw	s1,24(sp)
    1d24:	afb00014 	sw	s0,20(sp)
    1d28:	afa5005c 	sw	a1,92(sp)
    1d2c:	24820074 	addiu	v0,a0,116
    1d30:	8c4f0000 	lw	t7,0(v0)
    1d34:	24850050 	addiu	a1,a0,80
    1d38:	00c08025 	move	s0,a2
    1d3c:	accf0000 	sw	t7,0(a2)
    1d40:	8c4e0004 	lw	t6,4(v0)
    1d44:	00e08825 	move	s1,a3
    1d48:	acce0004 	sw	t6,4(a2)
    1d4c:	8c4f0008 	lw	t7,8(v0)
    1d50:	accf0008 	sw	t7,8(a2)
    1d54:	afa5002c 	sw	a1,44(sp)
    1d58:	afa40058 	sw	a0,88(sp)
    1d5c:	afa00034 	sw	zero,52(sp)
    1d60:	0c000000 	jal	0 <func_800437F0>
    1d64:	afa20028 	sw	v0,40(sp)
    1d68:	8fa30034 	lw	v1,52(sp)
    1d6c:	10400067 	beqz	v0,1f0c <func_80045508+0x1f4>
    1d70:	afa2003c 	sw	v0,60(sp)
    1d74:	8fb8002c 	lw	t8,44(sp)
    1d78:	2605000c 	addiu	a1,s0,12
    1d7c:	2604001c 	addiu	a0,s0,28
    1d80:	8f080000 	lw	t0,0(t8)
    1d84:	ae280000 	sw	t0,0(s1)
    1d88:	8f190004 	lw	t9,4(t8)
    1d8c:	ae390004 	sw	t9,4(s1)
    1d90:	8f080008 	lw	t0,8(t8)
    1d94:	ae280008 	sw	t0,8(s1)
    1d98:	0c000000 	jal	0 <func_800437F0>
    1d9c:	afa50024 	sw	a1,36(sp)
    1da0:	86090020 	lh	t1,32(s0)
    1da4:	8faa005c 	lw	t2,92(sp)
    1da8:	02203025 	move	a2,s1
    1dac:	29212ee1 	slti	at,t1,12001
    1db0:	54200004 	bnezl	at,1dc4 <func_80045508+0xac>
    1db4:	8fa40058 	lw	a0,88(sp)
    1db8:	854b0006 	lh	t3,6(t2)
    1dbc:	a60b0022 	sh	t3,34(s0)
    1dc0:	8fa40058 	lw	a0,88(sp)
    1dc4:	0c000000 	jal	0 <func_800437F0>
    1dc8:	8fa50028 	lw	a1,40(sp)
    1dcc:	14400023 	bnez	v0,1e5c <func_80045508+0x144>
    1dd0:	afa20038 	sw	v0,56(sp)
    1dd4:	87ac006a 	lh	t4,106(sp)
    1dd8:	8fae002c 	lw	t6,44(sp)
    1ddc:	318d0001 	andi	t5,t4,0x1
    1de0:	11a0001c 	beqz	t5,1e54 <func_80045508+0x13c>
    1de4:	00000000 	nop
    1de8:	8dd80000 	lw	t8,0(t6)
    1dec:	27a50040 	addiu	a1,sp,64
    1df0:	02203025 	move	a2,s1
    1df4:	ae380000 	sw	t8,0(s1)
    1df8:	8dcf0004 	lw	t7,4(t6)
    1dfc:	ae2f0004 	sw	t7,4(s1)
    1e00:	8dd80008 	lw	t8,8(t6)
    1e04:	ae380008 	sw	t8,8(s1)
    1e08:	8fb90058 	lw	t9,88(sp)
    1e0c:	8f29005c 	lw	t1,92(t9)
    1e10:	aca90000 	sw	t1,0(a1)
    1e14:	8f280060 	lw	t0,96(t9)
    1e18:	aca80004 	sw	t0,4(a1)
    1e1c:	8f290064 	lw	t1,100(t9)
    1e20:	aca90008 	sw	t1,8(a1)
    1e24:	0c000000 	jal	0 <func_800437F0>
    1e28:	8fa40058 	lw	a0,88(sp)
    1e2c:	54400004 	bnezl	v0,1e40 <func_80045508+0x128>
    1e30:	8e2a0018 	lw	t2,24(s1)
    1e34:	10000036 	b	1f10 <func_80045508+0x1f8>
    1e38:	24020003 	li	v0,3
    1e3c:	8e2a0018 	lw	t2,24(s1)
    1e40:	8e0b0018 	lw	t3,24(s0)
    1e44:	554b000c 	bnel	t2,t3,1e78 <func_80045508+0x160>
    1e48:	2630000c 	addiu	s0,s1,12
    1e4c:	10000030 	b	1f10 <func_80045508+0x1f8>
    1e50:	24020003 	li	v0,3
    1e54:	1000002e 	b	1f10 <func_80045508+0x1f8>
    1e58:	24020003 	li	v0,3
    1e5c:	8e2c0018 	lw	t4,24(s1)
    1e60:	8e0d0018 	lw	t5,24(s0)
    1e64:	558d0004 	bnel	t4,t5,1e78 <func_80045508+0x160>
    1e68:	2630000c 	addiu	s0,s1,12
    1e6c:	10000028 	b	1f10 <func_80045508+0x1f8>
    1e70:	24020003 	li	v0,3
    1e74:	2630000c 	addiu	s0,s1,12
    1e78:	02002825 	move	a1,s0
    1e7c:	0c000000 	jal	0 <func_800437F0>
    1e80:	2624001c 	addiu	a0,s1,28
    1e84:	862e0020 	lh	t6,32(s1)
    1e88:	8faf005c 	lw	t7,92(sp)
    1e8c:	02002825 	move	a1,s0
    1e90:	29c12ee1 	slti	at,t6,12001
    1e94:	54200005 	bnezl	at,1eac <func_80045508+0x194>
    1e98:	8fa8003c 	lw	t0,60(sp)
    1e9c:	85f80006 	lh	t8,6(t7)
    1ea0:	27198001 	addiu	t9,t8,-32767
    1ea4:	a6390022 	sh	t9,34(s1)
    1ea8:	8fa8003c 	lw	t0,60(sp)
    1eac:	8fa90038 	lw	t1,56(sp)
    1eb0:	11090003 	beq	t0,t1,1ec0 <func_80045508+0x1a8>
    1eb4:	00000000 	nop
    1eb8:	10000014 	b	1f0c <func_80045508+0x1f4>
    1ebc:	24030003 	li	v1,3
    1ec0:	0c000000 	jal	0 <func_800437F0>
    1ec4:	8fa40024 	lw	a0,36(sp)
    1ec8:	3c01bf00 	lui	at,0xbf00
    1ecc:	44812000 	mtc1	at,$f4
    1ed0:	3c013f00 	lui	at,0x3f00
    1ed4:	4604003c 	c.lt.s	$f0,$f4
    1ed8:	00000000 	nop
    1edc:	45020004 	bc1fl	1ef0 <func_80045508+0x1d8>
    1ee0:	44813000 	mtc1	at,$f6
    1ee4:	10000009 	b	1f0c <func_80045508+0x1f4>
    1ee8:	24030006 	li	v1,6
    1eec:	44813000 	mtc1	at,$f6
    1ef0:	24030002 	li	v1,2
    1ef4:	4600303c 	c.lt.s	$f6,$f0
    1ef8:	00000000 	nop
    1efc:	45000003 	bc1f	1f0c <func_80045508+0x1f4>
    1f00:	00000000 	nop
    1f04:	10000001 	b	1f0c <func_80045508+0x1f4>
    1f08:	24030003 	li	v1,3
    1f0c:	00601025 	move	v0,v1
    1f10:	8fbf001c 	lw	ra,28(sp)
    1f14:	8fb00014 	lw	s0,20(sp)
    1f18:	8fb10018 	lw	s1,24(sp)
    1f1c:	03e00008 	jr	ra
    1f20:	27bd0058 	addiu	sp,sp,88

00001f24 <func_80045714>:
    1f24:	27bdffd8 	addiu	sp,sp,-40
    1f28:	afa5002c 	sw	a1,44(sp)
    1f2c:	00802825 	move	a1,a0
    1f30:	afbf0014 	sw	ra,20(sp)
    1f34:	afa40028 	sw	a0,40(sp)
    1f38:	afa60030 	sw	a2,48(sp)
    1f3c:	afa70034 	sw	a3,52(sp)
    1f40:	0c000000 	jal	0 <func_800437F0>
    1f44:	27a4001c 	addiu	a0,sp,28
    1f48:	0c000000 	jal	0 <func_800437F0>
    1f4c:	87a40020 	lh	a0,32(sp)
    1f50:	87ae002e 	lh	t6,46(sp)
    1f54:	87af0022 	lh	t7,34(sp)
    1f58:	e7a00018 	swc1	$f0,24(sp)
    1f5c:	01cf2023 	subu	a0,t6,t7
    1f60:	00042400 	sll	a0,a0,0x10
    1f64:	0c000000 	jal	0 <func_800437F0>
    1f68:	00042403 	sra	a0,a0,0x10
    1f6c:	c7a40018 	lwc1	$f4,24(sp)
    1f70:	87b8002e 	lh	t8,46(sp)
    1f74:	87b90032 	lh	t9,50(sp)
    1f78:	46040002 	mul.s	$f0,$f0,$f4
    1f7c:	03192023 	subu	a0,t8,t9
    1f80:	00042400 	sll	a0,a0,0x10
    1f84:	00042403 	sra	a0,a0,0x10
    1f88:	46000005 	abs.s	$f0,$f0
    1f8c:	0c000000 	jal	0 <func_800437F0>
    1f90:	e7a00018 	swc1	$f0,24(sp)
    1f94:	c7a60018 	lwc1	$f6,24(sp)
    1f98:	c7a80034 	lwc1	$f8,52(sp)
    1f9c:	8fbf0014 	lw	ra,20(sp)
    1fa0:	27bd0028 	addiu	sp,sp,40
    1fa4:	46083282 	mul.s	$f10,$f6,$f8
    1fa8:	00000000 	nop
    1fac:	460a0002 	mul.s	$f0,$f0,$f10
    1fb0:	03e00008 	jr	ra
    1fb4:	00000000 	nop

00001fb8 <func_800457A8>:
    1fb8:	27bdffa0 	addiu	sp,sp,-96
    1fbc:	afb00020 	sw	s0,32(sp)
    1fc0:	00808025 	move	s0,a0
    1fc4:	afbf0024 	sw	ra,36(sp)
    1fc8:	afa50064 	sw	a1,100(sp)
    1fcc:	afa60068 	sw	a2,104(sp)
    1fd0:	afa7006c 	sw	a3,108(sp)
    1fd4:	0c000000 	jal	0 <func_800437F0>
    1fd8:	8c840090 	lw	a0,144(a0)
    1fdc:	c7a40068 	lwc1	$f4,104(sp)
    1fe0:	44801000 	mtc1	zero,$f2
    1fe4:	87ae006e 	lh	t6,110(sp)
    1fe8:	46040180 	add.s	$f6,$f0,$f4
    1fec:	46000386 	mov.s	$f14,$f0
    1ff0:	e7a20050 	swc1	$f2,80(sp)
    1ff4:	e7a20058 	swc1	$f2,88(sp)
    1ff8:	11c00014 	beqz	t6,204c <func_800457A8+0x94>
    1ffc:	e7a60054 	swc1	$f6,84(sp)
    2000:	3c180000 	lui	t8,0x0
    2004:	8f180000 	lw	t8,0(t8)
    2008:	8faf0064 	lw	t7,100(sp)
    200c:	860500a2 	lh	a1,162(s0)
    2010:	871901a6 	lh	t9,422(t8)
    2014:	85e60006 	lh	a2,6(t7)
    2018:	e7ae0038 	swc1	$f14,56(sp)
    201c:	44994000 	mtc1	t9,$f8
    2020:	26040108 	addiu	a0,s0,264
    2024:	46804220 	cvt.s.w	$f8,$f8
    2028:	44074000 	mfc1	a3,$f8
    202c:	0c000000 	jal	0 <func_800437F0>
    2030:	00000000 	nop
    2034:	c7ae0038 	lwc1	$f14,56(sp)
    2038:	0c000000 	jal	0 <func_800437F0>
    203c:	46000306 	mov.s	$f12,$f0
    2040:	c7aa0054 	lwc1	$f10,84(sp)
    2044:	46005401 	sub.s	$f16,$f10,$f0
    2048:	e7b00054 	swc1	$f16,84(sp)
    204c:	3c010000 	lui	at,0x0
    2050:	c4320d7c 	lwc1	$f18,3452(at)
    2054:	8e0600d0 	lw	a2,208(s0)
    2058:	8e0700cc 	lw	a3,204(s0)
    205c:	26020094 	addiu	v0,s0,148
    2060:	afa2002c 	sw	v0,44(sp)
    2064:	27a40050 	addiu	a0,sp,80
    2068:	260500e4 	addiu	a1,s0,228
    206c:	0c000000 	jal	0 <func_800437F0>
    2070:	e7b20010 	swc1	$f18,16(sp)
    2074:	8fa2002c 	lw	v0,44(sp)
    2078:	c60600e4 	lwc1	$f6,228(s0)
    207c:	3c010000 	lui	at,0x0
    2080:	c4440000 	lwc1	$f4,0(v0)
    2084:	27a40044 	addiu	a0,sp,68
    2088:	26050050 	addiu	a1,s0,80
    208c:	46062200 	add.s	$f8,$f4,$f6
    2090:	e7a80044 	swc1	$f8,68(sp)
    2094:	c61000e8 	lwc1	$f16,232(s0)
    2098:	c44a0004 	lwc1	$f10,4(v0)
    209c:	46105480 	add.s	$f18,$f10,$f16
    20a0:	c42a0d80 	lwc1	$f10,3456(at)
    20a4:	e7b20048 	swc1	$f18,72(sp)
    20a8:	c60600ec 	lwc1	$f6,236(s0)
    20ac:	c4440008 	lwc1	$f4,8(v0)
    20b0:	46062200 	add.s	$f8,$f4,$f6
    20b4:	e7a8004c 	swc1	$f8,76(sp)
    20b8:	c6000100 	lwc1	$f0,256(s0)
    20bc:	e7aa0010 	swc1	$f10,16(sp)
    20c0:	44060000 	mfc1	a2,$f0
    20c4:	44070000 	mfc1	a3,$f0
    20c8:	0c000000 	jal	0 <func_800437F0>
    20cc:	00000000 	nop
    20d0:	8fbf0024 	lw	ra,36(sp)
    20d4:	8fb00020 	lw	s0,32(sp)
    20d8:	27bd0060 	addiu	sp,sp,96
    20dc:	03e00008 	jr	ra
    20e0:	24020001 	li	v0,1

000020e4 <func_800458D4>:
    20e4:	27bdff90 	addiu	sp,sp,-112
    20e8:	afb0001c 	sw	s0,28(sp)
    20ec:	00808025 	move	s0,a0
    20f0:	afbf0024 	sw	ra,36(sp)
    20f4:	afb10020 	sw	s1,32(sp)
    20f8:	afa60078 	sw	a2,120(sp)
    20fc:	afa7007c 	sw	a3,124(sp)
    2100:	00a08825 	move	s1,a1
    2104:	0c000000 	jal	0 <func_800437F0>
    2108:	8c840090 	lw	a0,144(a0)
    210c:	c7a40078 	lwc1	$f4,120(sp)
    2110:	44801000 	mtc1	zero,$f2
    2114:	87ae0082 	lh	t6,130(sp)
    2118:	46040180 	add.s	$f6,$f0,$f4
    211c:	e7a20060 	swc1	$f2,96(sp)
    2120:	e7a20068 	swc1	$f2,104(sp)
    2124:	11c00010 	beqz	t6,2168 <func_800458D4+0x84>
    2128:	e7a60064 	swc1	$f6,100(sp)
    212c:	3c0f0000 	lui	t7,0x0
    2130:	8def0000 	lw	t7,0(t7)
    2134:	26040108 	addiu	a0,s0,264
    2138:	860500a2 	lh	a1,162(s0)
    213c:	85f801a6 	lh	t8,422(t7)
    2140:	86260006 	lh	a2,6(s1)
    2144:	44984000 	mtc1	t8,$f8
    2148:	00000000 	nop
    214c:	46804220 	cvt.s.w	$f8,$f8
    2150:	44074000 	mfc1	a3,$f8
    2154:	0c000000 	jal	0 <func_800437F0>
    2158:	00000000 	nop
    215c:	c7aa0064 	lwc1	$f10,100(sp)
    2160:	46005401 	sub.s	$f16,$f10,$f0
    2164:	e7b00064 	swc1	$f16,100(sp)
    2168:	8fb9007c 	lw	t9,124(sp)
    216c:	26110094 	addiu	s1,s0,148
    2170:	c6320004 	lwc1	$f18,4(s1)
    2174:	c7240000 	lwc1	$f4,0(t9)
    2178:	26040050 	addiu	a0,s0,80
    217c:	afa40030 	sw	a0,48(sp)
    2180:	46049181 	sub.s	$f6,$f18,$f4
    2184:	2605005c 	addiu	a1,s0,92
    2188:	0c000000 	jal	0 <func_800437F0>
    218c:	e7a60048 	swc1	$f6,72(sp)
    2190:	c7ac0048 	lwc1	$f12,72(sp)
    2194:	0c000000 	jal	0 <func_800437F0>
    2198:	46000386 	mov.s	$f14,$f0
    219c:	3c020000 	lui	v0,0x0
    21a0:	8c420000 	lw	v0,0(v0)
    21a4:	3c010000 	lui	at,0x0
    21a8:	c42c0000 	lwc1	$f12,0(at)
    21ac:	844801d4 	lh	t0,468(v0)
    21b0:	46000386 	mov.s	$f14,$f0
    21b4:	44884000 	mtc1	t0,$f8
    21b8:	00000000 	nop
    21bc:	468042a0 	cvt.s.w	$f10,$f8
    21c0:	460c5082 	mul.s	$f2,$f10,$f12
    21c4:	4600103c 	c.lt.s	$f2,$f0
    21c8:	00000000 	nop
    21cc:	4502000a 	bc1fl	21f8 <func_800458D4+0x114>
    21d0:	844901d6 	lh	t1,470(v0)
    21d4:	0c000000 	jal	0 <func_800437F0>
    21d8:	46027301 	sub.s	$f12,$f14,$f2
    21dc:	3c013f80 	lui	at,0x3f80
    21e0:	44818000 	mtc1	at,$f16
    21e4:	3c020000 	lui	v0,0x0
    21e8:	8c420000 	lw	v0,0(v0)
    21ec:	10000015 	b	2244 <func_800458D4+0x160>
    21f0:	46008081 	sub.s	$f2,$f16,$f0
    21f4:	844901d6 	lh	t1,470(v0)
    21f8:	3c013f80 	lui	at,0x3f80
    21fc:	44899000 	mtc1	t1,$f18
    2200:	00000000 	nop
    2204:	46809120 	cvt.s.w	$f4,$f18
    2208:	460c2082 	mul.s	$f2,$f4,$f12
    220c:	4602003c 	c.lt.s	$f0,$f2
    2210:	00000000 	nop
    2214:	4502000a 	bc1fl	2240 <func_800458D4+0x15c>
    2218:	44811000 	mtc1	at,$f2
    221c:	0c000000 	jal	0 <func_800437F0>
    2220:	460e1301 	sub.s	$f12,$f2,$f14
    2224:	3c013f80 	lui	at,0x3f80
    2228:	44813000 	mtc1	at,$f6
    222c:	3c020000 	lui	v0,0x0
    2230:	8c420000 	lw	v0,0(v0)
    2234:	10000003 	b	2244 <func_800458D4+0x160>
    2238:	46003081 	sub.s	$f2,$f6,$f0
    223c:	44811000 	mtc1	at,$f2
    2240:	00000000 	nop
    2244:	c7aa0048 	lwc1	$f10,72(sp)
    2248:	c7a80064 	lwc1	$f8,100(sp)
    224c:	3c010000 	lui	at,0x0
    2250:	46025402 	mul.s	$f16,$f10,$f2
    2254:	c4200000 	lwc1	$f0,0(at)
    2258:	3c010000 	lui	at,0x0
    225c:	27a40060 	addiu	a0,sp,96
    2260:	260500e4 	addiu	a1,s0,228
    2264:	46104481 	sub.s	$f18,$f8,$f16
    2268:	e7b20064 	swc1	$f18,100(sp)
    226c:	844a01ce 	lh	t2,462(v0)
    2270:	844b01d0 	lh	t3,464(v0)
    2274:	448a2000 	mtc1	t2,$f4
    2278:	448b4000 	mtc1	t3,$f8
    227c:	468021a0 	cvt.s.w	$f6,$f4
    2280:	c4240000 	lwc1	$f4,0(at)
    2284:	e7a40010 	swc1	$f4,16(sp)
    2288:	46804420 	cvt.s.w	$f16,$f8
    228c:	46003282 	mul.s	$f10,$f6,$f0
    2290:	00000000 	nop
    2294:	46008482 	mul.s	$f18,$f16,$f0
    2298:	44065000 	mfc1	a2,$f10
    229c:	44079000 	mfc1	a3,$f18
    22a0:	0c000000 	jal	0 <func_800437F0>
    22a4:	00000000 	nop
    22a8:	c6260000 	lwc1	$f6,0(s1)
    22ac:	c60a00e4 	lwc1	$f10,228(s0)
    22b0:	3c010000 	lui	at,0x0
    22b4:	27a40054 	addiu	a0,sp,84
    22b8:	460a3200 	add.s	$f8,$f6,$f10
    22bc:	8fa50030 	lw	a1,48(sp)
    22c0:	e7a80054 	swc1	$f8,84(sp)
    22c4:	c61200e8 	lwc1	$f18,232(s0)
    22c8:	c6300004 	lwc1	$f16,4(s1)
    22cc:	46128100 	add.s	$f4,$f16,$f18
    22d0:	c4300000 	lwc1	$f16,0(at)
    22d4:	e7a40058 	swc1	$f4,88(sp)
    22d8:	c60a00ec 	lwc1	$f10,236(s0)
    22dc:	c6260008 	lwc1	$f6,8(s1)
    22e0:	460a3200 	add.s	$f8,$f6,$f10
    22e4:	e7a8005c 	swc1	$f8,92(sp)
    22e8:	c6000100 	lwc1	$f0,256(s0)
    22ec:	e7b00010 	swc1	$f16,16(sp)
    22f0:	44060000 	mfc1	a2,$f0
    22f4:	44070000 	mfc1	a3,$f0
    22f8:	0c000000 	jal	0 <func_800437F0>
    22fc:	00000000 	nop
    2300:	8fbf0024 	lw	ra,36(sp)
    2304:	8fb0001c 	lw	s0,28(sp)
    2308:	8fb10020 	lw	s1,32(sp)
    230c:	27bd0070 	addiu	sp,sp,112
    2310:	03e00008 	jr	ra
    2314:	24020001 	li	v0,1

00002318 <func_80045B08>:
    2318:	27bdffa8 	addiu	sp,sp,-88
    231c:	afb10020 	sw	s1,32(sp)
    2320:	afb0001c 	sw	s0,28(sp)
    2324:	00808025 	move	s0,a0
    2328:	00078c00 	sll	s1,a3,0x10
    232c:	afbf0024 	sw	ra,36(sp)
    2330:	afa5005c 	sw	a1,92(sp)
    2334:	afa60060 	sw	a2,96(sp)
    2338:	afa70064 	sw	a3,100(sp)
    233c:	00118c03 	sra	s1,s1,0x10
    2340:	0c000000 	jal	0 <func_800437F0>
    2344:	8c840090 	lw	a0,144(a0)
    2348:	c7a40060 	lwc1	$f4,96(sp)
    234c:	44801000 	mtc1	zero,$f2
    2350:	00112400 	sll	a0,s1,0x10
    2354:	46040180 	add.s	$f6,$f0,$f4
    2358:	00042403 	sra	a0,a0,0x10
    235c:	e7a20048 	swc1	$f2,72(sp)
    2360:	e7a20050 	swc1	$f2,80(sp)
    2364:	0c000000 	jal	0 <func_800437F0>
    2368:	e7a6004c 	swc1	$f6,76(sp)
    236c:	44804000 	mtc1	zero,$f8
    2370:	e7a00034 	swc1	$f0,52(sp)
    2374:	8faf005c 	lw	t7,92(sp)
    2378:	4608003c 	c.lt.s	$f0,$f8
    237c:	8fa8005c 	lw	t0,92(sp)
    2380:	45000009 	bc1f	23a8 <func_80045B08+0x90>
    2384:	26110094 	addiu	s1,s0,148
    2388:	862e000e 	lh	t6,14(s1)
    238c:	85f80006 	lh	t8,6(t7)
    2390:	01d82023 	subu	a0,t6,t8
    2394:	00042400 	sll	a0,a0,0x10
    2398:	0c000000 	jal	0 <func_800437F0>
    239c:	00042403 	sra	a0,a0,0x10
    23a0:	10000009 	b	23c8 <func_80045B08+0xb0>
    23a4:	46000086 	mov.s	$f2,$f0
    23a8:	26110094 	addiu	s1,s0,148
    23ac:	8639000e 	lh	t9,14(s1)
    23b0:	85090006 	lh	t1,6(t0)
    23b4:	03292023 	subu	a0,t9,t1
    23b8:	00042400 	sll	a0,a0,0x10
    23bc:	0c000000 	jal	0 <func_800437F0>
    23c0:	00042403 	sra	a0,a0,0x10
    23c4:	46000087 	neg.s	$f2,$f0
    23c8:	3c0a0000 	lui	t2,0x0
    23cc:	8d4a0000 	lw	t2,0(t2)
    23d0:	c7aa0034 	lwc1	$f10,52(sp)
    23d4:	c7a8004c 	lwc1	$f8,76(sp)
    23d8:	854b01a6 	lh	t3,422(t2)
    23dc:	46025402 	mul.s	$f16,$f10,$f2
    23e0:	3c010000 	lui	at,0x0
    23e4:	448b9000 	mtc1	t3,$f18
    23e8:	27a40048 	addiu	a0,sp,72
    23ec:	260500e4 	addiu	a1,s0,228
    23f0:	46809120 	cvt.s.w	$f4,$f18
    23f4:	c4320d94 	lwc1	$f18,3476(at)
    23f8:	46048182 	mul.s	$f6,$f16,$f4
    23fc:	46064281 	sub.s	$f10,$f8,$f6
    2400:	e7aa004c 	swc1	$f10,76(sp)
    2404:	8e0700cc 	lw	a3,204(s0)
    2408:	8e0600d0 	lw	a2,208(s0)
    240c:	0c000000 	jal	0 <func_800437F0>
    2410:	e7b20010 	swc1	$f18,16(sp)
    2414:	c6300000 	lwc1	$f16,0(s1)
    2418:	c60400e4 	lwc1	$f4,228(s0)
    241c:	3c010000 	lui	at,0x0
    2420:	27a4003c 	addiu	a0,sp,60
    2424:	46048200 	add.s	$f8,$f16,$f4
    2428:	26050050 	addiu	a1,s0,80
    242c:	e7a8003c 	swc1	$f8,60(sp)
    2430:	c60a00e8 	lwc1	$f10,232(s0)
    2434:	c6260004 	lwc1	$f6,4(s1)
    2438:	460a3480 	add.s	$f18,$f6,$f10
    243c:	c4260d98 	lwc1	$f6,3480(at)
    2440:	e7b20040 	swc1	$f18,64(sp)
    2444:	c60400ec 	lwc1	$f4,236(s0)
    2448:	c6300008 	lwc1	$f16,8(s1)
    244c:	46048200 	add.s	$f8,$f16,$f4
    2450:	e7a80044 	swc1	$f8,68(sp)
    2454:	c6000100 	lwc1	$f0,256(s0)
    2458:	e7a60010 	swc1	$f6,16(sp)
    245c:	44060000 	mfc1	a2,$f0
    2460:	44070000 	mfc1	a3,$f0
    2464:	0c000000 	jal	0 <func_800437F0>
    2468:	00000000 	nop
    246c:	8fbf0024 	lw	ra,36(sp)
    2470:	8fb0001c 	lw	s0,28(sp)
    2474:	8fb10020 	lw	s1,32(sp)
    2478:	27bd0058 	addiu	sp,sp,88
    247c:	03e00008 	jr	ra
    2480:	24020001 	li	v0,1

00002484 <func_80045C74>:
    2484:	27bdff80 	addiu	sp,sp,-128
    2488:	afb00028 	sw	s0,40(sp)
    248c:	f7b40020 	sdc1	$f20,32(sp)
    2490:	4486a000 	mtc1	a2,$f20
    2494:	00808025 	move	s0,a0
    2498:	afbf002c 	sw	ra,44(sp)
    249c:	afa50084 	sw	a1,132(sp)
    24a0:	afa7008c 	sw	a3,140(sp)
    24a4:	0c000000 	jal	0 <func_800437F0>
    24a8:	8c840090 	lw	a0,144(a0)
    24ac:	46140100 	add.s	$f4,$f0,$f20
    24b0:	44801000 	mtc1	zero,$f2
    24b4:	3c020000 	lui	v0,0x0
    24b8:	8c420000 	lw	v0,0(v0)
    24bc:	e7a40074 	swc1	$f4,116(sp)
    24c0:	e7a20070 	swc1	$f2,112(sp)
    24c4:	e7a20078 	swc1	$f2,120(sp)
    24c8:	844e02ec 	lh	t6,748(v0)
    24cc:	87af0092 	lh	t7,146(sp)
    24d0:	51c00013 	beqzl	t6,2520 <func_80045C74+0x9c>
    24d4:	c6040098 	lwc1	$f4,152(s0)
    24d8:	51e00011 	beqzl	t7,2520 <func_80045C74+0x9c>
    24dc:	c6040098 	lwc1	$f4,152(s0)
    24e0:	845901a6 	lh	t9,422(v0)
    24e4:	8fb80084 	lw	t8,132(sp)
    24e8:	26040108 	addiu	a0,s0,264
    24ec:	44993000 	mtc1	t9,$f6
    24f0:	860500a2 	lh	a1,162(s0)
    24f4:	87060006 	lh	a2,6(t8)
    24f8:	468031a0 	cvt.s.w	$f6,$f6
    24fc:	44073000 	mfc1	a3,$f6
    2500:	0c000000 	jal	0 <func_800437F0>
    2504:	00000000 	nop
    2508:	c7a80074 	lwc1	$f8,116(sp)
    250c:	3c020000 	lui	v0,0x0
    2510:	8c420000 	lw	v0,0(v0)
    2514:	46004281 	sub.s	$f10,$f8,$f0
    2518:	e7aa0074 	swc1	$f10,116(sp)
    251c:	c6040098 	lwc1	$f4,152(s0)
    2520:	c6060104 	lwc1	$f6,260(s0)
    2524:	26080094 	addiu	t0,s0,148
    2528:	46062032 	c.eq.s	$f4,$f6
    252c:	00000000 	nop
    2530:	4503000e 	bc1tl	256c <func_80045C74+0xe8>
    2534:	844c01ea 	lh	t4,490(v0)
    2538:	8e030090 	lw	v1,144(s0)
    253c:	3c010000 	lui	at,0x0
    2540:	c4280000 	lwc1	$f8,0(at)
    2544:	c46a006c 	lwc1	$f10,108(v1)
    2548:	460a403c 	c.lt.s	$f8,$f10
    254c:	00000000 	nop
    2550:	45030006 	bc1tl	256c <func_80045C74+0xe8>
    2554:	844c01ea 	lh	t4,490(v0)
    2558:	8c69067c 	lw	t1,1660(v1)
    255c:	00095280 	sll	t2,t1,0xa
    2560:	05430024 	bgezl	t2,25f4 <func_80045C74+0x170>
    2564:	845802ea 	lh	t8,746(v0)
    2568:	844c01ea 	lh	t4,490(v0)
    256c:	3c010000 	lui	at,0x0
    2570:	c4340000 	lwc1	$f20,0(at)
    2574:	448c2000 	mtc1	t4,$f4
    2578:	8fab008c 	lw	t3,140(sp)
    257c:	c50c0004 	lwc1	$f12,4(t0)
    2580:	468021a0 	cvt.s.w	$f6,$f4
    2584:	3c073dcc 	lui	a3,0x3dcc
    2588:	c56e0000 	lwc1	$f14,0(t3)
    258c:	afa8003c 	sw	t0,60(sp)
    2590:	34e7cccd 	ori	a3,a3,0xcccd
    2594:	46143202 	mul.s	$f8,$f6,$f20
    2598:	44064000 	mfc1	a2,$f8
    259c:	0c000000 	jal	0 <func_800437F0>
    25a0:	00000000 	nop
    25a4:	8fad008c 	lw	t5,140(sp)
    25a8:	3c010000 	lui	at,0x0
    25ac:	27a40070 	addiu	a0,sp,112
    25b0:	e5a00000 	swc1	$f0,0(t5)
    25b4:	8fae003c 	lw	t6,60(sp)
    25b8:	c7a40074 	lwc1	$f4,116(sp)
    25bc:	c4280000 	lwc1	$f8,0(at)
    25c0:	c5ca0004 	lwc1	$f10,4(t6)
    25c4:	260500e4 	addiu	a1,s0,228
    25c8:	46005501 	sub.s	$f20,$f10,$f0
    25cc:	46142181 	sub.s	$f6,$f4,$f20
    25d0:	e7a60074 	swc1	$f6,116(sp)
    25d4:	8e0700cc 	lw	a3,204(s0)
    25d8:	8e0600d0 	lw	a2,208(s0)
    25dc:	0c000000 	jal	0 <func_800437F0>
    25e0:	e7a80010 	swc1	$f8,16(sp)
    25e4:	260f0050 	addiu	t7,s0,80
    25e8:	10000096 	b	2844 <func_80045C74+0x3c0>
    25ec:	afaf0040 	sw	t7,64(sp)
    25f0:	845802ea 	lh	t8,746(v0)
    25f4:	8fa9008c 	lw	t1,140(sp)
    25f8:	26040050 	addiu	a0,s0,80
    25fc:	17000036 	bnez	t8,26d8 <func_80045C74+0x254>
    2600:	2605005c 	addiu	a1,s0,92
    2604:	8fb9008c 	lw	t9,140(sp)
    2608:	c50a0004 	lwc1	$f10,4(t0)
    260c:	26040050 	addiu	a0,s0,80
    2610:	c7240000 	lwc1	$f4,0(t9)
    2614:	afa8003c 	sw	t0,60(sp)
    2618:	afa40040 	sw	a0,64(sp)
    261c:	2605005c 	addiu	a1,s0,92
    2620:	0c000000 	jal	0 <func_800437F0>
    2624:	46045501 	sub.s	$f20,$f10,$f4
    2628:	4600a306 	mov.s	$f12,$f20
    262c:	46000386 	mov.s	$f14,$f0
    2630:	0c000000 	jal	0 <func_800437F0>
    2634:	e7a00054 	swc1	$f0,84(sp)
    2638:	3c010000 	lui	at,0x0
    263c:	c4320000 	lwc1	$f18,0(at)
    2640:	3c010000 	lui	at,0x0
    2644:	c4280000 	lwc1	$f8,0(at)
    2648:	c60600fc 	lwc1	$f6,252(s0)
    264c:	46083282 	mul.s	$f10,$f6,$f8
    2650:	00000000 	nop
    2654:	46125302 	mul.s	$f12,$f10,$f18
    2658:	0c000000 	jal	0 <func_800437F0>
    265c:	00000000 	nop
    2660:	c7b00054 	lwc1	$f16,84(sp)
    2664:	8fa2008c 	lw	v0,140(sp)
    2668:	46100082 	mul.s	$f2,$f0,$f16
    266c:	4614103c 	c.lt.s	$f2,$f20
    2670:	00000000 	nop
    2674:	45020008 	bc1fl	2698 <func_80045C74+0x214>
    2678:	46001007 	neg.s	$f0,$f2
    267c:	4602a181 	sub.s	$f6,$f20,$f2
    2680:	c4440000 	lwc1	$f4,0(v0)
    2684:	46001506 	mov.s	$f20,$f2
    2688:	46062200 	add.s	$f8,$f4,$f6
    268c:	1000000c 	b	26c0 <func_80045C74+0x23c>
    2690:	e4480000 	swc1	$f8,0(v0)
    2694:	46001007 	neg.s	$f0,$f2
    2698:	8fa2008c 	lw	v0,140(sp)
    269c:	4600a03c 	c.lt.s	$f20,$f0
    26a0:	00000000 	nop
    26a4:	45020007 	bc1fl	26c4 <func_80045C74+0x240>
    26a8:	c7a80074 	lwc1	$f8,116(sp)
    26ac:	4602a100 	add.s	$f4,$f20,$f2
    26b0:	c44a0000 	lwc1	$f10,0(v0)
    26b4:	46000506 	mov.s	$f20,$f0
    26b8:	46045180 	add.s	$f6,$f10,$f4
    26bc:	e4460000 	swc1	$f6,0(v0)
    26c0:	c7a80074 	lwc1	$f8,116(sp)
    26c4:	3c020000 	lui	v0,0x0
    26c8:	8c420000 	lw	v0,0(v0)
    26cc:	46144281 	sub.s	$f10,$f8,$f20
    26d0:	10000038 	b	27b4 <func_80045C74+0x330>
    26d4:	e7aa0074 	swc1	$f10,116(sp)
    26d8:	c5040004 	lwc1	$f4,4(t0)
    26dc:	c5260000 	lwc1	$f6,0(t1)
    26e0:	afa8003c 	sw	t0,60(sp)
    26e4:	afa40040 	sw	a0,64(sp)
    26e8:	0c000000 	jal	0 <func_800437F0>
    26ec:	46062501 	sub.s	$f20,$f4,$f6
    26f0:	4600a306 	mov.s	$f12,$f20
    26f4:	0c000000 	jal	0 <func_800437F0>
    26f8:	46000386 	mov.s	$f14,$f0
    26fc:	3c020000 	lui	v0,0x0
    2700:	8c420000 	lw	v0,0(v0)
    2704:	3c010000 	lui	at,0x0
    2708:	c4320000 	lwc1	$f18,0(at)
    270c:	844b01d4 	lh	t3,468(v0)
    2710:	46000086 	mov.s	$f2,$f0
    2714:	448b4000 	mtc1	t3,$f8
    2718:	00000000 	nop
    271c:	468042a0 	cvt.s.w	$f10,$f8
    2720:	46125382 	mul.s	$f14,$f10,$f18
    2724:	4600703c 	c.lt.s	$f14,$f0
    2728:	00000000 	nop
    272c:	4502000a 	bc1fl	2758 <func_80045C74+0x2d4>
    2730:	844c01d6 	lh	t4,470(v0)
    2734:	0c000000 	jal	0 <func_800437F0>
    2738:	460e1301 	sub.s	$f12,$f2,$f14
    273c:	3c013f80 	lui	at,0x3f80
    2740:	44812000 	mtc1	at,$f4
    2744:	3c020000 	lui	v0,0x0
    2748:	8c420000 	lw	v0,0(v0)
    274c:	10000015 	b	27a4 <func_80045C74+0x320>
    2750:	46002401 	sub.s	$f16,$f4,$f0
    2754:	844c01d6 	lh	t4,470(v0)
    2758:	3c013f80 	lui	at,0x3f80
    275c:	448c3000 	mtc1	t4,$f6
    2760:	00000000 	nop
    2764:	46803220 	cvt.s.w	$f8,$f6
    2768:	46124382 	mul.s	$f14,$f8,$f18
    276c:	460e003c 	c.lt.s	$f0,$f14
    2770:	00000000 	nop
    2774:	4502000a 	bc1fl	27a0 <func_80045C74+0x31c>
    2778:	44818000 	mtc1	at,$f16
    277c:	0c000000 	jal	0 <func_800437F0>
    2780:	46027301 	sub.s	$f12,$f14,$f2
    2784:	3c013f80 	lui	at,0x3f80
    2788:	44815000 	mtc1	at,$f10
    278c:	3c020000 	lui	v0,0x0
    2790:	8c420000 	lw	v0,0(v0)
    2794:	10000003 	b	27a4 <func_80045C74+0x320>
    2798:	46005401 	sub.s	$f16,$f10,$f0
    279c:	44818000 	mtc1	at,$f16
    27a0:	00000000 	nop
    27a4:	4610a182 	mul.s	$f6,$f20,$f16
    27a8:	c7a40074 	lwc1	$f4,116(sp)
    27ac:	46062201 	sub.s	$f8,$f4,$f6
    27b0:	e7a80074 	swc1	$f8,116(sp)
    27b4:	844d01ce 	lh	t5,462(v0)
    27b8:	844e01d0 	lh	t6,464(v0)
    27bc:	3c010000 	lui	at,0x0
    27c0:	448d5000 	mtc1	t5,$f10
    27c4:	448e4000 	mtc1	t6,$f8
    27c8:	c4340000 	lwc1	$f20,0(at)
    27cc:	46805120 	cvt.s.w	$f4,$f10
    27d0:	3c010000 	lui	at,0x0
    27d4:	27a40070 	addiu	a0,sp,112
    27d8:	260500e4 	addiu	a1,s0,228
    27dc:	468042a0 	cvt.s.w	$f10,$f8
    27e0:	46142182 	mul.s	$f6,$f4,$f20
    27e4:	00000000 	nop
    27e8:	46145102 	mul.s	$f4,$f10,$f20
    27ec:	44063000 	mfc1	a2,$f6
    27f0:	c4260000 	lwc1	$f6,0(at)
    27f4:	e7a60010 	swc1	$f6,16(sp)
    27f8:	44072000 	mfc1	a3,$f4
    27fc:	0c000000 	jal	0 <func_800437F0>
    2800:	00000000 	nop
    2804:	3c0f0000 	lui	t7,0x0
    2808:	8def0000 	lw	t7,0(t7)
    280c:	3c190000 	lui	t9,0x0
    2810:	85f801ce 	lh	t8,462(t7)
    2814:	44984000 	mtc1	t8,$f8
    2818:	00000000 	nop
    281c:	468042a0 	cvt.s.w	$f10,$f8
    2820:	46145102 	mul.s	$f4,$f10,$f20
    2824:	e60400d0 	swc1	$f4,208(s0)
    2828:	8f390000 	lw	t9,0(t9)
    282c:	872901d0 	lh	t1,464(t9)
    2830:	44893000 	mtc1	t1,$f6
    2834:	00000000 	nop
    2838:	46803220 	cvt.s.w	$f8,$f6
    283c:	46144282 	mul.s	$f10,$f8,$f20
    2840:	e60a00cc 	swc1	$f10,204(s0)
    2844:	8faa003c 	lw	t2,60(sp)
    2848:	c60600e4 	lwc1	$f6,228(s0)
    284c:	3c010000 	lui	at,0x0
    2850:	c5440000 	lwc1	$f4,0(t2)
    2854:	27a40064 	addiu	a0,sp,100
    2858:	8fa50040 	lw	a1,64(sp)
    285c:	46062200 	add.s	$f8,$f4,$f6
    2860:	e7a80064 	swc1	$f8,100(sp)
    2864:	c60400e8 	lwc1	$f4,232(s0)
    2868:	c54a0004 	lwc1	$f10,4(t2)
    286c:	46045180 	add.s	$f6,$f10,$f4
    2870:	e7a60068 	swc1	$f6,104(sp)
    2874:	c60a00ec 	lwc1	$f10,236(s0)
    2878:	c5480008 	lwc1	$f8,8(t2)
    287c:	c4260000 	lwc1	$f6,0(at)
    2880:	460a4100 	add.s	$f4,$f8,$f10
    2884:	e7a4006c 	swc1	$f4,108(sp)
    2888:	c6000100 	lwc1	$f0,256(s0)
    288c:	e7a60010 	swc1	$f6,16(sp)
    2890:	44060000 	mfc1	a2,$f0
    2894:	44070000 	mfc1	a3,$f0
    2898:	0c000000 	jal	0 <func_800437F0>
    289c:	00000000 	nop
    28a0:	8fbf002c 	lw	ra,44(sp)
    28a4:	d7b40020 	ldc1	$f20,32(sp)
    28a8:	8fb00028 	lw	s0,40(sp)
    28ac:	27bd0080 	addiu	sp,sp,128
    28b0:	03e00008 	jr	ra
    28b4:	24020001 	li	v0,1

000028b8 <func_800460A8>:
    28b8:	27bdff58 	addiu	sp,sp,-168
    28bc:	afb00040 	sw	s0,64(sp)
    28c0:	00808025 	move	s0,a0
    28c4:	afbf0044 	sw	ra,68(sp)
    28c8:	f7b40038 	sdc1	$f20,56(sp)
    28cc:	afa500ac 	sw	a1,172(sp)
    28d0:	afa600b0 	sw	a2,176(sp)
    28d4:	afa700b4 	sw	a3,180(sp)
    28d8:	0c000000 	jal	0 <func_800437F0>
    28dc:	8c840090 	lw	a0,144(a0)
    28e0:	c7a400b4 	lwc1	$f4,180(sp)
    28e4:	44801000 	mtc1	zero,$f2
    28e8:	3c020000 	lui	v0,0x0
    28ec:	46040180 	add.s	$f6,$f0,$f4
    28f0:	8c420000 	lw	v0,0(v0)
    28f4:	e7a20098 	swc1	$f2,152(sp)
    28f8:	e7a200a0 	swc1	$f2,160(sp)
    28fc:	e7a6009c 	swc1	$f6,156(sp)
    2900:	844e02ec 	lh	t6,748(v0)
    2904:	87af00c6 	lh	t7,198(sp)
    2908:	46000506 	mov.s	$f20,$f0
    290c:	11c00010 	beqz	t6,2950 <func_800460A8+0x98>
    2910:	31f80001 	andi	t8,t7,0x1
    2914:	5300000f 	beqzl	t8,2954 <func_800460A8+0x9c>
    2918:	26020094 	addiu	v0,s0,148
    291c:	844801a6 	lh	t0,422(v0)
    2920:	8fb900ac 	lw	t9,172(sp)
    2924:	26040108 	addiu	a0,s0,264
    2928:	44884000 	mtc1	t0,$f8
    292c:	860500a2 	lh	a1,162(s0)
    2930:	87260006 	lh	a2,6(t9)
    2934:	46804220 	cvt.s.w	$f8,$f8
    2938:	44074000 	mfc1	a3,$f8
    293c:	0c000000 	jal	0 <func_800437F0>
    2940:	00000000 	nop
    2944:	c7aa009c 	lwc1	$f10,156(sp)
    2948:	46005101 	sub.s	$f4,$f10,$f0
    294c:	e7a4009c 	swc1	$f4,156(sp)
    2950:	26020094 	addiu	v0,s0,148
    2954:	8c4a0000 	lw	t2,0(v0)
    2958:	27a5008c 	addiu	a1,sp,140
    295c:	acaa0000 	sw	t2,0(a1)
    2960:	8c490004 	lw	t1,4(v0)
    2964:	aca90004 	sw	t1,4(a1)
    2968:	8c4a0008 	lw	t2,8(v0)
    296c:	acaa0008 	sw	t2,8(a1)
    2970:	c7a60090 	lwc1	$f6,144(sp)
    2974:	afa20050 	sw	v0,80(sp)
    2978:	8fa600b0 	lw	a2,176(sp)
    297c:	46143200 	add.s	$f8,$f6,$f20
    2980:	8fa400c0 	lw	a0,192(sp)
    2984:	0c000000 	jal	0 <func_800437F0>
    2988:	e7a80090 	swc1	$f8,144(sp)
    298c:	8fac00c0 	lw	t4,192(sp)
    2990:	27ab0074 	addiu	t3,sp,116
    2994:	3c0f0000 	lui	t7,0x0
    2998:	8d8e0000 	lw	t6,0(t4)
    299c:	ad6e0000 	sw	t6,0(t3)
    29a0:	8d8d0004 	lw	t5,4(t4)
    29a4:	ad6d0004 	sw	t5,4(t3)
    29a8:	c7a40074 	lwc1	$f4,116(sp)
    29ac:	c7aa00b8 	lwc1	$f10,184(sp)
    29b0:	8fb90050 	lw	t9,80(sp)
    29b4:	4604503c 	c.lt.s	$f10,$f4
    29b8:	00000000 	nop
    29bc:	4502000e 	bc1fl	29f8 <func_800460A8+0x140>
    29c0:	c72a0004 	lwc1	$f10,4(t9)
    29c4:	8def0000 	lw	t7,0(t7)
    29c8:	3c010000 	lui	at,0x0
    29cc:	c42a0000 	lwc1	$f10,0(at)
    29d0:	85f801e0 	lh	t8,480(t7)
    29d4:	44983000 	mtc1	t8,$f6
    29d8:	00000000 	nop
    29dc:	46803220 	cvt.s.w	$f8,$f6
    29e0:	460a4182 	mul.s	$f6,$f8,$f10
    29e4:	00000000 	nop
    29e8:	46043202 	mul.s	$f8,$f6,$f4
    29ec:	10000024 	b	2a80 <func_800460A8+0x1c8>
    29f0:	e7a80074 	swc1	$f8,116(sp)
    29f4:	c72a0004 	lwc1	$f10,4(t9)
    29f8:	c6060104 	lwc1	$f6,260(s0)
    29fc:	3c013f80 	lui	at,0x3f80
    2a00:	44817000 	mtc1	at,$f14
    2a04:	46065101 	sub.s	$f4,$f10,$f6
    2a08:	0c000000 	jal	0 <func_800437F0>
    2a0c:	46142303 	div.s	$f12,$f4,$f20
    2a10:	3c020000 	lui	v0,0x0
    2a14:	8c420000 	lw	v0,0(v0)
    2a18:	3c010000 	lui	at,0x0
    2a1c:	c4260000 	lwc1	$f6,0(at)
    2a20:	844801e2 	lh	t0,482(v0)
    2a24:	844901e0 	lh	t1,480(v0)
    2a28:	3c010000 	lui	at,0x0
    2a2c:	44884000 	mtc1	t0,$f8
    2a30:	44892000 	mtc1	t1,$f4
    2a34:	468042a0 	cvt.s.w	$f10,$f8
    2a38:	46802220 	cvt.s.w	$f8,$f4
    2a3c:	46065082 	mul.s	$f2,$f10,$f6
    2a40:	c42a0000 	lwc1	$f10,0(at)
    2a44:	460a4182 	mul.s	$f6,$f8,$f10
    2a48:	c7a80074 	lwc1	$f8,116(sp)
    2a4c:	46061101 	sub.s	$f4,$f2,$f6
    2a50:	c7a600b8 	lwc1	$f6,184(sp)
    2a54:	46082282 	mul.s	$f10,$f4,$f8
    2a58:	46064103 	div.s	$f4,$f8,$f6
    2a5c:	46045182 	mul.s	$f6,$f10,$f4
    2a60:	00000000 	nop
    2a64:	46024282 	mul.s	$f10,$f8,$f2
    2a68:	46065101 	sub.s	$f4,$f10,$f6
    2a6c:	46002202 	mul.s	$f8,$f4,$f0
    2a70:	e7a40074 	swc1	$f4,116(sp)
    2a74:	46004282 	mul.s	$f10,$f8,$f0
    2a78:	460a2181 	sub.s	$f6,$f4,$f10
    2a7c:	e7a60074 	swc1	$f6,116(sp)
    2a80:	87a300c6 	lh	v1,198(sp)
    2a84:	3c010000 	lui	at,0x0
    2a88:	27a40080 	addiu	a0,sp,128
    2a8c:	30630080 	andi	v1,v1,0x80
    2a90:	10600009 	beqz	v1,2ab8 <func_800460A8+0x200>
    2a94:	27a50074 	addiu	a1,sp,116
    2a98:	c4200000 	lwc1	$f0,0(at)
    2a9c:	3c010000 	lui	at,0x0
    2aa0:	c4240000 	lwc1	$f4,0(at)
    2aa4:	c7a80074 	lwc1	$f8,116(sp)
    2aa8:	46044282 	mul.s	$f10,$f8,$f4
    2aac:	e7aa0074 	swc1	$f10,116(sp)
    2ab0:	e60000cc 	swc1	$f0,204(s0)
    2ab4:	e60000d0 	swc1	$f0,208(s0)
    2ab8:	0c000000 	jal	0 <func_800437F0>
    2abc:	afa3004c 	sw	v1,76(sp)
    2ac0:	3c0a0000 	lui	t2,0x0
    2ac4:	8d4a0000 	lw	t2,0(t2)
    2ac8:	8fa3004c 	lw	v1,76(sp)
    2acc:	c7a60074 	lwc1	$f6,116(sp)
    2ad0:	854b0306 	lh	t3,774(t2)
    2ad4:	c7a800b8 	lwc1	$f8,184(sp)
    2ad8:	51600017 	beqzl	t3,2b38 <func_800460A8+0x280>
    2adc:	c7a60098 	lwc1	$f6,152(sp)
    2ae0:	46083103 	div.s	$f4,$f6,$f8
    2ae4:	c7a60080 	lwc1	$f6,128(sp)
    2ae8:	3c040000 	lui	a0,0x0
    2aec:	24840000 	addiu	a0,a0,0
    2af0:	46003221 	cvt.d.s	$f8,$f6
    2af4:	c7a60088 	lwc1	$f6,136(sp)
    2af8:	f7a80010 	sdc1	$f8,16(sp)
    2afc:	46003221 	cvt.d.s	$f8,$f6
    2b00:	f7a80020 	sdc1	$f8,32(sp)
    2b04:	460022a1 	cvt.d.s	$f10,$f4
    2b08:	c7a40084 	lwc1	$f4,132(sp)
    2b0c:	44075000 	mfc1	a3,$f10
    2b10:	44065800 	mfc1	a2,$f11
    2b14:	460022a1 	cvt.d.s	$f10,$f4
    2b18:	f7aa0018 	sdc1	$f10,24(sp)
    2b1c:	c6040100 	lwc1	$f4,256(s0)
    2b20:	afa3004c 	sw	v1,76(sp)
    2b24:	460022a1 	cvt.d.s	$f10,$f4
    2b28:	0c000000 	jal	0 <func_800437F0>
    2b2c:	f7aa0028 	sdc1	$f10,40(sp)
    2b30:	8fa3004c 	lw	v1,76(sp)
    2b34:	c7a60098 	lwc1	$f6,152(sp)
    2b38:	c7a80080 	lwc1	$f8,128(sp)
    2b3c:	c7aa009c 	lwc1	$f10,156(sp)
    2b40:	3c180000 	lui	t8,0x0
    2b44:	46083100 	add.s	$f4,$f6,$f8
    2b48:	c7a60084 	lwc1	$f6,132(sp)
    2b4c:	46065200 	add.s	$f8,$f10,$f6
    2b50:	e7a40098 	swc1	$f4,152(sp)
    2b54:	c7a400a0 	lwc1	$f4,160(sp)
    2b58:	c7aa0088 	lwc1	$f10,136(sp)
    2b5c:	e7a8009c 	swc1	$f8,156(sp)
    2b60:	460a2180 	add.s	$f6,$f4,$f10
    2b64:	e7a600a0 	swc1	$f6,160(sp)
    2b68:	c6040104 	lwc1	$f4,260(s0)
    2b6c:	c6080098 	lwc1	$f8,152(s0)
    2b70:	46044032 	c.eq.s	$f8,$f4
    2b74:	00000000 	nop
    2b78:	4501000d 	bc1t	2bb0 <func_800460A8+0x2f8>
    2b7c:	00000000 	nop
    2b80:	8e020090 	lw	v0,144(s0)
    2b84:	3c010000 	lui	at,0x0
    2b88:	c42a0000 	lwc1	$f10,0(at)
    2b8c:	c446006c 	lwc1	$f6,108(v0)
    2b90:	4606503c 	c.lt.s	$f10,$f6
    2b94:	00000000 	nop
    2b98:	45010005 	bc1t	2bb0 <func_800460A8+0x2f8>
    2b9c:	00000000 	nop
    2ba0:	8c4c067c 	lw	t4,1660(v0)
    2ba4:	000c6a80 	sll	t5,t4,0xa
    2ba8:	05a10024 	bgez	t5,2c3c <func_800460A8+0x384>
    2bac:	00000000 	nop
    2bb0:	8f180000 	lw	t8,0(t8)
    2bb4:	3c010000 	lui	at,0x0
    2bb8:	c42a0000 	lwc1	$f10,0(at)
    2bbc:	871901ea 	lh	t9,490(t8)
    2bc0:	8fae0050 	lw	t6,80(sp)
    2bc4:	8faf00bc 	lw	t7,188(sp)
    2bc8:	44994000 	mtc1	t9,$f8
    2bcc:	3c073dcc 	lui	a3,0x3dcc
    2bd0:	34e7cccd 	ori	a3,a3,0xcccd
    2bd4:	46804120 	cvt.s.w	$f4,$f8
    2bd8:	c5cc0004 	lwc1	$f12,4(t6)
    2bdc:	c5ee0000 	lwc1	$f14,0(t7)
    2be0:	460a2182 	mul.s	$f6,$f4,$f10
    2be4:	44063000 	mfc1	a2,$f6
    2be8:	0c000000 	jal	0 <func_800437F0>
    2bec:	00000000 	nop
    2bf0:	8fa800bc 	lw	t0,188(sp)
    2bf4:	3c010000 	lui	at,0x0
    2bf8:	27a40098 	addiu	a0,sp,152
    2bfc:	e5000000 	swc1	$f0,0(t0)
    2c00:	8fa90050 	lw	t1,80(sp)
    2c04:	c7a4009c 	lwc1	$f4,156(sp)
    2c08:	c4260000 	lwc1	$f6,0(at)
    2c0c:	c5280004 	lwc1	$f8,4(t1)
    2c10:	260500e4 	addiu	a1,s0,228
    2c14:	46004501 	sub.s	$f20,$f8,$f0
    2c18:	46142281 	sub.s	$f10,$f4,$f20
    2c1c:	e7aa009c 	swc1	$f10,156(sp)
    2c20:	8e0700cc 	lw	a3,204(s0)
    2c24:	8e0600d0 	lw	a2,208(s0)
    2c28:	0c000000 	jal	0 <func_800437F0>
    2c2c:	e7a60010 	swc1	$f6,16(sp)
    2c30:	260a0050 	addiu	t2,s0,80
    2c34:	10000097 	b	2e94 <func_800460A8+0x5dc>
    2c38:	afaa0054 	sw	t2,84(sp)
    2c3c:	14600036 	bnez	v1,2d18 <func_800460A8+0x460>
    2c40:	8fad0050 	lw	t5,80(sp)
    2c44:	8fab0050 	lw	t3,80(sp)
    2c48:	8fac00bc 	lw	t4,188(sp)
    2c4c:	26040050 	addiu	a0,s0,80
    2c50:	c5680004 	lwc1	$f8,4(t3)
    2c54:	c5840000 	lwc1	$f4,0(t4)
    2c58:	afa40054 	sw	a0,84(sp)
    2c5c:	2605005c 	addiu	a1,s0,92
    2c60:	0c000000 	jal	0 <func_800437F0>
    2c64:	46044501 	sub.s	$f20,$f8,$f4
    2c68:	4600a306 	mov.s	$f12,$f20
    2c6c:	46000386 	mov.s	$f14,$f0
    2c70:	0c000000 	jal	0 <func_800437F0>
    2c74:	e7a00068 	swc1	$f0,104(sp)
    2c78:	3c010000 	lui	at,0x0
    2c7c:	c4320000 	lwc1	$f18,0(at)
    2c80:	3c010000 	lui	at,0x0
    2c84:	c4260000 	lwc1	$f6,0(at)
    2c88:	c60a00fc 	lwc1	$f10,252(s0)
    2c8c:	46065202 	mul.s	$f8,$f10,$f6
    2c90:	00000000 	nop
    2c94:	46124302 	mul.s	$f12,$f8,$f18
    2c98:	0c000000 	jal	0 <func_800437F0>
    2c9c:	00000000 	nop
    2ca0:	c7b00068 	lwc1	$f16,104(sp)
    2ca4:	8fa200bc 	lw	v0,188(sp)
    2ca8:	46100082 	mul.s	$f2,$f0,$f16
    2cac:	4614103c 	c.lt.s	$f2,$f20
    2cb0:	00000000 	nop
    2cb4:	45020008 	bc1fl	2cd8 <func_800460A8+0x420>
    2cb8:	46001007 	neg.s	$f0,$f2
    2cbc:	4602a281 	sub.s	$f10,$f20,$f2
    2cc0:	c4440000 	lwc1	$f4,0(v0)
    2cc4:	46001506 	mov.s	$f20,$f2
    2cc8:	460a2180 	add.s	$f6,$f4,$f10
    2ccc:	1000000c 	b	2d00 <func_800460A8+0x448>
    2cd0:	e4460000 	swc1	$f6,0(v0)
    2cd4:	46001007 	neg.s	$f0,$f2
    2cd8:	8fa200bc 	lw	v0,188(sp)
    2cdc:	4600a03c 	c.lt.s	$f20,$f0
    2ce0:	00000000 	nop
    2ce4:	45020007 	bc1fl	2d04 <func_800460A8+0x44c>
    2ce8:	c7a6009c 	lwc1	$f6,156(sp)
    2cec:	4602a100 	add.s	$f4,$f20,$f2
    2cf0:	c4480000 	lwc1	$f8,0(v0)
    2cf4:	46000506 	mov.s	$f20,$f0
    2cf8:	46044280 	add.s	$f10,$f8,$f4
    2cfc:	e44a0000 	swc1	$f10,0(v0)
    2d00:	c7a6009c 	lwc1	$f6,156(sp)
    2d04:	3c020000 	lui	v0,0x0
    2d08:	8c420000 	lw	v0,0(v0)
    2d0c:	46143201 	sub.s	$f8,$f6,$f20
    2d10:	1000003a 	b	2dfc <func_800460A8+0x544>
    2d14:	e7a8009c 	swc1	$f8,156(sp)
    2d18:	8fae00bc 	lw	t6,188(sp)
    2d1c:	c5a40004 	lwc1	$f4,4(t5)
    2d20:	26040050 	addiu	a0,s0,80
    2d24:	c5ca0000 	lwc1	$f10,0(t6)
    2d28:	afa40054 	sw	a0,84(sp)
    2d2c:	2605005c 	addiu	a1,s0,92
    2d30:	0c000000 	jal	0 <func_800437F0>
    2d34:	460a2501 	sub.s	$f20,$f4,$f10
    2d38:	4600a306 	mov.s	$f12,$f20
    2d3c:	0c000000 	jal	0 <func_800437F0>
    2d40:	46000386 	mov.s	$f14,$f0
    2d44:	3c020000 	lui	v0,0x0
    2d48:	8c420000 	lw	v0,0(v0)
    2d4c:	3c010000 	lui	at,0x0
    2d50:	c4320000 	lwc1	$f18,0(at)
    2d54:	845801d4 	lh	t8,468(v0)
    2d58:	46000086 	mov.s	$f2,$f0
    2d5c:	44983000 	mtc1	t8,$f6
    2d60:	00000000 	nop
    2d64:	46803220 	cvt.s.w	$f8,$f6
    2d68:	46124382 	mul.s	$f14,$f8,$f18
    2d6c:	4600703c 	c.lt.s	$f14,$f0
    2d70:	00000000 	nop
    2d74:	4502000a 	bc1fl	2da0 <func_800460A8+0x4e8>
    2d78:	845901d6 	lh	t9,470(v0)
    2d7c:	0c000000 	jal	0 <func_800437F0>
    2d80:	460e1301 	sub.s	$f12,$f2,$f14
    2d84:	3c013f80 	lui	at,0x3f80
    2d88:	44812000 	mtc1	at,$f4
    2d8c:	3c020000 	lui	v0,0x0
    2d90:	8c420000 	lw	v0,0(v0)
    2d94:	10000015 	b	2dec <func_800460A8+0x534>
    2d98:	46002401 	sub.s	$f16,$f4,$f0
    2d9c:	845901d6 	lh	t9,470(v0)
    2da0:	3c013f80 	lui	at,0x3f80
    2da4:	44995000 	mtc1	t9,$f10
    2da8:	00000000 	nop
    2dac:	468051a0 	cvt.s.w	$f6,$f10
    2db0:	46123382 	mul.s	$f14,$f6,$f18
    2db4:	460e003c 	c.lt.s	$f0,$f14
    2db8:	00000000 	nop
    2dbc:	4502000a 	bc1fl	2de8 <func_800460A8+0x530>
    2dc0:	44818000 	mtc1	at,$f16
    2dc4:	0c000000 	jal	0 <func_800437F0>
    2dc8:	46027301 	sub.s	$f12,$f14,$f2
    2dcc:	3c013f80 	lui	at,0x3f80
    2dd0:	44814000 	mtc1	at,$f8
    2dd4:	3c020000 	lui	v0,0x0
    2dd8:	8c420000 	lw	v0,0(v0)
    2ddc:	10000003 	b	2dec <func_800460A8+0x534>
    2de0:	46004401 	sub.s	$f16,$f8,$f0
    2de4:	44818000 	mtc1	at,$f16
    2de8:	00000000 	nop
    2dec:	4610a282 	mul.s	$f10,$f20,$f16
    2df0:	c7a4009c 	lwc1	$f4,156(sp)
    2df4:	460a2181 	sub.s	$f6,$f4,$f10
    2df8:	e7a6009c 	swc1	$f6,156(sp)
    2dfc:	844801ce 	lh	t0,462(v0)
    2e00:	844901d0 	lh	t1,464(v0)
    2e04:	3c010000 	lui	at,0x0
    2e08:	44884000 	mtc1	t0,$f8
    2e0c:	44893000 	mtc1	t1,$f6
    2e10:	c4200000 	lwc1	$f0,0(at)
    2e14:	46804120 	cvt.s.w	$f4,$f8
    2e18:	3c010000 	lui	at,0x0
    2e1c:	27a40098 	addiu	a0,sp,152
    2e20:	260500e4 	addiu	a1,s0,228
    2e24:	46803220 	cvt.s.w	$f8,$f6
    2e28:	46002282 	mul.s	$f10,$f4,$f0
    2e2c:	00000000 	nop
    2e30:	46004102 	mul.s	$f4,$f8,$f0
    2e34:	44065000 	mfc1	a2,$f10
    2e38:	c42a0000 	lwc1	$f10,0(at)
    2e3c:	e7aa0010 	swc1	$f10,16(sp)
    2e40:	44072000 	mfc1	a3,$f4
    2e44:	0c000000 	jal	0 <func_800437F0>
    2e48:	00000000 	nop
    2e4c:	3c0a0000 	lui	t2,0x0
    2e50:	8d4a0000 	lw	t2,0(t2)
    2e54:	3c010000 	lui	at,0x0
    2e58:	c4200000 	lwc1	$f0,0(at)
    2e5c:	854b01ce 	lh	t3,462(t2)
    2e60:	3c0c0000 	lui	t4,0x0
    2e64:	448b3000 	mtc1	t3,$f6
    2e68:	00000000 	nop
    2e6c:	46803220 	cvt.s.w	$f8,$f6
    2e70:	46004102 	mul.s	$f4,$f8,$f0
    2e74:	e60400d0 	swc1	$f4,208(s0)
    2e78:	8d8c0000 	lw	t4,0(t4)
    2e7c:	858d01d0 	lh	t5,464(t4)
    2e80:	448d5000 	mtc1	t5,$f10
    2e84:	00000000 	nop
    2e88:	468051a0 	cvt.s.w	$f6,$f10
    2e8c:	46003202 	mul.s	$f8,$f6,$f0
    2e90:	e60800cc 	swc1	$f8,204(s0)
    2e94:	8fa20050 	lw	v0,80(sp)
    2e98:	c60a00e4 	lwc1	$f10,228(s0)
    2e9c:	3c010000 	lui	at,0x0
    2ea0:	c4440000 	lwc1	$f4,0(v0)
    2ea4:	27a4008c 	addiu	a0,sp,140
    2ea8:	8fa50054 	lw	a1,84(sp)
    2eac:	460a2180 	add.s	$f6,$f4,$f10
    2eb0:	e7a6008c 	swc1	$f6,140(sp)
    2eb4:	c60400e8 	lwc1	$f4,232(s0)
    2eb8:	c4480004 	lwc1	$f8,4(v0)
    2ebc:	46044280 	add.s	$f10,$f8,$f4
    2ec0:	e7aa0090 	swc1	$f10,144(sp)
    2ec4:	c60800ec 	lwc1	$f8,236(s0)
    2ec8:	c4460008 	lwc1	$f6,8(v0)
    2ecc:	c42a0000 	lwc1	$f10,0(at)
    2ed0:	46083100 	add.s	$f4,$f6,$f8
    2ed4:	e7a40094 	swc1	$f4,148(sp)
    2ed8:	c6000100 	lwc1	$f0,256(s0)
    2edc:	e7aa0010 	swc1	$f10,16(sp)
    2ee0:	44060000 	mfc1	a2,$f0
    2ee4:	44070000 	mfc1	a3,$f0
    2ee8:	0c000000 	jal	0 <func_800437F0>
    2eec:	00000000 	nop
    2ef0:	8fbf0044 	lw	ra,68(sp)
    2ef4:	d7b40038 	ldc1	$f20,56(sp)
    2ef8:	8fb00040 	lw	s0,64(sp)
    2efc:	27bd00a8 	addiu	sp,sp,168
    2f00:	03e00008 	jr	ra
    2f04:	24020001 	li	v0,1

00002f08 <func_800466F8>:
    2f08:	27bdff90 	addiu	sp,sp,-112
    2f0c:	afb00020 	sw	s0,32(sp)
    2f10:	00808025 	move	s0,a0
    2f14:	afbf0024 	sw	ra,36(sp)
    2f18:	afa50074 	sw	a1,116(sp)
    2f1c:	afa60078 	sw	a2,120(sp)
    2f20:	afa7007c 	sw	a3,124(sp)
    2f24:	0c000000 	jal	0 <func_800437F0>
    2f28:	8c840090 	lw	a0,144(a0)
    2f2c:	e7a00048 	swc1	$f0,72(sp)
    2f30:	8e020090 	lw	v0,144(s0)
    2f34:	27a40030 	addiu	a0,sp,48
    2f38:	8c450440 	lw	a1,1088(v0)
    2f3c:	0c000000 	jal	0 <func_800437F0>
    2f40:	afa20044 	sw	v0,68(sp)
    2f44:	8fa20044 	lw	v0,68(sp)
    2f48:	3c073e4c 	lui	a3,0x3e4c
    2f4c:	c7a40034 	lwc1	$f4,52(sp)
    2f50:	8c4e0440 	lw	t6,1088(v0)
    2f54:	00001025 	move	v0,zero
    2f58:	34e7cccd 	ori	a3,a3,0xcccd
    2f5c:	8dcf01f0 	lw	t7,496(t6)
    2f60:	c7ac0034 	lwc1	$f12,52(sp)
    2f64:	8fa9007c 	lw	t1,124(sp)
    2f68:	31f80004 	andi	t8,t7,0x4
    2f6c:	13000003 	beqz	t8,2f7c <func_800466F8+0x74>
    2f70:	3c063f00 	lui	a2,0x3f00
    2f74:	10000001 	b	2f7c <func_800466F8+0x74>
    2f78:	24020001 	li	v0,1
    2f7c:	10400017 	beqz	v0,2fdc <func_800466F8+0xd4>
    2f80:	3c014244 	lui	at,0x4244
    2f84:	44813000 	mtc1	at,$f6
    2f88:	8fb9007c 	lw	t9,124(sp)
    2f8c:	3c063dcc 	lui	a2,0x3dcc
    2f90:	46062301 	sub.s	$f12,$f4,$f6
    2f94:	3c073e4c 	lui	a3,0x3e4c
    2f98:	34e7cccd 	ori	a3,a3,0xcccd
    2f9c:	34c6cccd 	ori	a2,a2,0xcccd
    2fa0:	e7ac0034 	swc1	$f12,52(sp)
    2fa4:	0c000000 	jal	0 <func_800437F0>
    2fa8:	c72e0000 	lwc1	$f14,0(t9)
    2fac:	8fa8007c 	lw	t0,124(sp)
    2fb0:	3c010000 	lui	at,0x0
    2fb4:	3c063e4c 	lui	a2,0x3e4c
    2fb8:	3c073ca3 	lui	a3,0x3ca3
    2fbc:	e5000000 	swc1	$f0,0(t0)
    2fc0:	c60e0100 	lwc1	$f14,256(s0)
    2fc4:	c42c0dfc 	lwc1	$f12,3580(at)
    2fc8:	34e7d70a 	ori	a3,a3,0xd70a
    2fcc:	0c000000 	jal	0 <func_800437F0>
    2fd0:	34c6cccd 	ori	a2,a2,0xcccd
    2fd4:	10000005 	b	2fec <func_800466F8+0xe4>
    2fd8:	e6000100 	swc1	$f0,256(s0)
    2fdc:	0c000000 	jal	0 <func_800437F0>
    2fe0:	c52e0000 	lwc1	$f14,0(t1)
    2fe4:	8faa007c 	lw	t2,124(sp)
    2fe8:	e5400000 	swc1	$f0,0(t2)
    2fec:	c7aa0048 	lwc1	$f10,72(sp)
    2ff0:	c7b00078 	lwc1	$f16,120(sp)
    2ff4:	44800000 	mtc1	zero,$f0
    2ff8:	87ab0082 	lh	t3,130(sp)
    2ffc:	46105480 	add.s	$f18,$f10,$f16
    3000:	e7a00060 	swc1	$f0,96(sp)
    3004:	e7a00068 	swc1	$f0,104(sp)
    3008:	11600011 	beqz	t3,3050 <func_800466F8+0x148>
    300c:	e7b20064 	swc1	$f18,100(sp)
    3010:	3c0d0000 	lui	t5,0x0
    3014:	8dad0000 	lw	t5,0(t5)
    3018:	8fac0074 	lw	t4,116(sp)
    301c:	26040108 	addiu	a0,s0,264
    3020:	85ae01a6 	lh	t6,422(t5)
    3024:	860500a2 	lh	a1,162(s0)
    3028:	85860006 	lh	a2,6(t4)
    302c:	448e2000 	mtc1	t6,$f4
    3030:	00000000 	nop
    3034:	46802120 	cvt.s.w	$f4,$f4
    3038:	44072000 	mfc1	a3,$f4
    303c:	0c000000 	jal	0 <func_800437F0>
    3040:	00000000 	nop
    3044:	c7a60064 	lwc1	$f6,100(sp)
    3048:	46003201 	sub.s	$f8,$f6,$f0
    304c:	e7a80064 	swc1	$f8,100(sp)
    3050:	3c010000 	lui	at,0x0
    3054:	c42a0e00 	lwc1	$f10,3584(at)
    3058:	8e0600d0 	lw	a2,208(s0)
    305c:	8e0700cc 	lw	a3,204(s0)
    3060:	27a40060 	addiu	a0,sp,96
    3064:	260500e4 	addiu	a1,s0,228
    3068:	0c000000 	jal	0 <func_800437F0>
    306c:	e7aa0010 	swc1	$f10,16(sp)
    3070:	c61000e4 	lwc1	$f16,228(s0)
    3074:	c7b20030 	lwc1	$f18,48(sp)
    3078:	c7a80034 	lwc1	$f8,52(sp)
    307c:	3c010000 	lui	at,0x0
    3080:	46128100 	add.s	$f4,$f16,$f18
    3084:	c7b20038 	lwc1	$f18,56(sp)
    3088:	27a40054 	addiu	a0,sp,84
    308c:	26050050 	addiu	a1,s0,80
    3090:	e7a40054 	swc1	$f4,84(sp)
    3094:	c60600e8 	lwc1	$f6,232(s0)
    3098:	46083280 	add.s	$f10,$f6,$f8
    309c:	c4260e04 	lwc1	$f6,3588(at)
    30a0:	e7aa0058 	swc1	$f10,88(sp)
    30a4:	c61000ec 	lwc1	$f16,236(s0)
    30a8:	46128100 	add.s	$f4,$f16,$f18
    30ac:	e7a4005c 	swc1	$f4,92(sp)
    30b0:	c6000100 	lwc1	$f0,256(s0)
    30b4:	e7a60010 	swc1	$f6,16(sp)
    30b8:	44060000 	mfc1	a2,$f0
    30bc:	44070000 	mfc1	a3,$f0
    30c0:	0c000000 	jal	0 <func_800437F0>
    30c4:	00000000 	nop
    30c8:	8fbf0024 	lw	ra,36(sp)
    30cc:	8fb00020 	lw	s0,32(sp)
    30d0:	27bd0070 	addiu	sp,sp,112
    30d4:	03e00008 	jr	ra
    30d8:	24020001 	li	v0,1

000030dc <func_800468CC>:
    30dc:	27bdffe0 	addiu	sp,sp,-32
    30e0:	afa60028 	sw	a2,40(sp)
    30e4:	44857000 	mtc1	a1,$f14
    30e8:	c7a40028 	lwc1	$f4,40(sp)
    30ec:	afa7002c 	sw	a3,44(sp)
    30f0:	afbf0014 	sw	ra,20(sp)
    30f4:	4604703c 	c.lt.s	$f14,$f4
    30f8:	3c020000 	lui	v0,0x0
    30fc:	c7a8002c 	lwc1	$f8,44(sp)
    3100:	45020008 	bc1fl	3124 <func_800468CC+0x48>
    3104:	460e403c 	c.lt.s	$f8,$f14
    3108:	8c420000 	lw	v0,0(v0)
    310c:	e7a4001c 	swc1	$f4,28(sp)
    3110:	844e01a0 	lh	t6,416(v0)
    3114:	448e3000 	mtc1	t6,$f6
    3118:	10000010 	b	315c <func_800468CC+0x80>
    311c:	46803320 	cvt.s.w	$f12,$f6
    3120:	460e403c 	c.lt.s	$f8,$f14
    3124:	3c013f80 	lui	at,0x3f80
    3128:	3c020000 	lui	v0,0x0
    312c:	45020009 	bc1fl	3154 <func_800468CC+0x78>
    3130:	44816000 	mtc1	at,$f12
    3134:	3c020000 	lui	v0,0x0
    3138:	8c420000 	lw	v0,0(v0)
    313c:	e7a8001c 	swc1	$f8,28(sp)
    3140:	844f01a0 	lh	t7,416(v0)
    3144:	448f5000 	mtc1	t7,$f10
    3148:	10000004 	b	315c <func_800468CC+0x80>
    314c:	46805320 	cvt.s.w	$f12,$f10
    3150:	44816000 	mtc1	at,$f12
    3154:	e7ae001c 	swc1	$f14,28(sp)
    3158:	8c420000 	lw	v0,0(v0)
    315c:	845801c6 	lh	t8,454(v0)
    3160:	3c010000 	lui	at,0x0
    3164:	c4240e08 	lwc1	$f4,3592(at)
    3168:	44988000 	mtc1	t8,$f16
    316c:	c48e00c0 	lwc1	$f14,192(a0)
    3170:	3c073dcc 	lui	a3,0x3dcc
    3174:	468084a0 	cvt.s.w	$f18,$f16
    3178:	34e7cccd 	ori	a3,a3,0xcccd
    317c:	afa40020 	sw	a0,32(sp)
    3180:	46049182 	mul.s	$f6,$f18,$f4
    3184:	44063000 	mfc1	a2,$f6
    3188:	0c000000 	jal	0 <func_800437F0>
    318c:	00000000 	nop
    3190:	3c013f80 	lui	at,0x3f80
    3194:	44814000 	mtc1	at,$f8
    3198:	8fa40020 	lw	a0,32(sp)
    319c:	3c073e4c 	lui	a3,0x3e4c
    31a0:	46004283 	div.s	$f10,$f8,$f0
    31a4:	e48000c0 	swc1	$f0,192(a0)
    31a8:	c7ac001c 	lwc1	$f12,28(sp)
    31ac:	34e7cccd 	ori	a3,a3,0xcccd
    31b0:	c48e00dc 	lwc1	$f14,220(a0)
    31b4:	44065000 	mfc1	a2,$f10
    31b8:	0c000000 	jal	0 <func_800437F0>
    31bc:	00000000 	nop
    31c0:	8fbf0014 	lw	ra,20(sp)
    31c4:	27bd0020 	addiu	sp,sp,32
    31c8:	03e00008 	jr	ra
    31cc:	00000000 	nop

000031d0 <func_800469C0>:
    31d0:	44856000 	mtc1	a1,$f12
    31d4:	44867000 	mtc1	a2,$f14
    31d8:	27bdffe0 	addiu	sp,sp,-32
    31dc:	afa7002c 	sw	a3,44(sp)
    31e0:	460e603c 	c.lt.s	$f12,$f14
    31e4:	afbf0014 	sw	ra,20(sp)
    31e8:	c7b0002c 	lwc1	$f16,44(sp)
    31ec:	45020017 	bc1fl	324c <func_800469C0+0x7c>
    31f0:	460c803c 	c.lt.s	$f16,$f12
    31f4:	87ae0032 	lh	t6,50(sp)
    31f8:	e7ae001c 	swc1	$f14,28(sp)
    31fc:	3c020000 	lui	v0,0x0
    3200:	11c0000c 	beqz	t6,3234 <func_800469C0+0x64>
    3204:	00000000 	nop
    3208:	3c020000 	lui	v0,0x0
    320c:	8c420000 	lw	v0,0(v0)
    3210:	3c013f00 	lui	at,0x3f00
    3214:	44814000 	mtc1	at,$f8
    3218:	844f01a0 	lh	t7,416(v0)
    321c:	448f2000 	mtc1	t7,$f4
    3220:	00000000 	nop
    3224:	468021a0 	cvt.s.w	$f6,$f4
    3228:	46083302 	mul.s	$f12,$f6,$f8
    322c:	1000002d 	b	32e4 <func_800469C0+0x114>
    3230:	844c01c6 	lh	t4,454(v0)
    3234:	8c420000 	lw	v0,0(v0)
    3238:	845801a0 	lh	t8,416(v0)
    323c:	44985000 	mtc1	t8,$f10
    3240:	10000027 	b	32e0 <func_800469C0+0x110>
    3244:	46805320 	cvt.s.w	$f12,$f10
    3248:	460c803c 	c.lt.s	$f16,$f12
    324c:	00000000 	nop
    3250:	45020017 	bc1fl	32b0 <func_800469C0+0xe0>
    3254:	87aa0032 	lh	t2,50(sp)
    3258:	87b90032 	lh	t9,50(sp)
    325c:	e7b0001c 	swc1	$f16,28(sp)
    3260:	3c020000 	lui	v0,0x0
    3264:	1320000c 	beqz	t9,3298 <func_800469C0+0xc8>
    3268:	00000000 	nop
    326c:	3c020000 	lui	v0,0x0
    3270:	8c420000 	lw	v0,0(v0)
    3274:	3c013f00 	lui	at,0x3f00
    3278:	44813000 	mtc1	at,$f6
    327c:	844801a0 	lh	t0,416(v0)
    3280:	44889000 	mtc1	t0,$f18
    3284:	00000000 	nop
    3288:	46809120 	cvt.s.w	$f4,$f18
    328c:	46062302 	mul.s	$f12,$f4,$f6
    3290:	10000014 	b	32e4 <func_800469C0+0x114>
    3294:	844c01c6 	lh	t4,454(v0)
    3298:	8c420000 	lw	v0,0(v0)
    329c:	844901a0 	lh	t1,416(v0)
    32a0:	44894000 	mtc1	t1,$f8
    32a4:	1000000e 	b	32e0 <func_800469C0+0x110>
    32a8:	46804320 	cvt.s.w	$f12,$f8
    32ac:	87aa0032 	lh	t2,50(sp)
    32b0:	e7ac001c 	swc1	$f12,28(sp)
    32b4:	3c013f80 	lui	at,0x3f80
    32b8:	11400007 	beqz	t2,32d8 <func_800469C0+0x108>
    32bc:	3c020000 	lui	v0,0x0
    32c0:	3c020000 	lui	v0,0x0
    32c4:	8c420000 	lw	v0,0(v0)
    32c8:	844b01a0 	lh	t3,416(v0)
    32cc:	448b5000 	mtc1	t3,$f10
    32d0:	10000003 	b	32e0 <func_800469C0+0x110>
    32d4:	46805320 	cvt.s.w	$f12,$f10
    32d8:	44816000 	mtc1	at,$f12
    32dc:	8c420000 	lw	v0,0(v0)
    32e0:	844c01c6 	lh	t4,454(v0)
    32e4:	3c010000 	lui	at,0x0
    32e8:	c4240e0c 	lwc1	$f4,3596(at)
    32ec:	448c8000 	mtc1	t4,$f16
    32f0:	c48e00c0 	lwc1	$f14,192(a0)
    32f4:	3c073dcc 	lui	a3,0x3dcc
    32f8:	468084a0 	cvt.s.w	$f18,$f16
    32fc:	34e7cccd 	ori	a3,a3,0xcccd
    3300:	afa40020 	sw	a0,32(sp)
    3304:	46049182 	mul.s	$f6,$f18,$f4
    3308:	44063000 	mfc1	a2,$f6
    330c:	0c000000 	jal	0 <func_800437F0>
    3310:	00000000 	nop
    3314:	3c013f80 	lui	at,0x3f80
    3318:	44814000 	mtc1	at,$f8
    331c:	8fa40020 	lw	a0,32(sp)
    3320:	3c073e4c 	lui	a3,0x3e4c
    3324:	46004283 	div.s	$f10,$f8,$f0
    3328:	e48000c0 	swc1	$f0,192(a0)
    332c:	c7ac001c 	lwc1	$f12,28(sp)
    3330:	34e7cccd 	ori	a3,a3,0xcccd
    3334:	c48e00dc 	lwc1	$f14,220(a0)
    3338:	44065000 	mfc1	a2,$f10
    333c:	0c000000 	jal	0 <func_800437F0>
    3340:	00000000 	nop
    3344:	8fbf0014 	lw	ra,20(sp)
    3348:	27bd0020 	addiu	sp,sp,32
    334c:	03e00008 	jr	ra
    3350:	00000000 	nop

00003354 <func_80046B44>:
    3354:	27bdffc8 	addiu	sp,sp,-56
    3358:	afa5003c 	sw	a1,60(sp)
    335c:	00052c00 	sll	a1,a1,0x10
    3360:	afa70044 	sw	a3,68(sp)
    3364:	00073c00 	sll	a3,a3,0x10
    3368:	00052c03 	sra	a1,a1,0x10
    336c:	00073c03 	sra	a3,a3,0x10
    3370:	afbf0014 	sw	ra,20(sp)
    3374:	afa40038 	sw	a0,56(sp)
    3378:	04a00004 	bltz	a1,338c <func_80046B44+0x38>
    337c:	afa60040 	sw	a2,64(sp)
    3380:	00051c00 	sll	v1,a1,0x10
    3384:	10000004 	b	3398 <func_80046B44+0x44>
    3388:	00031c03 	sra	v1,v1,0x10
    338c:	00051823 	negu	v1,a1
    3390:	00031c00 	sll	v1,v1,0x10
    3394:	00031c03 	sra	v1,v1,0x10
    3398:	18e00014 	blez	a3,33ec <func_80046B44+0x98>
    339c:	00071400 	sll	v0,a3,0x10
    33a0:	00072400 	sll	a0,a3,0x10
    33a4:	00042403 	sra	a0,a0,0x10
    33a8:	a7a30028 	sh	v1,40(sp)
    33ac:	a7a5003e 	sh	a1,62(sp)
    33b0:	0c000000 	jal	0 <func_800437F0>
    33b4:	a7a70046 	sh	a3,70(sp)
    33b8:	87a70046 	lh	a3,70(sp)
    33bc:	87a30028 	lh	v1,40(sp)
    33c0:	87a5003e 	lh	a1,62(sp)
    33c4:	44872000 	mtc1	a3,$f4
    33c8:	00000000 	nop
    33cc:	468021a0 	cvt.s.w	$f6,$f4
    33d0:	46060202 	mul.s	$f8,$f0,$f6
    33d4:	4600428d 	trunc.w.s	$f10,$f8
    33d8:	44025000 	mfc1	v0,$f10
    33dc:	00000000 	nop
    33e0:	00021400 	sll	v0,v0,0x10
    33e4:	10000002 	b	33f0 <func_80046B44+0x9c>
    33e8:	00021403 	sra	v0,v0,0x10
    33ec:	00021403 	sra	v0,v0,0x10
    33f0:	87af0042 	lh	t7,66(sp)
    33f4:	8fb80038 	lw	t8,56(sp)
    33f8:	3c190000 	lui	t9,0x0
    33fc:	01e22023 	subu	a0,t7,v0
    3400:	00042400 	sll	a0,a0,0x10
    3404:	00042403 	sra	a0,a0,0x10
    3408:	04800003 	bltz	a0,3418 <func_80046B44+0xc4>
    340c:	00041023 	negu	v0,a0
    3410:	10000001 	b	3418 <func_80046B44+0xc4>
    3414:	00801025 	move	v0,a0
    3418:	0043082a 	slt	at,v0,v1
    341c:	10200009 	beqz	at,3444 <func_80046B44+0xf0>
    3420:	3c013f80 	lui	at,0x3f80
    3424:	44818000 	mtc1	at,$f16
    3428:	c71200c4 	lwc1	$f18,196(t8)
    342c:	3c014040 	lui	at,0x4040
    3430:	44813000 	mtc1	at,$f6
    3434:	46128103 	div.s	$f4,$f16,$f18
    3438:	46062082 	mul.s	$f2,$f4,$f6
    343c:	1000001b 	b	34ac <func_80046B44+0x158>
    3440:	44061000 	mfc1	a2,$f2
    3444:	8f390000 	lw	t9,0(t9)
    3448:	3c013f80 	lui	at,0x3f80
    344c:	44811000 	mtc1	at,$f2
    3450:	8728019e 	lh	t0,414(t9)
    3454:	44839000 	mtc1	v1,$f18
    3458:	3c010000 	lui	at,0x0
    345c:	44884000 	mtc1	t0,$f8
    3460:	46809120 	cvt.s.w	$f4,$f18
    3464:	c42c0000 	lwc1	$f12,0(at)
    3468:	a7a5003e 	sh	a1,62(sp)
    346c:	afa4001c 	sw	a0,28(sp)
    3470:	468042a0 	cvt.s.w	$f10,$f8
    3474:	460a1403 	div.s	$f16,$f2,$f10
    3478:	46048002 	mul.s	$f0,$f16,$f4
    347c:	0c000000 	jal	0 <func_800437F0>
    3480:	46001381 	sub.s	$f14,$f2,$f0
    3484:	8fa90038 	lw	t1,56(sp)
    3488:	3c013f80 	lui	at,0x3f80
    348c:	44813000 	mtc1	at,$f6
    3490:	c52800c4 	lwc1	$f8,196(t1)
    3494:	8fa4001c 	lw	a0,28(sp)
    3498:	87a5003e 	lh	a1,62(sp)
    349c:	46083283 	div.s	$f10,$f6,$f8
    34a0:	46005082 	mul.s	$f2,$f10,$f0
    34a4:	00000000 	nop
    34a8:	44061000 	mfc1	a2,$f2
    34ac:	0c000000 	jal	0 <func_800437F0>
    34b0:	2407000a 	li	a3,10
    34b4:	8fbf0014 	lw	ra,20(sp)
    34b8:	27bd0038 	addiu	sp,sp,56
    34bc:	03e00008 	jr	ra
    34c0:	00000000 	nop

000034c4 <func_80046CB4>:
    34c4:	27bdffc8 	addiu	sp,sp,-56
    34c8:	afbf0014 	sw	ra,20(sp)
    34cc:	afa40038 	sw	a0,56(sp)
    34d0:	afa5003c 	sw	a1,60(sp)
    34d4:	afa60040 	sw	a2,64(sp)
    34d8:	3c010000 	lui	at,0x0
    34dc:	c4240000 	lwc1	$f4,0(at)
    34e0:	c48600d8 	lwc1	$f6,216(a0)
    34e4:	00063400 	sll	a2,a2,0x10
    34e8:	00052c00 	sll	a1,a1,0x10
    34ec:	4606203c 	c.lt.s	$f4,$f6
    34f0:	44876000 	mtc1	a3,$f12
    34f4:	00052c03 	sra	a1,a1,0x10
    34f8:	00063403 	sra	a2,a2,0x10
    34fc:	4500000f 	bc1f	353c <func_80046CB4+0x78>
    3500:	3c0b0000 	lui	t3,0x0
    3504:	24b98001 	addiu	t9,a1,-32767
    3508:	00d91823 	subu	v1,a2,t9
    350c:	00031c00 	sll	v1,v1,0x10
    3510:	00031c03 	sra	v1,v1,0x10
    3514:	24688001 	addiu	t0,v1,-32767
    3518:	00084c00 	sll	t1,t0,0x10
    351c:	00095403 	sra	t2,t1,0x10
    3520:	448a4000 	mtc1	t2,$f8
    3524:	3c010000 	lui	at,0x0
    3528:	c4320000 	lwc1	$f18,0(at)
    352c:	468042a0 	cvt.s.w	$f10,$f8
    3530:	46125382 	mul.s	$f14,$f10,$f18
    3534:	1000000e 	b	3570 <func_80046CB4+0xac>
    3538:	afa3001c 	sw	v1,28(sp)
    353c:	8d6b0000 	lw	t3,0(t3)
    3540:	3c010000 	lui	at,0x0
    3544:	c4280000 	lwc1	$f8,0(at)
    3548:	856c01f4 	lh	t4,500(t3)
    354c:	24af8001 	addiu	t7,a1,-32767
    3550:	00cf1823 	subu	v1,a2,t7
    3554:	448c2000 	mtc1	t4,$f4
    3558:	00031c00 	sll	v1,v1,0x10
    355c:	00031c03 	sra	v1,v1,0x10
    3560:	468021a0 	cvt.s.w	$f6,$f4
    3564:	46083382 	mul.s	$f14,$f6,$f8
    3568:	00000000 	nop
    356c:	afa3001c 	sw	v1,28(sp)
    3570:	0c000000 	jal	0 <func_800437F0>
    3574:	a7a5003e 	sh	a1,62(sp)
    3578:	3c013f80 	lui	at,0x3f80
    357c:	44815000 	mtc1	at,$f10
    3580:	c7a40048 	lwc1	$f4,72(sp)
    3584:	44806000 	mtc1	zero,$f12
    3588:	46005481 	sub.s	$f18,$f10,$f0
    358c:	8fa3001c 	lw	v1,28(sp)
    3590:	87a5003e 	lh	a1,62(sp)
    3594:	8fb80038 	lw	t8,56(sp)
    3598:	46049182 	mul.s	$f6,$f18,$f4
    359c:	46003400 	add.s	$f16,$f6,$f0
    35a0:	460c803c 	c.lt.s	$f16,$f12
    35a4:	00000000 	nop
    35a8:	45020003 	bc1fl	35b8 <func_80046CB4+0xf4>
    35ac:	3c013f00 	lui	at,0x3f00
    35b0:	46006406 	mov.s	$f16,$f12
    35b4:	3c013f00 	lui	at,0x3f00
    35b8:	c70e00e0 	lwc1	$f14,224(t8)
    35bc:	44816000 	mtc1	at,$f12
    35c0:	e7b00034 	swc1	$f16,52(sp)
    35c4:	a7a5003e 	sh	a1,62(sp)
    35c8:	0c000000 	jal	0 <func_800437F0>
    35cc:	afa3001c 	sw	v1,28(sp)
    35d0:	8fb90038 	lw	t9,56(sp)
    35d4:	3c013f80 	lui	at,0x3f80
    35d8:	8fa3001c 	lw	v1,28(sp)
    35dc:	44814000 	mtc1	at,$f8
    35e0:	c72a00c8 	lwc1	$f10,200(t9)
    35e4:	44839000 	mtc1	v1,$f18
    35e8:	c7b00034 	lwc1	$f16,52(sp)
    35ec:	460a4083 	div.s	$f2,$f8,$f10
    35f0:	87a5003e 	lh	a1,62(sp)
    35f4:	8fbf0014 	lw	ra,20(sp)
    35f8:	27bd0038 	addiu	sp,sp,56
    35fc:	46809120 	cvt.s.w	$f4,$f18
    3600:	46102182 	mul.s	$f6,$f4,$f16
    3604:	00000000 	nop
    3608:	46003202 	mul.s	$f8,$f6,$f0
    360c:	00000000 	nop
    3610:	46024282 	mul.s	$f10,$f8,$f2
    3614:	4600548d 	trunc.w.s	$f18,$f10
    3618:	440b9000 	mfc1	t3,$f18
    361c:	00000000 	nop
    3620:	00ab1021 	addu	v0,a1,t3
    3624:	00021400 	sll	v0,v0,0x10
    3628:	03e00008 	jr	ra
    362c:	00021403 	sra	v0,v0,0x10

00003630 <func_80046E20>:
    3630:	27bdff90 	addiu	sp,sp,-112
    3634:	afb10024 	sw	s1,36(sp)
    3638:	8fb10084 	lw	s1,132(sp)
    363c:	afbf002c 	sw	ra,44(sp)
    3640:	afb20028 	sw	s2,40(sp)
    3644:	afb00020 	sw	s0,32(sp)
    3648:	afa50074 	sw	a1,116(sp)
    364c:	afa60078 	sw	a2,120(sp)
    3650:	afa7007c 	sw	a3,124(sp)
    3654:	86220018 	lh	v0,24(s1)
    3658:	3c100000 	lui	s0,0x0
    365c:	26100000 	addiu	s0,s0,0
    3660:	3c060000 	lui	a2,0x0
    3664:	2c420001 	sltiu	v0,v0,1
    3668:	00809025 	move	s2,a0
    366c:	afa20010 	sw	v0,16(sp)
    3670:	24c60000 	addiu	a2,a2,0
    3674:	0c000000 	jal	0 <func_800437F0>
    3678:	02003825 	move	a3,s0
    367c:	24010001 	li	at,1
    3680:	1041000a 	beq	v0,at,36ac <func_80046E20+0x7c>
    3684:	02202025 	move	a0,s1
    3688:	24010002 	li	at,2
    368c:	10410007 	beq	v0,at,36ac <func_80046E20+0x7c>
    3690:	24010003 	li	at,3
    3694:	104100bc 	beq	v0,at,3988 <func_80046E20+0x358>
    3698:	24010006 	li	at,6
    369c:	504100bb 	beql	v0,at,398c <func_80046E20+0x35c>
    36a0:	862d0018 	lh	t5,24(s1)
    36a4:	10000116 	b	3b00 <func_80046E20+0x4d0>
    36a8:	3c0e0000 	lui	t6,0x0
    36ac:	26450050 	addiu	a1,s2,80
    36b0:	26460074 	addiu	a2,s2,116
    36b4:	3c070000 	lui	a3,0x0
    36b8:	24e70000 	addiu	a3,a3,0
    36bc:	afa60030 	sw	a2,48(sp)
    36c0:	afa50034 	sw	a1,52(sp)
    36c4:	0c000000 	jal	0 <func_800437F0>
    36c8:	afb00010 	sw	s0,16(sp)
    36cc:	3c010000 	lui	at,0x0
    36d0:	c4240000 	lwc1	$f4,0(at)
    36d4:	3c010000 	lui	at,0x0
    36d8:	c4260000 	lwc1	$f6,0(at)
    36dc:	c62a0000 	lwc1	$f10,0(s1)
    36e0:	3c010000 	lui	at,0x0
    36e4:	46062200 	add.s	$f8,$f4,$f6
    36e8:	c4320000 	lwc1	$f18,0(at)
    36ec:	3c010000 	lui	at,0x0
    36f0:	c4240000 	lwc1	$f4,0(at)
    36f4:	46085400 	add.s	$f16,$f10,$f8
    36f8:	3c010000 	lui	at,0x0
    36fc:	3c050000 	lui	a1,0x0
    3700:	46049180 	add.s	$f6,$f18,$f4
    3704:	e7b00058 	swc1	$f16,88(sp)
    3708:	c62a0004 	lwc1	$f10,4(s1)
    370c:	c4300000 	lwc1	$f16,0(at)
    3710:	3c010000 	lui	at,0x0
    3714:	46065200 	add.s	$f8,$f10,$f6
    3718:	c4320000 	lwc1	$f18,0(at)
    371c:	24a50000 	addiu	a1,a1,0
    3720:	8fa40034 	lw	a0,52(sp)
    3724:	46128100 	add.s	$f4,$f16,$f18
    3728:	e7a8005c 	swc1	$f8,92(sp)
    372c:	c62a0008 	lwc1	$f10,8(s1)
    3730:	46045180 	add.s	$f6,$f10,$f4
    3734:	0c000000 	jal	0 <func_800437F0>
    3738:	e7a60060 	swc1	$f6,96(sp)
    373c:	c7a20078 	lwc1	$f2,120(sp)
    3740:	3c013f80 	lui	at,0x3f80
    3744:	8fae0080 	lw	t6,128(sp)
    3748:	4600103c 	c.lt.s	$f2,$f0
    374c:	3c180000 	lui	t8,0x0
    3750:	45020005 	bc1fl	3768 <func_80046E20+0x138>
    3754:	46020403 	div.s	$f16,$f0,$f2
    3758:	44814000 	mtc1	at,$f8
    375c:	10000004 	b	3770 <func_80046E20+0x140>
    3760:	e5c80000 	swc1	$f8,0(t6)
    3764:	46020403 	div.s	$f16,$f0,$f2
    3768:	8faf0080 	lw	t7,128(sp)
    376c:	e5f00000 	swc1	$f16,0(t7)
    3770:	8f180000 	lw	t8,0(t8)
    3774:	3c010000 	lui	at,0x0
    3778:	c4240000 	lwc1	$f4,0(at)
    377c:	871901a8 	lh	t9,424(t8)
    3780:	24080001 	li	t0,1
    3784:	a6280018 	sh	t0,24(s1)
    3788:	44999000 	mtc1	t9,$f18
    378c:	3c090000 	lui	t1,0x0
    3790:	27a40048 	addiu	a0,sp,72
    3794:	468092a0 	cvt.s.w	$f10,$f18
    3798:	27a60058 	addiu	a2,sp,88
    379c:	46045182 	mul.s	$f6,$f10,$f4
    37a0:	e6260010 	swc1	$f6,16(s1)
    37a4:	8d290000 	lw	t1,0(t1)
    37a8:	ae29000c 	sw	t1,12(s1)
    37ac:	0c000000 	jal	0 <func_800437F0>
    37b0:	8fa50034 	lw	a1,52(sp)
    37b4:	8faa0074 	lw	t2,116(sp)
    37b8:	2650005c 	addiu	s0,s2,92
    37bc:	02002025 	move	a0,s0
    37c0:	c5480000 	lwc1	$f8,0(t2)
    37c4:	8fa50034 	lw	a1,52(sp)
    37c8:	27a60048 	addiu	a2,sp,72
    37cc:	0c000000 	jal	0 <func_800437F0>
    37d0:	e7a80048 	swc1	$f8,72(sp)
    37d4:	8e0c0000 	lw	t4,0(s0)
    37d8:	3c060000 	lui	a2,0x0
    37dc:	24c60000 	addiu	a2,a2,0
    37e0:	accc0000 	sw	t4,0(a2)
    37e4:	8e0b0004 	lw	t3,4(s0)
    37e8:	02402025 	move	a0,s2
    37ec:	8fa50034 	lw	a1,52(sp)
    37f0:	accb0004 	sw	t3,4(a2)
    37f4:	8e0c0008 	lw	t4,8(s0)
    37f8:	0c000000 	jal	0 <func_800437F0>
    37fc:	accc0008 	sw	t4,8(a2)
    3800:	3c060000 	lui	a2,0x0
    3804:	1440004b 	bnez	v0,3934 <func_80046E20+0x304>
    3808:	24c60000 	addiu	a2,a2,0
    380c:	8fa20074 	lw	v0,116(sp)
    3810:	87ae004e 	lh	t6,78(sp)
    3814:	87ab004c 	lh	t3,76(sp)
    3818:	844d0006 	lh	t5,6(v0)
    381c:	02002025 	move	a0,s0
    3820:	8fa50034 	lw	a1,52(sp)
    3824:	01ae7823 	subu	t7,t5,t6
    3828:	000fc400 	sll	t8,t7,0x10
    382c:	0018cc03 	sra	t9,t8,0x10
    3830:	00194043 	sra	t0,t9,0x1
    3834:	01c84821 	addu	t1,t6,t0
    3838:	a7a9004e 	sh	t1,78(sp)
    383c:	844a0004 	lh	t2,4(v0)
    3840:	27a60048 	addiu	a2,sp,72
    3844:	014b6023 	subu	t4,t2,t3
    3848:	000c6c00 	sll	t5,t4,0x10
    384c:	000d7c03 	sra	t7,t5,0x10
    3850:	000fc043 	sra	t8,t7,0x1
    3854:	0178c821 	addu	t9,t3,t8
    3858:	0c000000 	jal	0 <func_800437F0>
    385c:	a7b9004c 	sh	t9,76(sp)
    3860:	3c0e0000 	lui	t6,0x0
    3864:	85ce0000 	lh	t6,0(t6)
    3868:	87a8004e 	lh	t0,78(sp)
    386c:	8faa0074 	lw	t2,116(sp)
    3870:	29c12aa8 	slti	at,t6,10920
    3874:	50200006 	beqzl	at,3890 <func_80046E20+0x260>
    3878:	854c0006 	lh	t4,6(t2)
    387c:	a6280016 	sh	t0,22(s1)
    3880:	87a9004c 	lh	t1,76(sp)
    3884:	10000006 	b	38a0 <func_80046E20+0x270>
    3888:	a6290014 	sh	t1,20(s1)
    388c:	854c0006 	lh	t4,6(t2)
    3890:	a62c0016 	sh	t4,22(s1)
    3894:	8fad0074 	lw	t5,116(sp)
    3898:	85af0004 	lh	t7,4(t5)
    389c:	a62f0014 	sh	t7,20(s1)
    38a0:	3c010000 	lui	at,0x0
    38a4:	c4300000 	lwc1	$f16,0(at)
    38a8:	3c010000 	lui	at,0x0
    38ac:	c4320000 	lwc1	$f18,0(at)
    38b0:	c6240000 	lwc1	$f4,0(s1)
    38b4:	3c010000 	lui	at,0x0
    38b8:	46128280 	add.s	$f10,$f16,$f18
    38bc:	c4280000 	lwc1	$f8,0(at)
    38c0:	3c010000 	lui	at,0x0
    38c4:	c4300000 	lwc1	$f16,0(at)
    38c8:	460a2181 	sub.s	$f6,$f4,$f10
    38cc:	3c010000 	lui	at,0x0
    38d0:	27a40048 	addiu	a0,sp,72
    38d4:	46104480 	add.s	$f18,$f8,$f16
    38d8:	e7a60058 	swc1	$f6,88(sp)
    38dc:	c6240004 	lwc1	$f4,4(s1)
    38e0:	c4260000 	lwc1	$f6,0(at)
    38e4:	3c010000 	lui	at,0x0
    38e8:	46122281 	sub.s	$f10,$f4,$f18
    38ec:	c4280000 	lwc1	$f8,0(at)
    38f0:	8fa50034 	lw	a1,52(sp)
    38f4:	27a60058 	addiu	a2,sp,88
    38f8:	46083400 	add.s	$f16,$f6,$f8
    38fc:	e7aa005c 	swc1	$f10,92(sp)
    3900:	c6240008 	lwc1	$f4,8(s1)
    3904:	46102481 	sub.s	$f18,$f4,$f16
    3908:	0c000000 	jal	0 <func_800437F0>
    390c:	e7b20060 	swc1	$f18,96(sp)
    3910:	8fab0074 	lw	t3,116(sp)
    3914:	8fa40030 	lw	a0,48(sp)
    3918:	8fa50034 	lw	a1,52(sp)
    391c:	c56a0000 	lwc1	$f10,0(t3)
    3920:	27a60048 	addiu	a2,sp,72
    3924:	0c000000 	jal	0 <func_800437F0>
    3928:	e7aa0048 	swc1	$f10,72(sp)
    392c:	10000098 	b	3b90 <func_80046E20+0x560>
    3930:	8fbf002c 	lw	ra,44(sp)
    3934:	8cd90000 	lw	t9,0(a2)
    3938:	3c0e0000 	lui	t6,0x0
    393c:	25ce0000 	addiu	t6,t6,0
    3940:	ae190000 	sw	t9,0(s0)
    3944:	8cd80004 	lw	t8,4(a2)
    3948:	00c05025 	move	t2,a2
    394c:	24cc0024 	addiu	t4,a2,36
    3950:	ae180004 	sw	t8,4(s0)
    3954:	8cd90008 	lw	t9,8(a2)
    3958:	ae190008 	sw	t9,8(s0)
    395c:	8d490000 	lw	t1,0(t2)
    3960:	254a000c 	addiu	t2,t2,12
    3964:	25ce000c 	addiu	t6,t6,12
    3968:	adc9fff4 	sw	t1,-12(t6)
    396c:	8d48fff8 	lw	t0,-8(t2)
    3970:	adc8fff8 	sw	t0,-8(t6)
    3974:	8d49fffc 	lw	t1,-4(t2)
    3978:	154cfff8 	bne	t2,t4,395c <func_80046E20+0x32c>
    397c:	adc9fffc 	sw	t1,-4(t6)
    3980:	8d490000 	lw	t1,0(t2)
    3984:	adc90000 	sw	t1,0(t6)
    3988:	862d0018 	lh	t5,24(s1)
    398c:	2650005c 	addiu	s0,s2,92
    3990:	26440050 	addiu	a0,s2,80
    3994:	11a0000c 	beqz	t5,39c8 <func_80046E20+0x398>
    3998:	3c050000 	lui	a1,0x0
    399c:	3c0f0000 	lui	t7,0x0
    39a0:	8def0000 	lw	t7,0(t7)
    39a4:	85eb01fc 	lh	t3,508(t7)
    39a8:	a6200018 	sh	zero,24(s1)
    39ac:	a62b001a 	sh	t3,26(s1)
    39b0:	8e190000 	lw	t9,0(s0)
    39b4:	ae590074 	sw	t9,116(s2)
    39b8:	8e180004 	lw	t8,4(s0)
    39bc:	ae580078 	sw	t8,120(s2)
    39c0:	8e190008 	lw	t9,8(s0)
    39c4:	ae59007c 	sw	t9,124(s2)
    39c8:	0c000000 	jal	0 <func_800437F0>
    39cc:	24a50000 	addiu	a1,a1,0
    39d0:	c7ac0078 	lwc1	$f12,120(sp)
    39d4:	46000086 	mov.s	$f2,$f0
    39d8:	3c013f80 	lui	at,0x3f80
    39dc:	4600603c 	c.lt.s	$f12,$f0
    39e0:	8fac0080 	lw	t4,128(sp)
    39e4:	45020005 	bc1fl	39fc <func_80046E20+0x3cc>
    39e8:	460c0203 	div.s	$f8,$f0,$f12
    39ec:	44813000 	mtc1	at,$f6
    39f0:	10000004 	b	3a04 <func_80046E20+0x3d4>
    39f4:	e5860000 	swc1	$f6,0(t4)
    39f8:	460c0203 	div.s	$f8,$f0,$f12
    39fc:	8faa0080 	lw	t2,128(sp)
    3a00:	e5480000 	swc1	$f8,0(t2)
    3a04:	8fae0080 	lw	t6,128(sp)
    3a08:	c7b0007c 	lwc1	$f16,124(sp)
    3a0c:	3c050000 	lui	a1,0x0
    3a10:	c5c40000 	lwc1	$f4,0(t6)
    3a14:	3c060000 	lui	a2,0x0
    3a18:	24c60000 	addiu	a2,a2,0
    3a1c:	46102482 	mul.s	$f18,$f4,$f16
    3a20:	24a50000 	addiu	a1,a1,0
    3a24:	02002025 	move	a0,s0
    3a28:	3c073f80 	lui	a3,0x3f80
    3a2c:	e6320010 	swc1	$f18,16(s1)
    3a30:	0c000000 	jal	0 <func_800437F0>
    3a34:	e7a20050 	swc1	$f2,80(sp)
    3a38:	c7a20050 	lwc1	$f2,80(sp)
    3a3c:	ae20000c 	sw	zero,12(s1)
    3a40:	3c080000 	lui	t0,0x0
    3a44:	8d080000 	lw	t0,0(t0)
    3a48:	8fad0074 	lw	t5,116(sp)
    3a4c:	3c040000 	lui	a0,0x0
    3a50:	850901be 	lh	t1,446(t0)
    3a54:	44895000 	mtc1	t1,$f10
    3a58:	00000000 	nop
    3a5c:	468051a0 	cvt.s.w	$f6,$f10
    3a60:	4606103c 	c.lt.s	$f2,$f6
    3a64:	00000000 	nop
    3a68:	45020049 	bc1fl	3b90 <func_80046E20+0x560>
    3a6c:	8fbf002c 	lw	ra,44(sp)
    3a70:	84840000 	lh	a0,0(a0)
    3a74:	85af0006 	lh	t7,6(t5)
    3a78:	e7a20050 	swc1	$f2,80(sp)
    3a7c:	24843fff 	addiu	a0,a0,16383
    3a80:	00042400 	sll	a0,a0,0x10
    3a84:	00042403 	sra	a0,a0,0x10
    3a88:	0c000000 	jal	0 <func_800437F0>
    3a8c:	a7af0046 	sh	t7,70(sp)
    3a90:	3c010000 	lui	at,0x0
    3a94:	c4280000 	lwc1	$f8,0(at)
    3a98:	3c020000 	lui	v0,0x0
    3a9c:	8c420000 	lw	v0,0(v0)
    3aa0:	46080102 	mul.s	$f4,$f0,$f8
    3aa4:	3c010000 	lui	at,0x0
    3aa8:	c4260000 	lwc1	$f6,0(at)
    3aac:	c7a20050 	lwc1	$f2,80(sp)
    3ab0:	02002025 	move	a0,s0
    3ab4:	02002825 	move	a1,s0
    3ab8:	27a60040 	addiu	a2,sp,64
    3abc:	4600240d 	trunc.w.s	$f16,$f4
    3ac0:	44188000 	mfc1	t8,$f16
    3ac4:	00000000 	nop
    3ac8:	a7b80044 	sh	t8,68(sp)
    3acc:	845901c0 	lh	t9,448(v0)
    3ad0:	844c01be 	lh	t4,446(v0)
    3ad4:	44999000 	mtc1	t9,$f18
    3ad8:	448c2000 	mtc1	t4,$f4
    3adc:	468092a0 	cvt.s.w	$f10,$f18
    3ae0:	46802420 	cvt.s.w	$f16,$f4
    3ae4:	46065202 	mul.s	$f8,$f10,$f6
    3ae8:	46028481 	sub.s	$f18,$f16,$f2
    3aec:	46124282 	mul.s	$f10,$f8,$f18
    3af0:	0c000000 	jal	0 <func_800437F0>
    3af4:	e7aa0040 	swc1	$f10,64(sp)
    3af8:	10000025 	b	3b90 <func_80046E20+0x560>
    3afc:	8fbf002c 	lw	ra,44(sp)
    3b00:	862a0018 	lh	t2,24(s1)
    3b04:	5140000c 	beqzl	t2,3b38 <func_80046E20+0x508>
    3b08:	c7a6007c 	lwc1	$f6,124(sp)
    3b0c:	8dce0000 	lw	t6,0(t6)
    3b10:	85c801fc 	lh	t0,508(t6)
    3b14:	a628001a 	sh	t0,26(s1)
    3b18:	8e4d005c 	lw	t5,92(s2)
    3b1c:	8e490060 	lw	t1,96(s2)
    3b20:	ae4d0074 	sw	t5,116(s2)
    3b24:	8e4d0064 	lw	t5,100(s2)
    3b28:	ae490078 	sw	t1,120(s2)
    3b2c:	ae4d007c 	sw	t5,124(s2)
    3b30:	a6200018 	sh	zero,24(s1)
    3b34:	c7a6007c 	lwc1	$f6,124(sp)
    3b38:	ae20000c 	sw	zero,12(s1)
    3b3c:	3c010000 	lui	at,0x0
    3b40:	e6260010 	swc1	$f6,16(s1)
    3b44:	c4240000 	lwc1	$f4,0(at)
    3b48:	3c010000 	lui	at,0x0
    3b4c:	c4300000 	lwc1	$f16,0(at)
    3b50:	2650005c 	addiu	s0,s2,92
    3b54:	3c010000 	lui	at,0x0
    3b58:	46102200 	add.s	$f8,$f4,$f16
    3b5c:	e6080000 	swc1	$f8,0(s0)
    3b60:	c4320000 	lwc1	$f18,0(at)
    3b64:	3c010000 	lui	at,0x0
    3b68:	c42a0000 	lwc1	$f10,0(at)
    3b6c:	3c010000 	lui	at,0x0
    3b70:	460a9180 	add.s	$f6,$f18,$f10
    3b74:	e6060004 	swc1	$f6,4(s0)
    3b78:	c4240000 	lwc1	$f4,0(at)
    3b7c:	3c010000 	lui	at,0x0
    3b80:	c4300000 	lwc1	$f16,0(at)
    3b84:	46102200 	add.s	$f8,$f4,$f16
    3b88:	e6080008 	swc1	$f8,8(s0)
    3b8c:	8fbf002c 	lw	ra,44(sp)
    3b90:	8fb00020 	lw	s0,32(sp)
    3b94:	8fb10024 	lw	s1,36(sp)
    3b98:	8fb20028 	lw	s2,40(sp)
    3b9c:	03e00008 	jr	ra
    3ba0:	27bd0070 	addiu	sp,sp,112

00003ba4 <func_80047394>:
    3ba4:	afa40000 	sw	a0,0(sp)
    3ba8:	03e00008 	jr	ra
    3bac:	24020001 	li	v0,1

00003bb0 <Camera_Normal1>:
    3bb0:	27bdff50 	addiu	sp,sp,-176
    3bb4:	afb0001c 	sw	s0,28(sp)
    3bb8:	00808025 	move	s0,a0
    3bbc:	afbf0024 	sw	ra,36(sp)
    3bc0:	afb10020 	sw	s1,32(sp)
    3bc4:	0c000000 	jal	0 <func_800437F0>
    3bc8:	8c840090 	lw	a0,144(a0)
    3bcc:	8602015e 	lh	v0,350(s0)
    3bd0:	2401000a 	li	at,10
    3bd4:	3c0b0000 	lui	t3,0x0
    3bd8:	10400009 	beqz	v0,3c00 <Camera_Normal1+0x50>
    3bdc:	00000000 	nop
    3be0:	10410007 	beq	v0,at,3c00 <Camera_Normal1+0x50>
    3be4:	24010014 	li	at,20
    3be8:	10410005 	beq	v0,at,3c00 <Camera_Normal1+0x50>
    3bec:	3c0e0000 	lui	t6,0x0
    3bf0:	8dce0000 	lw	t6,0(t6)
    3bf4:	85c30314 	lh	v1,788(t6)
    3bf8:	1060005b 	beqz	v1,3d68 <Camera_Normal1+0x1b8>
    3bfc:	00000000 	nop
    3c00:	8d6b0000 	lw	t3,0(t3)
    3c04:	3c010000 	lui	at,0x0
    3c08:	c4300000 	lwc1	$f16,0(at)
    3c0c:	856c01f0 	lh	t4,496(t3)
    3c10:	3c013f80 	lui	at,0x3f80
    3c14:	44814000 	mtc1	at,$f8
    3c18:	448c2000 	mtc1	t4,$f4
    3c1c:	3c014288 	lui	at,0x4288
    3c20:	860f0142 	lh	t7,322(s0)
    3c24:	468021a0 	cvt.s.w	$f6,$f4
    3c28:	44812000 	mtc1	at,$f4
    3c2c:	3c190000 	lui	t9,0x0
    3c30:	000fc0c0 	sll	t8,t7,0x3
    3c34:	86080144 	lh	t0,324(s0)
    3c38:	0338c821 	addu	t9,t9,t8
    3c3c:	46103302 	mul.s	$f12,$f6,$f16
    3c40:	46002183 	div.s	$f6,$f4,$f0
    3c44:	8f390004 	lw	t9,4(t9)
    3c48:	000848c0 	sll	t1,t0,0x3
    3c4c:	3c010000 	lui	at,0x0
    3c50:	03295021 	addu	t2,t9,t1
    3c54:	8d420004 	lw	v0,4(t2)
    3c58:	460c4280 	add.s	$f10,$f8,$f12
    3c5c:	844d0000 	lh	t5,0(v0)
    3c60:	24420024 	addiu	v0,v0,36
    3c64:	46066202 	mul.s	$f8,$f12,$f6
    3c68:	448d3000 	mtc1	t5,$f6
    3c6c:	46100102 	mul.s	$f4,$f0,$f16
    3c70:	46085381 	sub.s	$f14,$f10,$f8
    3c74:	468032a0 	cvt.s.w	$f10,$f6
    3c78:	460e2082 	mul.s	$f2,$f4,$f14
    3c7c:	00000000 	nop
    3c80:	46025202 	mul.s	$f8,$f10,$f2
    3c84:	e6080000 	swc1	$f8,0(s0)
    3c88:	844effe0 	lh	t6,-32(v0)
    3c8c:	448e2000 	mtc1	t6,$f4
    3c90:	00000000 	nop
    3c94:	468021a0 	cvt.s.w	$f6,$f4
    3c98:	46023282 	mul.s	$f10,$f6,$f2
    3c9c:	e60a0004 	swc1	$f10,4(s0)
    3ca0:	844fffe4 	lh	t7,-28(v0)
    3ca4:	448f4000 	mtc1	t7,$f8
    3ca8:	3c0f0000 	lui	t7,0x0
    3cac:	46804120 	cvt.s.w	$f4,$f8
    3cb0:	46022182 	mul.s	$f6,$f4,$f2
    3cb4:	e6060008 	swc1	$f6,8(s0)
    3cb8:	8458ffe8 	lh	t8,-24(v0)
    3cbc:	c4240000 	lwc1	$f4,0(at)
    3cc0:	3c013f00 	lui	at,0x3f00
    3cc4:	44985000 	mtc1	t8,$f10
    3cc8:	00000000 	nop
    3ccc:	46805220 	cvt.s.w	$f8,$f10
    3cd0:	44815000 	mtc1	at,$f10
    3cd4:	46044182 	mul.s	$f6,$f8,$f4
    3cd8:	460a3200 	add.s	$f8,$f6,$f10
    3cdc:	4600410d 	trunc.w.s	$f4,$f8
    3ce0:	44192000 	mfc1	t9,$f4
    3ce4:	00000000 	nop
    3ce8:	a6190020 	sh	t9,32(s0)
    3cec:	8449ffec 	lh	t1,-20(v0)
    3cf0:	44893000 	mtc1	t1,$f6
    3cf4:	00000000 	nop
    3cf8:	468032a0 	cvt.s.w	$f10,$f6
    3cfc:	e60a000c 	swc1	$f10,12(s0)
    3d00:	844afff0 	lh	t2,-16(v0)
    3d04:	448a4000 	mtc1	t2,$f8
    3d08:	00000000 	nop
    3d0c:	46804120 	cvt.s.w	$f4,$f8
    3d10:	e6040010 	swc1	$f4,16(s0)
    3d14:	844bfff4 	lh	t3,-12(v0)
    3d18:	448b3000 	mtc1	t3,$f6
    3d1c:	00000000 	nop
    3d20:	468032a0 	cvt.s.w	$f10,$f6
    3d24:	46105202 	mul.s	$f8,$f10,$f16
    3d28:	e6080014 	swc1	$f8,20(s0)
    3d2c:	844cfff8 	lh	t4,-8(v0)
    3d30:	448c2000 	mtc1	t4,$f4
    3d34:	00000000 	nop
    3d38:	468021a0 	cvt.s.w	$f6,$f4
    3d3c:	e6060018 	swc1	$f6,24(s0)
    3d40:	844dfffc 	lh	t5,-4(v0)
    3d44:	448d5000 	mtc1	t5,$f10
    3d48:	00000000 	nop
    3d4c:	46805220 	cvt.s.w	$f8,$f10
    3d50:	46104102 	mul.s	$f4,$f8,$f16
    3d54:	e604001c 	swc1	$f4,28(s0)
    3d58:	844e0000 	lh	t6,0(v0)
    3d5c:	a60e0022 	sh	t6,34(s0)
    3d60:	8def0000 	lw	t7,0(t7)
    3d64:	85e30314 	lh	v1,788(t7)
    3d68:	50600004 	beqzl	v1,3d7c <Camera_Normal1+0x1cc>
    3d6c:	86180022 	lh	t8,34(s0)
    3d70:	0c000000 	jal	0 <func_800437F0>
    3d74:	02002025 	move	a0,s0
    3d78:	86180022 	lh	t8,34(s0)
    3d7c:	3c010000 	lui	at,0x0
    3d80:	26050050 	addiu	a1,s0,80
    3d84:	2606005c 	addiu	a2,s0,92
    3d88:	afa60040 	sw	a2,64(sp)
    3d8c:	afa5003c 	sw	a1,60(sp)
    3d90:	27a40074 	addiu	a0,sp,116
    3d94:	0c000000 	jal	0 <func_800437F0>
    3d98:	ac380000 	sw	t8,0(at)
    3d9c:	26060074 	addiu	a2,s0,116
    3da0:	afa60038 	sw	a2,56(sp)
    3da4:	27a4006c 	addiu	a0,sp,108
    3da8:	0c000000 	jal	0 <func_800437F0>
    3dac:	8fa5003c 	lw	a1,60(sp)
    3db0:	8603015e 	lh	v1,350(s0)
    3db4:	2401000a 	li	at,10
    3db8:	26110024 	addiu	s1,s0,36
    3dbc:	10600017 	beqz	v1,3e1c <Camera_Normal1+0x26c>
    3dc0:	240b000a 	li	t3,10
    3dc4:	10610015 	beq	v1,at,3e1c <Camera_Normal1+0x26c>
    3dc8:	24010014 	li	at,20
    3dcc:	10610006 	beq	v1,at,3de8 <Camera_Normal1+0x238>
    3dd0:	3c080000 	lui	t0,0x0
    3dd4:	24010019 	li	at,25
    3dd8:	50610011 	beql	v1,at,3e20 <Camera_Normal1+0x270>
    3ddc:	a6200018 	sh	zero,24(s1)
    3de0:	10000026 	b	3e7c <Camera_Normal1+0x2cc>
    3de4:	26110024 	addiu	s1,s0,36
    3de8:	8d080000 	lw	t0,0(t0)
    3dec:	3c090000 	lui	t1,0x0
    3df0:	851901ca 	lh	t9,458(t0)
    3df4:	44993000 	mtc1	t9,$f6
    3df8:	00000000 	nop
    3dfc:	468032a0 	cvt.s.w	$f10,$f6
    3e00:	e60a00c8 	swc1	$f10,200(s0)
    3e04:	8d290000 	lw	t1,0(t1)
    3e08:	852a01ca 	lh	t2,458(t1)
    3e0c:	448a4000 	mtc1	t2,$f8
    3e10:	00000000 	nop
    3e14:	46804120 	cvt.s.w	$f4,$f8
    3e18:	e60400c4 	swc1	$f4,196(s0)
    3e1c:	a6200018 	sh	zero,24(s1)
    3e20:	86230018 	lh	v1,24(s1)
    3e24:	ae20000c 	sw	zero,12(s1)
    3e28:	a6200024 	sh	zero,36(s1)
    3e2c:	a62b0028 	sh	t3,40(s1)
    3e30:	a6230014 	sh	v1,20(s1)
    3e34:	a6230016 	sh	v1,22(s1)
    3e38:	c606000c 	lwc1	$f6,12(s0)
    3e3c:	3c020000 	lui	v0,0x0
    3e40:	3c010000 	lui	at,0x0
    3e44:	e6260010 	swc1	$f6,16(s1)
    3e48:	c60a0098 	lwc1	$f10,152(s0)
    3e4c:	e62a001c 	swc1	$f10,28(s1)
    3e50:	c60800d8 	lwc1	$f8,216(s0)
    3e54:	a620001a 	sh	zero,26(s1)
    3e58:	e6280020 	swc1	$f8,32(s1)
    3e5c:	87ac007a 	lh	t4,122(sp)
    3e60:	a62c0026 	sh	t4,38(s1)
    3e64:	8c420000 	lw	v0,0(v0)
    3e68:	ac200000 	sw	zero,0(at)
    3e6c:	844e01f8 	lh	t6,504(v0)
    3e70:	844d01fa 	lh	t5,506(v0)
    3e74:	01ae7821 	addu	t7,t5,t6
    3e78:	a62f002a 	sh	t7,42(s1)
    3e7c:	24030001 	li	v1,1
    3e80:	a603015e 	sh	v1,350(s0)
    3e84:	3c010000 	lui	at,0x0
    3e88:	ac230000 	sw	v1,0(at)
    3e8c:	86220028 	lh	v0,40(s1)
    3e90:	3c010000 	lui	at,0x0
    3e94:	10400002 	beqz	v0,3ea0 <Camera_Normal1+0x2f0>
    3e98:	2458ffff 	addiu	t8,v0,-1
    3e9c:	a6380028 	sh	t8,40(s1)
    3ea0:	c4240000 	lwc1	$f4,0(at)
    3ea4:	c60600d8 	lwc1	$f6,216(s0)
    3ea8:	4606203c 	c.lt.s	$f4,$f6
    3eac:	00000000 	nop
    3eb0:	4502000a 	bc1fl	3edc <Camera_Normal1+0x32c>
    3eb4:	8622002a 	lh	v0,42(s1)
    3eb8:	3c030000 	lui	v1,0x0
    3ebc:	24630000 	addiu	v1,v1,0
    3ec0:	8c620000 	lw	v0,0(v1)
    3ec4:	844801fa 	lh	t0,506(v0)
    3ec8:	845901f8 	lh	t9,504(v0)
    3ecc:	01194821 	addu	t1,t0,t9
    3ed0:	10000020 	b	3f54 <Camera_Normal1+0x3a4>
    3ed4:	a629002a 	sh	t1,42(s1)
    3ed8:	8622002a 	lh	v0,42(s1)
    3edc:	1840001d 	blez	v0,3f54 <Camera_Normal1+0x3a4>
    3ee0:	3c0a0000 	lui	t2,0x0
    3ee4:	8d4a0000 	lw	t2,0(t2)
    3ee8:	854b01f8 	lh	t3,504(t2)
    3eec:	0162082a 	slt	at,t3,v0
    3ef0:	50200017 	beqzl	at,3f50 <Camera_Normal1+0x3a0>
    3ef4:	244cffff 	addiu	t4,v0,-1
    3ef8:	860c00a2 	lh	t4,162(s0)
    3efc:	87b8007a 	lh	t8,122(sp)
    3f00:	258d8001 	addiu	t5,t4,-32767
    3f04:	000d7400 	sll	t6,t5,0x10
    3f08:	000e7c03 	sra	t7,t6,0x10
    3f0c:	01f84023 	subu	t0,t7,t8
    3f10:	0008cc00 	sll	t9,t0,0x10
    3f14:	00194c03 	sra	t1,t9,0x10
    3f18:	0122001a 	div	zero,t1,v0
    3f1c:	00005012 	mflo	t2
    3f20:	030a5821 	addu	t3,t8,t2
    3f24:	a62b0026 	sh	t3,38(s1)
    3f28:	14400002 	bnez	v0,3f34 <Camera_Normal1+0x384>
    3f2c:	00000000 	nop
    3f30:	0007000d 	break	0x7
    3f34:	2401ffff 	li	at,-1
    3f38:	14410004 	bne	v0,at,3f4c <Camera_Normal1+0x39c>
    3f3c:	3c018000 	lui	at,0x8000
    3f40:	15210002 	bne	t1,at,3f4c <Camera_Normal1+0x39c>
    3f44:	00000000 	nop
    3f48:	0006000d 	break	0x6
    3f4c:	244cffff 	addiu	t4,v0,-1
    3f50:	a62c002a 	sh	t4,42(s1)
    3f54:	3c030000 	lui	v1,0x0
    3f58:	24630000 	addiu	v1,v1,0
    3f5c:	8c620000 	lw	v0,0(v1)
    3f60:	3c010000 	lui	at,0x0
    3f64:	c4320000 	lwc1	$f18,0(at)
    3f68:	844d01c6 	lh	t5,454(v0)
    3f6c:	844e01c8 	lh	t6,456(v0)
    3f70:	c60000e0 	lwc1	$f0,224(s0)
    3f74:	448d5000 	mtc1	t5,$f10
    3f78:	448e2000 	mtc1	t6,$f4
    3f7c:	46805220 	cvt.s.w	$f8,$f10
    3f80:	468021a0 	cvt.s.w	$f6,$f4
    3f84:	46124082 	mul.s	$f2,$f8,$f18
    3f88:	00000000 	nop
    3f8c:	46001402 	mul.s	$f16,$f2,$f0
    3f90:	00000000 	nop
    3f94:	46123282 	mul.s	$f10,$f6,$f18
    3f98:	00000000 	nop
    3f9c:	46005202 	mul.s	$f8,$f10,$f0
    3fa0:	e7a8009c 	swc1	$f8,156(sp)
    3fa4:	862f0018 	lh	t7,24(s1)
    3fa8:	11e00003 	beqz	t7,3fb8 <Camera_Normal1+0x408>
    3fac:	00000000 	nop
    3fb0:	10000002 	b	3fbc <Camera_Normal1+0x40c>
    3fb4:	e7a20098 	swc1	$f2,152(sp)
    3fb8:	e7b00098 	swc1	$f16,152(sp)
    3fbc:	c60000d8 	lwc1	$f0,216(s0)
    3fc0:	c6240020 	lwc1	$f4,32(s1)
    3fc4:	3c010000 	lui	at,0x0
    3fc8:	c42a0000 	lwc1	$f10,0(at)
    3fcc:	46040181 	sub.s	$f6,$f0,$f4
    3fd0:	3c013f80 	lui	at,0x3f80
    3fd4:	44814000 	mtc1	at,$f8
    3fd8:	460a3082 	mul.s	$f2,$f6,$f10
    3fdc:	4602403c 	c.lt.s	$f8,$f2
    3fe0:	00000000 	nop
    3fe4:	45000003 	bc1f	3ff4 <Camera_Normal1+0x444>
    3fe8:	3c013f80 	lui	at,0x3f80
    3fec:	44811000 	mtc1	at,$f2
    3ff0:	00000000 	nop
    3ff4:	3c01bf80 	lui	at,0xbf80
    3ff8:	44816000 	mtc1	at,$f12
    3ffc:	00000000 	nop
    4000:	4602603c 	c.lt.s	$f12,$f2
    4004:	00000000 	nop
    4008:	45020003 	bc1fl	4018 <Camera_Normal1+0x468>
    400c:	8622001a 	lh	v0,26(s1)
    4010:	46006086 	mov.s	$f2,$f12
    4014:	8622001a 	lh	v0,26(s1)
    4018:	e6200020 	swc1	$f0,32(s1)
    401c:	10400022 	beqz	v0,40a8 <Camera_Normal1+0x4f8>
    4020:	00024040 	sll	t0,v0,0x1
    4024:	44883000 	mtc1	t0,$f6
    4028:	c6240010 	lwc1	$f4,16(s1)
    402c:	c60e00c8 	lwc1	$f14,200(s0)
    4030:	468032a0 	cvt.s.w	$f10,$f6
    4034:	3c073dcc 	lui	a3,0x3dcc
    4038:	34e7cccd 	ori	a3,a3,0xcccd
    403c:	e7b000a0 	swc1	$f16,160(sp)
    4040:	e7a20094 	swc1	$f2,148(sp)
    4044:	8fa60098 	lw	a2,152(sp)
    4048:	0c000000 	jal	0 <func_800437F0>
    404c:	460a2300 	add.s	$f12,$f4,$f10
    4050:	e60000c8 	swc1	$f0,200(s0)
    4054:	3c190000 	lui	t9,0x0
    4058:	8f390000 	lw	t9,0(t9)
    405c:	8638001a 	lh	t8,26(s1)
    4060:	3c073dcc 	lui	a3,0x3dcc
    4064:	872901a2 	lh	t1,418(t9)
    4068:	00185040 	sll	t2,t8,0x1
    406c:	448a2000 	mtc1	t2,$f4
    4070:	44894000 	mtc1	t1,$f8
    4074:	34e7cccd 	ori	a3,a3,0xcccd
    4078:	468022a0 	cvt.s.w	$f10,$f4
    407c:	8fa6009c 	lw	a2,156(sp)
    4080:	c60e00c4 	lwc1	$f14,196(s0)
    4084:	468041a0 	cvt.s.w	$f6,$f8
    4088:	0c000000 	jal	0 <func_800437F0>
    408c:	460a3300 	add.s	$f12,$f6,$f10
    4090:	c7b000a0 	lwc1	$f16,160(sp)
    4094:	e60000c4 	swc1	$f0,196(s0)
    4098:	862b001a 	lh	t3,26(s1)
    409c:	256cffff 	addiu	t4,t3,-1
    40a0:	10000020 	b	4124 <Camera_Normal1+0x574>
    40a4:	a62c001a 	sh	t4,26(s1)
    40a8:	8c6d0000 	lw	t5,0(v1)
    40ac:	c6200010 	lwc1	$f0,16(s1)
    40b0:	c60e00c8 	lwc1	$f14,200(s0)
    40b4:	85ae01f6 	lh	t6,502(t5)
    40b8:	3c073dcc 	lui	a3,0x3dcc
    40bc:	34e7cccd 	ori	a3,a3,0xcccd
    40c0:	448e4000 	mtc1	t6,$f8
    40c4:	e7b000a0 	swc1	$f16,160(sp)
    40c8:	e7a20094 	swc1	$f2,148(sp)
    40cc:	46804120 	cvt.s.w	$f4,$f8
    40d0:	8fa60098 	lw	a2,152(sp)
    40d4:	46122182 	mul.s	$f6,$f4,$f18
    40d8:	00000000 	nop
    40dc:	46003282 	mul.s	$f10,$f6,$f0
    40e0:	00000000 	nop
    40e4:	46025202 	mul.s	$f8,$f10,$f2
    40e8:	0c000000 	jal	0 <func_800437F0>
    40ec:	46080301 	sub.s	$f12,$f0,$f8
    40f0:	e60000c8 	swc1	$f0,200(s0)
    40f4:	3c0f0000 	lui	t7,0x0
    40f8:	8def0000 	lw	t7,0(t7)
    40fc:	3c073dcc 	lui	a3,0x3dcc
    4100:	34e7cccd 	ori	a3,a3,0xcccd
    4104:	85e801a2 	lh	t0,418(t7)
    4108:	8fa6009c 	lw	a2,156(sp)
    410c:	c60e00c4 	lwc1	$f14,196(s0)
    4110:	44882000 	mtc1	t0,$f4
    4114:	0c000000 	jal	0 <func_800437F0>
    4118:	46802320 	cvt.s.w	$f12,$f4
    411c:	c7b000a0 	lwc1	$f16,160(sp)
    4120:	e60000c4 	swc1	$f0,196(s0)
    4124:	3c190000 	lui	t9,0x0
    4128:	8f390000 	lw	t9,0(t9)
    412c:	c60e00c4 	lwc1	$f14,196(s0)
    4130:	3c073dcc 	lui	a3,0x3dcc
    4134:	872901a2 	lh	t1,418(t9)
    4138:	e7b000a0 	swc1	$f16,160(sp)
    413c:	34e7cccd 	ori	a3,a3,0xcccd
    4140:	44893000 	mtc1	t1,$f6
    4144:	8fa6009c 	lw	a2,156(sp)
    4148:	0c000000 	jal	0 <func_800437F0>
    414c:	46803320 	cvt.s.w	$f12,$f6
    4150:	c7b000a0 	lwc1	$f16,160(sp)
    4154:	e60000c4 	swc1	$f0,196(s0)
    4158:	3c180000 	lui	t8,0x0
    415c:	8f180000 	lw	t8,0(t8)
    4160:	3c010000 	lui	at,0x0
    4164:	c4240000 	lwc1	$f4,0(at)
    4168:	870a0198 	lh	t2,408(t8)
    416c:	3c073dcc 	lui	a3,0x3dcc
    4170:	44068000 	mfc1	a2,$f16
    4174:	448a5000 	mtc1	t2,$f10
    4178:	34e7cccd 	ori	a3,a3,0xcccd
    417c:	c60e00cc 	lwc1	$f14,204(s0)
    4180:	46805220 	cvt.s.w	$f8,$f10
    4184:	46044302 	mul.s	$f12,$f8,$f4
    4188:	0c000000 	jal	0 <func_800437F0>
    418c:	00000000 	nop
    4190:	e60000cc 	swc1	$f0,204(s0)
    4194:	3c0b0000 	lui	t3,0x0
    4198:	8d6b0000 	lw	t3,0(t3)
    419c:	3c010000 	lui	at,0x0
    41a0:	c4280000 	lwc1	$f8,0(at)
    41a4:	856c019a 	lh	t4,410(t3)
    41a8:	3c073dcc 	lui	a3,0x3dcc
    41ac:	34e7cccd 	ori	a3,a3,0xcccd
    41b0:	448c3000 	mtc1	t4,$f6
    41b4:	8fa6009c 	lw	a2,156(sp)
    41b8:	c60e00d0 	lwc1	$f14,208(s0)
    41bc:	468032a0 	cvt.s.w	$f10,$f6
    41c0:	46085302 	mul.s	$f12,$f10,$f8
    41c4:	0c000000 	jal	0 <func_800437F0>
    41c8:	00000000 	nop
    41cc:	e60000d0 	swc1	$f0,208(s0)
    41d0:	3c0d0000 	lui	t5,0x0
    41d4:	8dad0000 	lw	t5,0(t5)
    41d8:	3c010000 	lui	at,0x0
    41dc:	c42a0000 	lwc1	$f10,0(at)
    41e0:	85ae019c 	lh	t6,412(t5)
    41e4:	3c010000 	lui	at,0x0
    41e8:	c60800e0 	lwc1	$f8,224(s0)
    41ec:	448e2000 	mtc1	t6,$f4
    41f0:	3c073dcc 	lui	a3,0x3dcc
    41f4:	34e7cccd 	ori	a3,a3,0xcccd
    41f8:	468021a0 	cvt.s.w	$f6,$f4
    41fc:	c4240000 	lwc1	$f4,0(at)
    4200:	46000386 	mov.s	$f14,$f0
    4204:	460a3302 	mul.s	$f12,$f6,$f10
    4208:	00000000 	nop
    420c:	46044182 	mul.s	$f6,$f8,$f4
    4210:	44063000 	mfc1	a2,$f6
    4214:	0c000000 	jal	0 <func_800437F0>
    4218:	00000000 	nop
    421c:	860f0022 	lh	t7,34(s0)
    4220:	e60000d4 	swc1	$f0,212(s0)
    4224:	31e80001 	andi	t0,t7,0x1
    4228:	5100001e 	beqzl	t0,42a4 <Camera_Normal1+0x6f4>
    422c:	a6200024 	sh	zero,36(s1)
    4230:	87a5007a 	lh	a1,122(sp)
    4234:	02002025 	move	a0,s0
    4238:	00003025 	move	a2,zero
    423c:	24a58001 	addiu	a1,a1,-32767
    4240:	00052c00 	sll	a1,a1,0x10
    4244:	0c000000 	jal	0 <func_800437F0>
    4248:	00052c03 	sra	a1,a1,0x10
    424c:	3c013f80 	lui	at,0x3f80
    4250:	44816000 	mtc1	at,$f12
    4254:	c60a0010 	lwc1	$f10,16(s0)
    4258:	3c013f00 	lui	at,0x3f00
    425c:	44812000 	mtc1	at,$f4
    4260:	460a6203 	div.s	$f8,$f12,$f10
    4264:	c60600e0 	lwc1	$f6,224(s0)
    4268:	00022400 	sll	a0,v0,0x10
    426c:	00042403 	sra	a0,a0,0x10
    4270:	46066281 	sub.s	$f10,$f12,$f6
    4274:	86250024 	lh	a1,36(s1)
    4278:	2407000f 	li	a3,15
    427c:	46044002 	mul.s	$f0,$f8,$f4
    4280:	00000000 	nop
    4284:	460a0082 	mul.s	$f2,$f0,$f10
    4288:	46020200 	add.s	$f8,$f0,$f2
    428c:	44064000 	mfc1	a2,$f8
    4290:	0c000000 	jal	0 <func_800437F0>
    4294:	00000000 	nop
    4298:	10000009 	b	42c0 <Camera_Normal1+0x710>
    429c:	a6220024 	sh	v0,36(s1)
    42a0:	a6200024 	sh	zero,36(s1)
    42a4:	c6040104 	lwc1	$f4,260(s0)
    42a8:	c6000098 	lwc1	$f0,152(s0)
    42ac:	46040032 	c.eq.s	$f0,$f4
    42b0:	00000000 	nop
    42b4:	45020003 	bc1fl	42c4 <Camera_Normal1+0x714>
    42b8:	86390018 	lh	t9,24(s1)
    42bc:	e620001c 	swc1	$f0,28(s1)
    42c0:	86390018 	lh	t9,24(s1)
    42c4:	13200014 	beqz	t9,4318 <Camera_Normal1+0x768>
    42c8:	3c01c220 	lui	at,0xc220
    42cc:	44813000 	mtc1	at,$f6
    42d0:	c60a0000 	lwc1	$f10,0(s0)
    42d4:	460a303c 	c.lt.s	$f6,$f10
    42d8:	00000000 	nop
    42dc:	4502000f 	bc1fl	431c <Camera_Normal1+0x76c>
    42e0:	c6100000 	lwc1	$f16,0(s0)
    42e4:	0c000000 	jal	0 <func_800437F0>
    42e8:	86240014 	lh	a0,20(s1)
    42ec:	3c013f80 	lui	at,0x3f80
    42f0:	44812000 	mtc1	at,$f4
    42f4:	c6080000 	lwc1	$f8,0(s0)
    42f8:	3c01c220 	lui	at,0xc220
    42fc:	46002181 	sub.s	$f6,$f4,$f0
    4300:	44812000 	mtc1	at,$f4
    4304:	46064282 	mul.s	$f10,$f8,$f6
    4308:	00000000 	nop
    430c:	46002202 	mul.s	$f8,$f4,$f0
    4310:	10000002 	b	431c <Camera_Normal1+0x76c>
    4314:	460a4400 	add.s	$f16,$f8,$f10
    4318:	c6100000 	lwc1	$f16,0(s0)
    431c:	86020022 	lh	v0,34(s0)
    4320:	30490080 	andi	t1,v0,0x80
    4324:	5120000b 	beqzl	t1,4354 <Camera_Normal1+0x7a4>
    4328:	304a0020 	andi	t2,v0,0x20
    432c:	44068000 	mfc1	a2,$f16
    4330:	30580001 	andi	t8,v0,0x1
    4334:	afb80010 	sw	t8,16(sp)
    4338:	02002025 	move	a0,s0
    433c:	27a5006c 	addiu	a1,sp,108
    4340:	0c000000 	jal	0 <func_800437F0>
    4344:	2627001c 	addiu	a3,s1,28
    4348:	10000012 	b	4394 <Camera_Normal1+0x7e4>
    434c:	27a4007c 	addiu	a0,sp,124
    4350:	304a0020 	andi	t2,v0,0x20
    4354:	11400008 	beqz	t2,4378 <Camera_Normal1+0x7c8>
    4358:	02002025 	move	a0,s0
    435c:	44068000 	mfc1	a2,$f16
    4360:	02002025 	move	a0,s0
    4364:	27a5006c 	addiu	a1,sp,108
    4368:	0c000000 	jal	0 <func_800437F0>
    436c:	86270024 	lh	a3,36(s1)
    4370:	10000008 	b	4394 <Camera_Normal1+0x7e4>
    4374:	27a4007c 	addiu	a0,sp,124
    4378:	30470001 	andi	a3,v0,0x1
    437c:	00073c00 	sll	a3,a3,0x10
    4380:	44068000 	mfc1	a2,$f16
    4384:	00073c03 	sra	a3,a3,0x10
    4388:	0c000000 	jal	0 <func_800437F0>
    438c:	27a5006c 	addiu	a1,sp,108
    4390:	27a4007c 	addiu	a0,sp,124
    4394:	8fa5003c 	lw	a1,60(sp)
    4398:	0c000000 	jal	0 <func_800437F0>
    439c:	8fa60038 	lw	a2,56(sp)
    43a0:	862b0028 	lh	t3,40(s1)
    43a4:	8e060004 	lw	a2,4(s0)
    43a8:	8e070008 	lw	a3,8(s0)
    43ac:	02002025 	move	a0,s0
    43b0:	8fa5007c 	lw	a1,124(sp)
    43b4:	0c000000 	jal	0 <func_800437F0>
    43b8:	afab0010 	sw	t3,16(sp)
    43bc:	e7a0007c 	swc1	$f0,124(sp)
    43c0:	e60000dc 	swc1	$f0,220(s0)
    43c4:	862c002a 	lh	t4,42(s1)
    43c8:	5d800011 	bgtzl	t4,4410 <Camera_Normal1+0x860>
    43cc:	862e0018 	lh	t6,24(s1)
    43d0:	87ad0070 	lh	t5,112(sp)
    43d4:	3c013f80 	lui	at,0x3f80
    43d8:	44813000 	mtc1	at,$f6
    43dc:	a7ad0080 	sh	t5,128(sp)
    43e0:	c60400c8 	lwc1	$f4,200(s0)
    43e4:	86240026 	lh	a0,38(s1)
    43e8:	87a50072 	lh	a1,114(sp)
    43ec:	46043203 	div.s	$f8,$f6,$f4
    43f0:	2407000a 	li	a3,10
    43f4:	44064000 	mfc1	a2,$f8
    43f8:	0c000000 	jal	0 <func_800437F0>
    43fc:	00000000 	nop
    4400:	a7a20082 	sh	v0,130(sp)
    4404:	1000002a 	b	44b0 <Camera_Normal1+0x900>
    4408:	87a30080 	lh	v1,128(sp)
    440c:	862e0018 	lh	t6,24(s1)
    4410:	02002025 	move	a0,s0
    4414:	87a50072 	lh	a1,114(sp)
    4418:	11c00019 	beqz	t6,4480 <Camera_Normal1+0x8d0>
    441c:	c7a40094 	lwc1	$f4,148(sp)
    4420:	3c013f80 	lui	at,0x3f80
    4424:	44815000 	mtc1	at,$f10
    4428:	c60600c8 	lwc1	$f6,200(s0)
    442c:	86240016 	lh	a0,22(s1)
    4430:	87a50072 	lh	a1,114(sp)
    4434:	46065103 	div.s	$f4,$f10,$f6
    4438:	2407000a 	li	a3,10
    443c:	44062000 	mfc1	a2,$f4
    4440:	0c000000 	jal	0 <func_800437F0>
    4444:	00000000 	nop
    4448:	a7a20082 	sh	v0,130(sp)
    444c:	3c013f80 	lui	at,0x3f80
    4450:	44814000 	mtc1	at,$f8
    4454:	c60a00c8 	lwc1	$f10,200(s0)
    4458:	86240014 	lh	a0,20(s1)
    445c:	87a50070 	lh	a1,112(sp)
    4460:	460a4183 	div.s	$f6,$f8,$f10
    4464:	2407000a 	li	a3,10
    4468:	44063000 	mfc1	a2,$f6
    446c:	0c000000 	jal	0 <func_800437F0>
    4470:	00000000 	nop
    4474:	00021c00 	sll	v1,v0,0x10
    4478:	1000000d 	b	44b0 <Camera_Normal1+0x900>
    447c:	00031c03 	sra	v1,v1,0x10
    4480:	860600a2 	lh	a2,162(s0)
    4484:	8e070014 	lw	a3,20(s0)
    4488:	0c000000 	jal	0 <func_800437F0>
    448c:	e7a40010 	swc1	$f4,16(sp)
    4490:	a7a20082 	sh	v0,130(sp)
    4494:	86270024 	lh	a3,36(s1)
    4498:	86060020 	lh	a2,32(s0)
    449c:	02002025 	move	a0,s0
    44a0:	0c000000 	jal	0 <func_800437F0>
    44a4:	87a50070 	lh	a1,112(sp)
    44a8:	00021c00 	sll	v1,v0,0x10
    44ac:	00031c03 	sra	v1,v1,0x10
    44b0:	286138a5 	slti	at,v1,14501
    44b4:	14200002 	bnez	at,44c0 <Camera_Normal1+0x910>
    44b8:	27a6007c 	addiu	a2,sp,124
    44bc:	240338a4 	li	v1,14500
    44c0:	2861c374 	slti	at,v1,-15500
    44c4:	10200003 	beqz	at,44d4 <Camera_Normal1+0x924>
    44c8:	a7a30080 	sh	v1,128(sp)
    44cc:	2403c374 	li	v1,-15500
    44d0:	a7a30080 	sh	v1,128(sp)
    44d4:	8fa40038 	lw	a0,56(sp)
    44d8:	0c000000 	jal	0 <func_800437F0>
    44dc:	8fa5003c 	lw	a1,60(sp)
    44e0:	860f0140 	lh	t7,320(s0)
    44e4:	24010007 	li	at,7
    44e8:	55e10075 	bnel	t7,at,46c0 <Camera_Normal1+0xb10>
    44ec:	c608000c 	lwc1	$f8,12(s0)
    44f0:	86080022 	lh	t0,34(s0)
    44f4:	31190010 	andi	t9,t0,0x10
    44f8:	57200071 	bnezl	t9,46c0 <Camera_Normal1+0xb10>
    44fc:	c608000c 	lwc1	$f8,12(s0)
    4500:	860900a2 	lh	t1,162(s0)
    4504:	862a002a 	lh	t2,42(s1)
    4508:	02002025 	move	a0,s0
    450c:	25388001 	addiu	t8,t1,-32767
    4510:	1940000a 	blez	t2,453c <Camera_Normal1+0x98c>
    4514:	a6380026 	sh	t8,38(s1)
    4518:	8e060004 	lw	a2,4(s0)
    451c:	8e07000c 	lw	a3,12(s0)
    4520:	27ab0098 	addiu	t3,sp,152
    4524:	afab0010 	sw	t3,16(sp)
    4528:	afb10014 	sw	s1,20(sp)
    452c:	0c000000 	jal	0 <func_800437F0>
    4530:	27a5007c 	addiu	a1,sp,124
    4534:	10000020 	b	45b8 <Camera_Normal1+0xa08>
    4538:	862b0018 	lh	t3,24(s1)
    453c:	8fac0038 	lw	t4,56(sp)
    4540:	27a60088 	addiu	a2,sp,136
    4544:	02002025 	move	a0,s0
    4548:	8d8e0000 	lw	t6,0(t4)
    454c:	acce0000 	sw	t6,0(a2)
    4550:	8d8d0004 	lw	t5,4(t4)
    4554:	accd0004 	sw	t5,4(a2)
    4558:	8d8e0008 	lw	t6,8(t4)
    455c:	acce0008 	sw	t6,8(a2)
    4560:	c602000c 	lwc1	$f2,12(s0)
    4564:	46021000 	add.s	$f0,$f2,$f2
    4568:	e60000c8 	swc1	$f0,200(s0)
    456c:	e6200010 	swc1	$f0,16(s1)
    4570:	0c000000 	jal	0 <func_800437F0>
    4574:	8fa5003c 	lw	a1,60(sp)
    4578:	10400006 	beqz	v0,4594 <Camera_Normal1+0x9e4>
    457c:	8fa90038 	lw	t1,56(sp)
    4580:	87af0072 	lh	t7,114(sp)
    4584:	2408ffff 	li	t0,-1
    4588:	a628002a 	sh	t0,42(s1)
    458c:	10000008 	b	45b0 <Camera_Normal1+0xa00>
    4590:	a62f0026 	sh	t7,38(s1)
    4594:	8fb90040 	lw	t9,64(sp)
    4598:	8d2a0000 	lw	t2,0(t1)
    459c:	af2a0000 	sw	t2,0(t9)
    45a0:	8d380004 	lw	t8,4(t1)
    45a4:	af380004 	sw	t8,4(t9)
    45a8:	8d2a0008 	lw	t2,8(t1)
    45ac:	af2a0008 	sw	t2,8(t9)
    45b0:	a6200018 	sh	zero,24(s1)
    45b4:	862b0018 	lh	t3,24(s1)
    45b8:	3c010000 	lui	at,0x0
    45bc:	c7aa0098 	lwc1	$f10,152(sp)
    45c0:	51600013 	beqzl	t3,4610 <Camera_Normal1+0xa60>
    45c4:	86180022 	lh	t8,34(s0)
    45c8:	c4280000 	lwc1	$f8,0(at)
    45cc:	3c013f80 	lui	at,0x3f80
    45d0:	44812000 	mtc1	at,$f4
    45d4:	460a4182 	mul.s	$f6,$f8,$f10
    45d8:	862c0016 	lh	t4,22(s1)
    45dc:	86050136 	lh	a1,310(s0)
    45e0:	2407000a 	li	a3,10
    45e4:	258f8001 	addiu	t7,t4,-32767
    45e8:	01e54823 	subu	t1,t7,a1
    45ec:	00a92021 	addu	a0,a1,t1
    45f0:	46062201 	sub.s	$f8,$f4,$f6
    45f4:	00042400 	sll	a0,a0,0x10
    45f8:	00042403 	sra	a0,a0,0x10
    45fc:	44064000 	mfc1	a2,$f8
    4600:	0c000000 	jal	0 <func_800437F0>
    4604:	00000000 	nop
    4608:	a6020136 	sh	v0,310(s0)
    460c:	86180022 	lh	t8,34(s0)
    4610:	87ab0078 	lh	t3,120(sp)
    4614:	27a4007c 	addiu	a0,sp,124
    4618:	330a0004 	andi	t2,t8,0x4
    461c:	11400008 	beqz	t2,4640 <Camera_Normal1+0xa90>
    4620:	8fa50040 	lw	a1,64(sp)
    4624:	000b6023 	negu	t4,t3
    4628:	a60c0134 	sh	t4,308(s0)
    462c:	87ad007a 	lh	t5,122(sp)
    4630:	a6000138 	sh	zero,312(s0)
    4634:	25ae8001 	addiu	t6,t5,-32767
    4638:	10000008 	b	465c <Camera_Normal1+0xaac>
    463c:	a60e0136 	sh	t6,310(s0)
    4640:	0c000000 	jal	0 <func_800437F0>
    4644:	8fa6003c 	lw	a2,60(sp)
    4648:	87af0080 	lh	t7,128(sp)
    464c:	a60f0134 	sh	t7,308(s0)
    4650:	87a80082 	lh	t0,130(sp)
    4654:	a6000138 	sh	zero,312(s0)
    4658:	a6080136 	sh	t0,310(s0)
    465c:	3c020000 	lui	v0,0x0
    4660:	84420030 	lh	v0,48(v0)
    4664:	28410011 	slti	at,v0,17
    4668:	50200024 	beqzl	at,46fc <Camera_Normal1+0xb4c>
    466c:	28410011 	slti	at,v0,17
    4670:	8e19008c 	lw	t9,140(s0)
    4674:	8f29009c 	lw	t1,156(t9)
    4678:	313800ff 	andi	t8,t1,0xff
    467c:	5700001f 	bnezl	t8,46fc <Camera_Normal1+0xb4c>
    4680:	28410011 	slti	at,v0,17
    4684:	0c000000 	jal	0 <func_800437F0>
    4688:	00000000 	nop
    468c:	3c010000 	lui	at,0x0
    4690:	c42a0000 	lwc1	$f10,0(at)
    4694:	860e0136 	lh	t6,310(s0)
    4698:	3c020000 	lui	v0,0x0
    469c:	460a0102 	mul.s	$f4,$f0,$f10
    46a0:	4600218d 	trunc.w.s	$f6,$f4
    46a4:	440d3000 	mfc1	t5,$f6
    46a8:	00000000 	nop
    46ac:	01ae7821 	addu	t7,t5,t6
    46b0:	a60f0136 	sh	t7,310(s0)
    46b4:	10000010 	b	46f8 <Camera_Normal1+0xb48>
    46b8:	84420030 	lh	v0,48(v0)
    46bc:	c608000c 	lwc1	$f8,12(s0)
    46c0:	a6200018 	sh	zero,24(s1)
    46c4:	3c010000 	lui	at,0x0
    46c8:	e6280010 	swc1	$f8,16(s1)
    46cc:	8fb90038 	lw	t9,56(sp)
    46d0:	ac200000 	sw	zero,0(at)
    46d4:	8fa80040 	lw	t0,64(sp)
    46d8:	8f380000 	lw	t8,0(t9)
    46dc:	3c020000 	lui	v0,0x0
    46e0:	ad180000 	sw	t8,0(t0)
    46e4:	8f290004 	lw	t1,4(t9)
    46e8:	ad090004 	sw	t1,4(t0)
    46ec:	8f380008 	lw	t8,8(t9)
    46f0:	ad180008 	sw	t8,8(t0)
    46f4:	84420030 	lh	v0,48(v0)
    46f8:	28410011 	slti	at,v0,17
    46fc:	10200003 	beqz	at,470c <Camera_Normal1+0xb5c>
    4700:	3c010000 	lui	at,0x0
    4704:	10000004 	b	4718 <Camera_Normal1+0xb68>
    4708:	c4300000 	lwc1	$f16,0(at)
    470c:	3c013f80 	lui	at,0x3f80
    4710:	44818000 	mtc1	at,$f16
    4714:	00000000 	nop
    4718:	c60a0018 	lwc1	$f10,24(s0)
    471c:	c60e00fc 	lwc1	$f14,252(s0)
    4720:	8e0600d4 	lw	a2,212(s0)
    4724:	46105302 	mul.s	$f12,$f10,$f16
    4728:	0c000000 	jal	0 <func_800437F0>
    472c:	3c073f80 	lui	a3,0x3f80
    4730:	e60000fc 	swc1	$f0,252(s0)
    4734:	00002025 	move	a0,zero
    4738:	8605015a 	lh	a1,346(s0)
    473c:	3c063f00 	lui	a2,0x3f00
    4740:	0c000000 	jal	0 <func_800437F0>
    4744:	2407000a 	li	a3,10
    4748:	a602015a 	sh	v0,346(s0)
    474c:	02002025 	move	a0,s0
    4750:	0c000000 	jal	0 <func_800437F0>
    4754:	8e05001c 	lw	a1,28(s0)
    4758:	e6000100 	swc1	$f0,256(s0)
    475c:	8fbf0024 	lw	ra,36(sp)
    4760:	8fb10020 	lw	s1,32(sp)
    4764:	8fb0001c 	lw	s0,28(sp)
    4768:	27bd00b0 	addiu	sp,sp,176
    476c:	03e00008 	jr	ra
    4770:	24020001 	li	v0,1

00004774 <Camera_Normal2>:
    4774:	27bdff20 	addiu	sp,sp,-224
    4778:	afb0001c 	sw	s0,28(sp)
    477c:	00808025 	move	s0,a0
    4780:	afbf0024 	sw	ra,36(sp)
    4784:	afb10020 	sw	s1,32(sp)
    4788:	0c000000 	jal	0 <func_800437F0>
    478c:	8c840090 	lw	a0,144(a0)
    4790:	3c030000 	lui	v1,0x0
    4794:	8c630000 	lw	v1,0(v1)
    4798:	3c010000 	lui	at,0x0
    479c:	c4300000 	lwc1	$f16,0(at)
    47a0:	846e01f0 	lh	t6,496(v1)
    47a4:	3c013f80 	lui	at,0x3f80
    47a8:	44814000 	mtc1	at,$f8
    47ac:	448e2000 	mtc1	t6,$f4
    47b0:	3c014288 	lui	at,0x4288
    47b4:	44819000 	mtc1	at,$f18
    47b8:	468021a0 	cvt.s.w	$f6,$f4
    47bc:	846f0314 	lh	t7,788(v1)
    47c0:	46000306 	mov.s	$f12,$f0
    47c4:	46009103 	div.s	$f4,$f18,$f0
    47c8:	46103082 	mul.s	$f2,$f6,$f16
    47cc:	46024280 	add.s	$f10,$f8,$f2
    47d0:	46041182 	mul.s	$f6,$f2,$f4
    47d4:	11e00009 	beqz	t7,47fc <Camera_Normal2+0x88>
    47d8:	46065381 	sub.s	$f14,$f10,$f6
    47dc:	02002025 	move	a0,s0
    47e0:	e7ac0060 	swc1	$f12,96(sp)
    47e4:	0c000000 	jal	0 <func_800437F0>
    47e8:	e7ae005c 	swc1	$f14,92(sp)
    47ec:	3c010000 	lui	at,0x0
    47f0:	c4300000 	lwc1	$f16,0(at)
    47f4:	c7ac0060 	lwc1	$f12,96(sp)
    47f8:	c7ae005c 	lwc1	$f14,92(sp)
    47fc:	8602015e 	lh	v0,350(s0)
    4800:	10400009 	beqz	v0,4828 <Camera_Normal2+0xb4>
    4804:	2401000a 	li	at,10
    4808:	10410007 	beq	v0,at,4828 <Camera_Normal2+0xb4>
    480c:	24010014 	li	at,20
    4810:	10410005 	beq	v0,at,4828 <Camera_Normal2+0xb4>
    4814:	3c180000 	lui	t8,0x0
    4818:	8f180000 	lw	t8,0(t8)
    481c:	87030314 	lh	v1,788(t8)
    4820:	10600050 	beqz	v1,4964 <Camera_Normal2+0x1f0>
    4824:	00000000 	nop
    4828:	86190142 	lh	t9,322(s0)
    482c:	3c090000 	lui	t1,0x0
    4830:	860a0144 	lh	t2,324(s0)
    4834:	001940c0 	sll	t0,t9,0x3
    4838:	01284821 	addu	t1,t1,t0
    483c:	8d290004 	lw	t1,4(t1)
    4840:	000a58c0 	sll	t3,t2,0x3
    4844:	3c010000 	lui	at,0x0
    4848:	012b6021 	addu	t4,t1,t3
    484c:	8d820004 	lw	v0,4(t4)
    4850:	844d0000 	lh	t5,0(v0)
    4854:	24420020 	addiu	v0,v0,32
    4858:	448d4000 	mtc1	t5,$f8
    485c:	00000000 	nop
    4860:	468044a0 	cvt.s.w	$f18,$f8
    4864:	46109102 	mul.s	$f4,$f18,$f16
    4868:	00000000 	nop
    486c:	460c2282 	mul.s	$f10,$f4,$f12
    4870:	00000000 	nop
    4874:	460e5182 	mul.s	$f6,$f10,$f14
    4878:	e6060000 	swc1	$f6,0(s0)
    487c:	844effe4 	lh	t6,-28(v0)
    4880:	448e4000 	mtc1	t6,$f8
    4884:	3c0e0000 	lui	t6,0x0
    4888:	468044a0 	cvt.s.w	$f18,$f8
    488c:	46109102 	mul.s	$f4,$f18,$f16
    4890:	00000000 	nop
    4894:	460c2282 	mul.s	$f10,$f4,$f12
    4898:	00000000 	nop
    489c:	460e5182 	mul.s	$f6,$f10,$f14
    48a0:	e6060004 	swc1	$f6,4(s0)
    48a4:	844fffe8 	lh	t7,-24(v0)
    48a8:	448f4000 	mtc1	t7,$f8
    48ac:	00000000 	nop
    48b0:	468044a0 	cvt.s.w	$f18,$f8
    48b4:	46109102 	mul.s	$f4,$f18,$f16
    48b8:	00000000 	nop
    48bc:	460c2282 	mul.s	$f10,$f4,$f12
    48c0:	00000000 	nop
    48c4:	460e5182 	mul.s	$f6,$f10,$f14
    48c8:	e6060008 	swc1	$f6,8(s0)
    48cc:	8458ffec 	lh	t8,-20(v0)
    48d0:	c4240000 	lwc1	$f4,0(at)
    48d4:	3c013f00 	lui	at,0x3f00
    48d8:	44984000 	mtc1	t8,$f8
    48dc:	44813000 	mtc1	at,$f6
    48e0:	468044a0 	cvt.s.w	$f18,$f8
    48e4:	46049282 	mul.s	$f10,$f18,$f4
    48e8:	46065200 	add.s	$f8,$f10,$f6
    48ec:	4600448d 	trunc.w.s	$f18,$f8
    48f0:	44089000 	mfc1	t0,$f18
    48f4:	00000000 	nop
    48f8:	a608001c 	sh	t0,28(s0)
    48fc:	844afff0 	lh	t2,-16(v0)
    4900:	448a2000 	mtc1	t2,$f4
    4904:	00000000 	nop
    4908:	468022a0 	cvt.s.w	$f10,$f4
    490c:	e60a000c 	swc1	$f10,12(s0)
    4910:	8449fff4 	lh	t1,-12(v0)
    4914:	44893000 	mtc1	t1,$f6
    4918:	00000000 	nop
    491c:	46803220 	cvt.s.w	$f8,$f6
    4920:	46104482 	mul.s	$f18,$f8,$f16
    4924:	e6120010 	swc1	$f18,16(s0)
    4928:	844bfff8 	lh	t3,-8(v0)
    492c:	448b2000 	mtc1	t3,$f4
    4930:	00000000 	nop
    4934:	468022a0 	cvt.s.w	$f10,$f4
    4938:	e60a0014 	swc1	$f10,20(s0)
    493c:	844cfffc 	lh	t4,-4(v0)
    4940:	448c3000 	mtc1	t4,$f6
    4944:	00000000 	nop
    4948:	46803220 	cvt.s.w	$f8,$f6
    494c:	46104482 	mul.s	$f18,$f8,$f16
    4950:	e6120018 	swc1	$f18,24(s0)
    4954:	844d0000 	lh	t5,0(v0)
    4958:	a60d001e 	sh	t5,30(s0)
    495c:	8dce0000 	lw	t6,0(t6)
    4960:	85c30314 	lh	v1,788(t6)
    4964:	50600004 	beqzl	v1,4978 <Camera_Normal2+0x204>
    4968:	860f001e 	lh	t7,30(s0)
    496c:	0c000000 	jal	0 <func_800437F0>
    4970:	02002025 	move	a0,s0
    4974:	860f001e 	lh	t7,30(s0)
    4978:	3c010000 	lui	at,0x0
    497c:	ac2f0000 	sw	t7,0(at)
    4980:	8602015e 	lh	v0,350(s0)
    4984:	10400007 	beqz	v0,49a4 <Camera_Normal2+0x230>
    4988:	2401000a 	li	at,10
    498c:	10410005 	beq	v0,at,49a4 <Camera_Normal2+0x230>
    4990:	24010014 	li	at,20
    4994:	10410003 	beq	v0,at,49a4 <Camera_Normal2+0x230>
    4998:	24010019 	li	at,25
    499c:	14410042 	bne	v0,at,4aa8 <Camera_Normal2+0x334>
    49a0:	26180094 	addiu	t8,s0,148
    49a4:	0c000000 	jal	0 <func_800437F0>
    49a8:	02002025 	move	a0,s0
    49ac:	26110020 	addiu	s1,s0,32
    49b0:	02202025 	move	a0,s1
    49b4:	00402825 	move	a1,v0
    49b8:	0c000000 	jal	0 <func_800437F0>
    49bc:	afa20064 	sw	v0,100(sp)
    49c0:	8fa60064 	lw	a2,100(sp)
    49c4:	26080094 	addiu	t0,s0,148
    49c8:	2404ffff 	li	a0,-1
    49cc:	84d80006 	lh	t8,6(a2)
    49d0:	27a50088 	addiu	a1,sp,136
    49d4:	a6380020 	sh	t8,32(s1)
    49d8:	84d90008 	lh	t9,8(a2)
    49dc:	a6390022 	sh	t9,34(s1)
    49e0:	afa8003c 	sw	t0,60(sp)
    49e4:	c5040004 	lwc1	$f4,4(t0)
    49e8:	e6240024 	swc1	$f4,36(s1)
    49ec:	84c3000c 	lh	v1,12(a2)
    49f0:	14830004 	bne	a0,v1,4a04 <Camera_Normal2+0x290>
    49f4:	28610169 	slti	at,v1,361
    49f8:	c60a0014 	lwc1	$f10,20(s0)
    49fc:	1000000e 	b	4a38 <Camera_Normal2+0x2c4>
    4a00:	e62a001c 	swc1	$f10,28(s1)
    4a04:	54200009 	bnezl	at,4a2c <Camera_Normal2+0x2b8>
    4a08:	44832000 	mtc1	v1,$f4
    4a0c:	44833000 	mtc1	v1,$f6
    4a10:	3c010000 	lui	at,0x0
    4a14:	c4320000 	lwc1	$f18,0(at)
    4a18:	46803220 	cvt.s.w	$f8,$f6
    4a1c:	46124002 	mul.s	$f0,$f8,$f18
    4a20:	10000005 	b	4a38 <Camera_Normal2+0x2c4>
    4a24:	e620001c 	swc1	$f0,28(s1)
    4a28:	44832000 	mtc1	v1,$f4
    4a2c:	00000000 	nop
    4a30:	46802020 	cvt.s.w	$f0,$f4
    4a34:	e620001c 	swc1	$f0,28(s1)
    4a38:	84c2000e 	lh	v0,14(a2)
    4a3c:	44805000 	mtc1	zero,$f10
    4a40:	54820004 	bnel	a0,v0,4a54 <Camera_Normal2+0x2e0>
    4a44:	a6220028 	sh	v0,40(s1)
    4a48:	10000002 	b	4a54 <Camera_Normal2+0x2e0>
    4a4c:	a6200028 	sh	zero,40(s1)
    4a50:	a6220028 	sh	v0,40(s1)
    4a54:	e62a0018 	swc1	$f10,24(s1)
    4a58:	8609001e 	lh	t1,30(s0)
    4a5c:	312b0004 	andi	t3,t1,0x4
    4a60:	5160000c 	beqzl	t3,4a94 <Camera_Normal2+0x320>
    4a64:	3c014248 	lui	at,0x4248
    4a68:	862c0020 	lh	t4,32(s1)
    4a6c:	3c0142c8 	lui	at,0x42c8
    4a70:	44813000 	mtc1	at,$f6
    4a74:	a7ac008c 	sh	t4,140(sp)
    4a78:	862d0022 	lh	t5,34(s1)
    4a7c:	2624000c 	addiu	a0,s1,12
    4a80:	e7a60088 	swc1	$f6,136(sp)
    4a84:	25ae3fff 	addiu	t6,t5,16383
    4a88:	0c000000 	jal	0 <func_800437F0>
    4a8c:	a7ae008e 	sh	t6,142(sp)
    4a90:	3c014248 	lui	at,0x4248
    4a94:	44814000 	mtc1	at,$f8
    4a98:	240f0001 	li	t7,1
    4a9c:	a60f015e 	sh	t7,350(s0)
    4aa0:	1000000a 	b	4acc <Camera_Normal2+0x358>
    4aa4:	e60800c8 	swc1	$f8,200(s0)
    4aa8:	afb8003c 	sw	t8,60(sp)
    4aac:	c6120104 	lwc1	$f18,260(s0)
    4ab0:	c7000004 	lwc1	$f0,4(t8)
    4ab4:	26110020 	addiu	s1,s0,32
    4ab8:	46120032 	c.eq.s	$f0,$f18
    4abc:	00000000 	nop
    4ac0:	45000002 	bc1f	4acc <Camera_Normal2+0x358>
    4ac4:	00000000 	nop
    4ac8:	e6000044 	swc1	$f0,68(s0)
    4acc:	26050050 	addiu	a1,s0,80
    4ad0:	2606005c 	addiu	a2,s0,92
    4ad4:	afa60048 	sw	a2,72(sp)
    4ad8:	afa50044 	sw	a1,68(sp)
    4adc:	0c000000 	jal	0 <func_800437F0>
    4ae0:	27a40080 	addiu	a0,sp,128
    4ae4:	26060074 	addiu	a2,s0,116
    4ae8:	afa60040 	sw	a2,64(sp)
    4aec:	27a40078 	addiu	a0,sp,120
    4af0:	0c000000 	jal	0 <func_800437F0>
    4af4:	8fa50044 	lw	a1,68(sp)
    4af8:	3c010000 	lui	at,0x0
    4afc:	c4300000 	lwc1	$f16,0(at)
    4b00:	3c013f00 	lui	at,0x3f00
    4b04:	44815000 	mtc1	at,$f10
    4b08:	c60400e0 	lwc1	$f4,224(s0)
    4b0c:	3c030000 	lui	v1,0x0
    4b10:	3c073dcc 	lui	a3,0x3dcc
    4b14:	460a2182 	mul.s	$f6,$f4,$f10
    4b18:	34e7cccd 	ori	a3,a3,0xcccd
    4b1c:	e60600e0 	swc1	$f6,224(s0)
    4b20:	8c630000 	lw	v1,0(v1)
    4b24:	c60000e0 	lwc1	$f0,224(s0)
    4b28:	846801c6 	lh	t0,454(v1)
    4b2c:	44884000 	mtc1	t0,$f8
    4b30:	00000000 	nop
    4b34:	468044a0 	cvt.s.w	$f18,$f8
    4b38:	46109082 	mul.s	$f2,$f18,$f16
    4b3c:	00000000 	nop
    4b40:	46001102 	mul.s	$f4,$f2,$f0
    4b44:	44061000 	mfc1	a2,$f2
    4b48:	e7a400a4 	swc1	$f4,164(sp)
    4b4c:	846a01c8 	lh	t2,456(v1)
    4b50:	448a5000 	mtc1	t2,$f10
    4b54:	00000000 	nop
    4b58:	468051a0 	cvt.s.w	$f6,$f10
    4b5c:	46103202 	mul.s	$f8,$f6,$f16
    4b60:	00000000 	nop
    4b64:	46004482 	mul.s	$f18,$f8,$f0
    4b68:	e7b200a0 	swc1	$f18,160(sp)
    4b6c:	c60400c8 	lwc1	$f4,200(s0)
    4b70:	c60c000c 	lwc1	$f12,12(s0)
    4b74:	46002382 	mul.s	$f14,$f4,$f0
    4b78:	0c000000 	jal	0 <func_800437F0>
    4b7c:	00000000 	nop
    4b80:	e60000c8 	swc1	$f0,200(s0)
    4b84:	3c090000 	lui	t1,0x0
    4b88:	8d290000 	lw	t1,0(t1)
    4b8c:	3c073dcc 	lui	a3,0x3dcc
    4b90:	34e7cccd 	ori	a3,a3,0xcccd
    4b94:	852b01a2 	lh	t3,418(t1)
    4b98:	8fa600a0 	lw	a2,160(sp)
    4b9c:	c60e00c4 	lwc1	$f14,196(s0)
    4ba0:	448b5000 	mtc1	t3,$f10
    4ba4:	0c000000 	jal	0 <func_800437F0>
    4ba8:	46805320 	cvt.s.w	$f12,$f10
    4bac:	e60000c4 	swc1	$f0,196(s0)
    4bb0:	3c0c0000 	lui	t4,0x0
    4bb4:	8d8c0000 	lw	t4,0(t4)
    4bb8:	3c010000 	lui	at,0x0
    4bbc:	c4320000 	lwc1	$f18,0(at)
    4bc0:	858d0198 	lh	t5,408(t4)
    4bc4:	3c073dcc 	lui	a3,0x3dcc
    4bc8:	34e7cccd 	ori	a3,a3,0xcccd
    4bcc:	448d3000 	mtc1	t5,$f6
    4bd0:	8fa600a4 	lw	a2,164(sp)
    4bd4:	c60e00cc 	lwc1	$f14,204(s0)
    4bd8:	46803220 	cvt.s.w	$f8,$f6
    4bdc:	46124302 	mul.s	$f12,$f8,$f18
    4be0:	0c000000 	jal	0 <func_800437F0>
    4be4:	00000000 	nop
    4be8:	e60000cc 	swc1	$f0,204(s0)
    4bec:	3c0e0000 	lui	t6,0x0
    4bf0:	8dce0000 	lw	t6,0(t6)
    4bf4:	3c010000 	lui	at,0x0
    4bf8:	c4260000 	lwc1	$f6,0(at)
    4bfc:	85cf019a 	lh	t7,410(t6)
    4c00:	3c073dcc 	lui	a3,0x3dcc
    4c04:	34e7cccd 	ori	a3,a3,0xcccd
    4c08:	448f2000 	mtc1	t7,$f4
    4c0c:	8fa600a0 	lw	a2,160(sp)
    4c10:	c60e00d0 	lwc1	$f14,208(s0)
    4c14:	468022a0 	cvt.s.w	$f10,$f4
    4c18:	46065302 	mul.s	$f12,$f10,$f6
    4c1c:	0c000000 	jal	0 <func_800437F0>
    4c20:	00000000 	nop
    4c24:	e60000d0 	swc1	$f0,208(s0)
    4c28:	3c180000 	lui	t8,0x0
    4c2c:	8f180000 	lw	t8,0(t8)
    4c30:	3c010000 	lui	at,0x0
    4c34:	c4240000 	lwc1	$f4,0(at)
    4c38:	8719019c 	lh	t9,412(t8)
    4c3c:	3c010000 	lui	at,0x0
    4c40:	c4260000 	lwc1	$f6,0(at)
    4c44:	44994000 	mtc1	t9,$f8
    4c48:	c60a00e0 	lwc1	$f10,224(s0)
    4c4c:	3c073dcc 	lui	a3,0x3dcc
    4c50:	468044a0 	cvt.s.w	$f18,$f8
    4c54:	34e7cccd 	ori	a3,a3,0xcccd
    4c58:	46000386 	mov.s	$f14,$f0
    4c5c:	46049302 	mul.s	$f12,$f18,$f4
    4c60:	00000000 	nop
    4c64:	46065202 	mul.s	$f8,$f10,$f6
    4c68:	44064000 	mfc1	a2,$f8
    4c6c:	0c000000 	jal	0 <func_800437F0>
    4c70:	00000000 	nop
    4c74:	8602001e 	lh	v0,30(s0)
    4c78:	e60000d4 	swc1	$f0,212(s0)
    4c7c:	30480080 	andi	t0,v0,0x80
    4c80:	15000009 	bnez	t0,4ca8 <Camera_Normal2+0x534>
    4c84:	30470001 	andi	a3,v0,0x1
    4c88:	00073c00 	sll	a3,a3,0x10
    4c8c:	00073c03 	sra	a3,a3,0x10
    4c90:	02002025 	move	a0,s0
    4c94:	27a50078 	addiu	a1,sp,120
    4c98:	0c000000 	jal	0 <func_800437F0>
    4c9c:	8e060000 	lw	a2,0(s0)
    4ca0:	10000009 	b	4cc8 <Camera_Normal2+0x554>
    4ca4:	8609001e 	lh	t1,30(s0)
    4ca8:	8e060000 	lw	a2,0(s0)
    4cac:	304a0001 	andi	t2,v0,0x1
    4cb0:	afaa0010 	sw	t2,16(sp)
    4cb4:	02002025 	move	a0,s0
    4cb8:	27a50078 	addiu	a1,sp,120
    4cbc:	0c000000 	jal	0 <func_800437F0>
    4cc0:	26270024 	addiu	a3,s1,36
    4cc4:	8609001e 	lh	t1,30(s0)
    4cc8:	312b0004 	andi	t3,t1,0x4
    4ccc:	5160000b 	beqzl	t3,4cfc <Camera_Normal2+0x588>
    4cd0:	8fa2003c 	lw	v0,60(sp)
    4cd4:	8fa2003c 	lw	v0,60(sp)
    4cd8:	c624000c 	lwc1	$f4,12(s1)
    4cdc:	c6280014 	lwc1	$f8,20(s1)
    4ce0:	c4520000 	lwc1	$f18,0(v0)
    4ce4:	46049280 	add.s	$f10,$f18,$f4
    4ce8:	e62a0000 	swc1	$f10,0(s1)
    4cec:	c4460008 	lwc1	$f6,8(v0)
    4cf0:	46083480 	add.s	$f18,$f6,$f8
    4cf4:	e6320008 	swc1	$f18,8(s1)
    4cf8:	8fa2003c 	lw	v0,60(sp)
    4cfc:	27a40088 	addiu	a0,sp,136
    4d00:	02202825 	move	a1,s1
    4d04:	c4440004 	lwc1	$f4,4(v0)
    4d08:	e6240004 	swc1	$f4,4(s1)
    4d0c:	0c000000 	jal	0 <func_800437F0>
    4d10:	8fa60044 	lw	a2,68(sp)
    4d14:	27a40090 	addiu	a0,sp,144
    4d18:	8fa50044 	lw	a1,68(sp)
    4d1c:	0c000000 	jal	0 <func_800437F0>
    4d20:	8fa60040 	lw	a2,64(sp)
    4d24:	862c0028 	lh	t4,40(s1)
    4d28:	318d0002 	andi	t5,t4,0x2
    4d2c:	51a00004 	beqzl	t5,4d40 <Camera_Normal2+0x5cc>
    4d30:	8605001c 	lh	a1,28(s0)
    4d34:	10000002 	b	4d40 <Camera_Normal2+0x5cc>
    4d38:	86250022 	lh	a1,34(s1)
    4d3c:	8605001c 	lh	a1,28(s0)
    4d40:	28a14000 	slti	at,a1,16384
    4d44:	1020000b 	beqz	at,4d74 <Camera_Normal2+0x600>
    4d48:	87ae0096 	lh	t6,150(sp)
    4d4c:	87af008e 	lh	t7,142(sp)
    4d50:	01cf1823 	subu	v1,t6,t7
    4d54:	00031c00 	sll	v1,v1,0x10
    4d58:	00031c03 	sra	v1,v1,0x10
    4d5c:	04600003 	bltz	v1,4d6c <Camera_Normal2+0x5f8>
    4d60:	00031023 	negu	v0,v1
    4d64:	10000001 	b	4d6c <Camera_Normal2+0x5f8>
    4d68:	00601025 	move	v0,v1
    4d6c:	00a2082a 	slt	at,a1,v0
    4d70:	1420000e 	bnez	at,4dac <Camera_Normal2+0x638>
    4d74:	28a14000 	slti	at,a1,16384
    4d78:	14200030 	bnez	at,4e3c <Camera_Normal2+0x6c8>
    4d7c:	87b80096 	lh	t8,150(sp)
    4d80:	87b9008e 	lh	t9,142(sp)
    4d84:	03191823 	subu	v1,t8,t9
    4d88:	00031c00 	sll	v1,v1,0x10
    4d8c:	00031c03 	sra	v1,v1,0x10
    4d90:	04600003 	bltz	v1,4da0 <Camera_Normal2+0x62c>
    4d94:	00031023 	negu	v0,v1
    4d98:	10000001 	b	4da0 <Camera_Normal2+0x62c>
    4d9c:	00601025 	move	v0,v1
    4da0:	0045082a 	slt	at,v0,a1
    4da4:	50200026 	beqzl	at,4e40 <Camera_Normal2+0x6cc>
    4da8:	27ac0090 	addiu	t4,sp,144
    4dac:	04610005 	bgez	v1,4dc4 <Camera_Normal2+0x650>
    4db0:	3c013f80 	lui	at,0x3f80
    4db4:	00052023 	negu	a0,a1
    4db8:	00042400 	sll	a0,a0,0x10
    4dbc:	10000003 	b	4dcc <Camera_Normal2+0x658>
    4dc0:	00042403 	sra	a0,a0,0x10
    4dc4:	00052400 	sll	a0,a1,0x10
    4dc8:	00042403 	sra	a0,a0,0x10
    4dcc:	44815000 	mtc1	at,$f10
    4dd0:	c60600c8 	lwc1	$f6,200(s0)
    4dd4:	c61200e0 	lwc1	$f18,224(s0)
    4dd8:	87a8008e 	lh	t0,142(sp)
    4ddc:	46065203 	div.s	$f8,$f10,$f6
    4de0:	87a50086 	lh	a1,134(sp)
    4de4:	00882021 	addu	a0,a0,t0
    4de8:	00042400 	sll	a0,a0,0x10
    4dec:	00042403 	sra	a0,a0,0x10
    4df0:	2407000a 	li	a3,10
    4df4:	46124102 	mul.s	$f4,$f8,$f18
    4df8:	44062000 	mfc1	a2,$f4
    4dfc:	0c000000 	jal	0 <func_800437F0>
    4e00:	00000000 	nop
    4e04:	a7a2009e 	sh	v0,158(sp)
    4e08:	862a0028 	lh	t2,40(s1)
    4e0c:	02002025 	move	a0,s0
    4e10:	87a5007c 	lh	a1,124(sp)
    4e14:	31490001 	andi	t1,t2,0x1
    4e18:	11200006 	beqz	t1,4e34 <Camera_Normal2+0x6c0>
    4e1c:	87a30084 	lh	v1,132(sp)
    4e20:	86260020 	lh	a2,32(s1)
    4e24:	0c000000 	jal	0 <func_800437F0>
    4e28:	00003825 	move	a3,zero
    4e2c:	10000009 	b	4e54 <Camera_Normal2+0x6e0>
    4e30:	a7a2009c 	sh	v0,156(sp)
    4e34:	10000007 	b	4e54 <Camera_Normal2+0x6e0>
    4e38:	a7a3009c 	sh	v1,156(sp)
    4e3c:	27ac0090 	addiu	t4,sp,144
    4e40:	8d8e0000 	lw	t6,0(t4)
    4e44:	27ab0098 	addiu	t3,sp,152
    4e48:	ad6e0000 	sw	t6,0(t3)
    4e4c:	8d8d0004 	lw	t5,4(t4)
    4e50:	ad6d0004 	sw	t5,4(t3)
    4e54:	8e060004 	lw	a2,4(s0)
    4e58:	8e070008 	lw	a3,8(s0)
    4e5c:	afa00010 	sw	zero,16(sp)
    4e60:	02002025 	move	a0,s0
    4e64:	0c000000 	jal	0 <func_800437F0>
    4e68:	8fa50090 	lw	a1,144(sp)
    4e6c:	e7a00098 	swc1	$f0,152(sp)
    4e70:	e60000dc 	swc1	$f0,220(s0)
    4e74:	862f0028 	lh	t7,40(s1)
    4e78:	87a3009c 	lh	v1,156(sp)
    4e7c:	27a60098 	addiu	a2,sp,152
    4e80:	31f80001 	andi	t8,t7,0x1
    4e84:	17000015 	bnez	t8,4edc <Camera_Normal2+0x768>
    4e88:	28610e39 	slti	at,v1,3641
    4e8c:	14200008 	bnez	at,4eb0 <Camera_Normal2+0x73c>
    4e90:	24190e38 	li	t9,3640
    4e94:	03234023 	subu	t0,t9,v1
    4e98:	00085400 	sll	t2,t0,0x10
    4e9c:	000a4c03 	sra	t1,t2,0x10
    4ea0:	00095883 	sra	t3,t1,0x2
    4ea4:	006b1821 	addu	v1,v1,t3
    4ea8:	00031c00 	sll	v1,v1,0x10
    4eac:	00031c03 	sra	v1,v1,0x10
    4eb0:	0461000a 	bgez	v1,4edc <Camera_Normal2+0x768>
    4eb4:	a7a3009c 	sh	v1,156(sp)
    4eb8:	240cfc72 	li	t4,-910
    4ebc:	01836823 	subu	t5,t4,v1
    4ec0:	000d7400 	sll	t6,t5,0x10
    4ec4:	000e7c03 	sra	t7,t6,0x10
    4ec8:	000fc083 	sra	t8,t7,0x2
    4ecc:	00781821 	addu	v1,v1,t8
    4ed0:	00031c00 	sll	v1,v1,0x10
    4ed4:	00031c03 	sra	v1,v1,0x10
    4ed8:	a7a3009c 	sh	v1,156(sp)
    4edc:	8fa40040 	lw	a0,64(sp)
    4ee0:	0c000000 	jal	0 <func_800437F0>
    4ee4:	8fa50044 	lw	a1,68(sp)
    4ee8:	86190140 	lh	t9,320(s0)
    4eec:	24010007 	li	at,7
    4ef0:	8fa80040 	lw	t0,64(sp)
    4ef4:	57210032 	bnel	t9,at,4fc0 <Camera_Normal2+0x84c>
    4ef8:	c62c001c 	lwc1	$f12,28(s1)
    4efc:	8d090000 	lw	t1,0(t0)
    4f00:	27a600ac 	addiu	a2,sp,172
    4f04:	3c0c0001 	lui	t4,0x1
    4f08:	acc90000 	sw	t1,0(a2)
    4f0c:	8d0a0004 	lw	t2,4(t0)
    4f10:	02002025 	move	a0,s0
    4f14:	acca0004 	sw	t2,4(a2)
    4f18:	8d090008 	lw	t1,8(t0)
    4f1c:	acc90008 	sw	t1,8(a2)
    4f20:	8e0b008c 	lw	t3,140(s0)
    4f24:	018b6021 	addu	t4,t4,t3
    4f28:	918c0a39 	lbu	t4,2617(t4)
    4f2c:	11800006 	beqz	t4,4f48 <Camera_Normal2+0x7d4>
    4f30:	00000000 	nop
    4f34:	860d001e 	lh	t5,30(s0)
    4f38:	8fa50044 	lw	a1,68(sp)
    4f3c:	31ae0010 	andi	t6,t5,0x10
    4f40:	11c0000c 	beqz	t6,4f74 <Camera_Normal2+0x800>
    4f44:	00000000 	nop
    4f48:	0c000000 	jal	0 <func_800437F0>
    4f4c:	8fa50044 	lw	a1,68(sp)
    4f50:	27b800ac 	addiu	t8,sp,172
    4f54:	8f080000 	lw	t0,0(t8)
    4f58:	8faf0048 	lw	t7,72(sp)
    4f5c:	ade80000 	sw	t0,0(t7)
    4f60:	8f190004 	lw	t9,4(t8)
    4f64:	adf90004 	sw	t9,4(t7)
    4f68:	8f080008 	lw	t0,8(t8)
    4f6c:	10000013 	b	4fbc <Camera_Normal2+0x848>
    4f70:	ade80008 	sw	t0,8(t7)
    4f74:	0c000000 	jal	0 <func_800437F0>
    4f78:	02002025 	move	a0,s0
    4f7c:	27aa00ac 	addiu	t2,sp,172
    4f80:	8fa50048 	lw	a1,72(sp)
    4f84:	8d4b0000 	lw	t3,0(t2)
    4f88:	27a40098 	addiu	a0,sp,152
    4f8c:	acab0000 	sw	t3,0(a1)
    4f90:	8d490004 	lw	t1,4(t2)
    4f94:	aca90004 	sw	t1,4(a1)
    4f98:	8d4b0008 	lw	t3,8(t2)
    4f9c:	acab0008 	sw	t3,8(a1)
    4fa0:	0c000000 	jal	0 <func_800437F0>
    4fa4:	8fa60044 	lw	a2,68(sp)
    4fa8:	87ac009c 	lh	t4,156(sp)
    4fac:	a60c0134 	sh	t4,308(s0)
    4fb0:	87ad009e 	lh	t5,158(sp)
    4fb4:	a6000138 	sh	zero,312(s0)
    4fb8:	a60d0136 	sh	t5,310(s0)
    4fbc:	c62c001c 	lwc1	$f12,28(s1)
    4fc0:	c60e00fc 	lwc1	$f14,252(s0)
    4fc4:	8e0600d4 	lw	a2,212(s0)
    4fc8:	0c000000 	jal	0 <func_800437F0>
    4fcc:	3c073f80 	lui	a3,0x3f80
    4fd0:	e60000fc 	swc1	$f0,252(s0)
    4fd4:	00002025 	move	a0,zero
    4fd8:	8605015a 	lh	a1,346(s0)
    4fdc:	3c063f00 	lui	a2,0x3f00
    4fe0:	0c000000 	jal	0 <func_800437F0>
    4fe4:	2407000a 	li	a3,10
    4fe8:	a602015a 	sh	v0,346(s0)
    4fec:	02002025 	move	a0,s0
    4ff0:	0c000000 	jal	0 <func_800437F0>
    4ff4:	8e050018 	lw	a1,24(s0)
    4ff8:	e6000100 	swc1	$f0,256(s0)
    4ffc:	8fbf0024 	lw	ra,36(sp)
    5000:	8fb10020 	lw	s1,32(sp)
    5004:	8fb0001c 	lw	s0,28(sp)
    5008:	27bd00e0 	addiu	sp,sp,224
    500c:	03e00008 	jr	ra
    5010:	24020001 	li	v0,1

00005014 <Camera_Normal3>:
    5014:	27bdff58 	addiu	sp,sp,-168
    5018:	afb0001c 	sw	s0,28(sp)
    501c:	00808025 	move	s0,a0
    5020:	afbf0024 	sw	ra,36(sp)
    5024:	afb10020 	sw	s1,32(sp)
    5028:	0c000000 	jal	0 <func_800437F0>
    502c:	8c840090 	lw	a0,144(a0)
    5030:	8602015e 	lh	v0,350(s0)
    5034:	10400009 	beqz	v0,505c <Camera_Normal3+0x48>
    5038:	2401000a 	li	at,10
    503c:	10410007 	beq	v0,at,505c <Camera_Normal3+0x48>
    5040:	24010014 	li	at,20
    5044:	10410005 	beq	v0,at,505c <Camera_Normal3+0x48>
    5048:	3c0e0000 	lui	t6,0x0
    504c:	8dce0000 	lw	t6,0(t6)
    5050:	85c30314 	lh	v1,788(t6)
    5054:	10600048 	beqz	v1,5178 <Camera_Normal3+0x164>
    5058:	00000000 	nop
    505c:	860f0142 	lh	t7,322(s0)
    5060:	3c190000 	lui	t9,0x0
    5064:	86080144 	lh	t0,324(s0)
    5068:	000fc0c0 	sll	t8,t7,0x3
    506c:	0338c821 	addu	t9,t9,t8
    5070:	8f390004 	lw	t9,4(t9)
    5074:	000848c0 	sll	t1,t0,0x3
    5078:	3c010000 	lui	at,0x0
    507c:	03295021 	addu	t2,t9,t1
    5080:	8d420004 	lw	v0,4(t2)
    5084:	c4240000 	lwc1	$f4,0(at)
    5088:	3c010000 	lui	at,0x0
    508c:	844b0000 	lh	t3,0(v0)
    5090:	46040082 	mul.s	$f2,$f0,$f4
    5094:	24420020 	addiu	v0,v0,32
    5098:	448b3000 	mtc1	t3,$f6
    509c:	00000000 	nop
    50a0:	46803220 	cvt.s.w	$f8,$f6
    50a4:	46024282 	mul.s	$f10,$f8,$f2
    50a8:	e60a0000 	swc1	$f10,0(s0)
    50ac:	844cffe4 	lh	t4,-28(v0)
    50b0:	448c9000 	mtc1	t4,$f18
    50b4:	3c0c0000 	lui	t4,0x0
    50b8:	46809120 	cvt.s.w	$f4,$f18
    50bc:	46022182 	mul.s	$f6,$f4,$f2
    50c0:	e6060004 	swc1	$f6,4(s0)
    50c4:	844dffe8 	lh	t5,-24(v0)
    50c8:	448d4000 	mtc1	t5,$f8
    50cc:	00000000 	nop
    50d0:	468042a0 	cvt.s.w	$f10,$f8
    50d4:	46025482 	mul.s	$f18,$f10,$f2
    50d8:	e6120008 	swc1	$f18,8(s0)
    50dc:	844effec 	lh	t6,-20(v0)
    50e0:	c4280000 	lwc1	$f8,0(at)
    50e4:	3c013f00 	lui	at,0x3f00
    50e8:	448e2000 	mtc1	t6,$f4
    50ec:	44819000 	mtc1	at,$f18
    50f0:	3c010000 	lui	at,0x0
    50f4:	468021a0 	cvt.s.w	$f6,$f4
    50f8:	46083282 	mul.s	$f10,$f6,$f8
    50fc:	46125100 	add.s	$f4,$f10,$f18
    5100:	4600218d 	trunc.w.s	$f6,$f4
    5104:	44183000 	mfc1	t8,$f6
    5108:	00000000 	nop
    510c:	a618001c 	sh	t8,28(s0)
    5110:	8448fff0 	lh	t0,-16(v0)
    5114:	44884000 	mtc1	t0,$f8
    5118:	00000000 	nop
    511c:	468042a0 	cvt.s.w	$f10,$f8
    5120:	e60a000c 	swc1	$f10,12(s0)
    5124:	8459fff4 	lh	t9,-12(v0)
    5128:	44999000 	mtc1	t9,$f18
    512c:	00000000 	nop
    5130:	46809120 	cvt.s.w	$f4,$f18
    5134:	e6040010 	swc1	$f4,16(s0)
    5138:	8449fff8 	lh	t1,-8(v0)
    513c:	44893000 	mtc1	t1,$f6
    5140:	00000000 	nop
    5144:	46803220 	cvt.s.w	$f8,$f6
    5148:	e6080014 	swc1	$f8,20(s0)
    514c:	844afffc 	lh	t2,-4(v0)
    5150:	c4240000 	lwc1	$f4,0(at)
    5154:	448a5000 	mtc1	t2,$f10
    5158:	00000000 	nop
    515c:	468054a0 	cvt.s.w	$f18,$f10
    5160:	46049182 	mul.s	$f6,$f18,$f4
    5164:	e6060018 	swc1	$f6,24(s0)
    5168:	844b0000 	lh	t3,0(v0)
    516c:	a60b001e 	sh	t3,30(s0)
    5170:	8d8c0000 	lw	t4,0(t4)
    5174:	85830314 	lh	v1,788(t4)
    5178:	50600004 	beqzl	v1,518c <Camera_Normal3+0x178>
    517c:	26050050 	addiu	a1,s0,80
    5180:	0c000000 	jal	0 <func_800437F0>
    5184:	02002025 	move	a0,s0
    5188:	26050050 	addiu	a1,s0,80
    518c:	2606005c 	addiu	a2,s0,92
    5190:	afa60048 	sw	a2,72(sp)
    5194:	afa50044 	sw	a1,68(sp)
    5198:	0c000000 	jal	0 <func_800437F0>
    519c:	27a4007c 	addiu	a0,sp,124
    51a0:	26060074 	addiu	a2,s0,116
    51a4:	afa60040 	sw	a2,64(sp)
    51a8:	27a40074 	addiu	a0,sp,116
    51ac:	0c000000 	jal	0 <func_800437F0>
    51b0:	8fa50044 	lw	a1,68(sp)
    51b4:	24040001 	li	a0,1
    51b8:	3c010000 	lui	at,0x0
    51bc:	ac240000 	sw	a0,0(at)
    51c0:	860d001e 	lh	t5,30(s0)
    51c4:	3c010000 	lui	at,0x0
    51c8:	ac2d0000 	sw	t5,0(at)
    51cc:	8603015e 	lh	v1,350(s0)
    51d0:	1060000a 	beqz	v1,51fc <Camera_Normal3+0x1e8>
    51d4:	2401000a 	li	at,10
    51d8:	10610008 	beq	v1,at,51fc <Camera_Normal3+0x1e8>
    51dc:	24010014 	li	at,20
    51e0:	10610006 	beq	v1,at,51fc <Camera_Normal3+0x1e8>
    51e4:	24010019 	li	at,25
    51e8:	10610004 	beq	v1,at,51fc <Camera_Normal3+0x1e8>
    51ec:	260e0094 	addiu	t6,s0,148
    51f0:	afae003c 	sw	t6,60(sp)
    51f4:	1000002d 	b	52ac <Camera_Normal3+0x298>
    51f8:	26110020 	addiu	s1,s0,32
    51fc:	44804000 	mtc1	zero,$f8
    5200:	26110020 	addiu	s1,s0,32
    5204:	ae20000c 	sw	zero,12(s1)
    5208:	a6200024 	sh	zero,36(s1)
    520c:	e628001c 	swc1	$f8,28(s1)
    5210:	c60a0104 	lwc1	$f10,260(s0)
    5214:	a6200018 	sh	zero,24(s1)
    5218:	86220018 	lh	v0,24(s1)
    521c:	e62a0020 	swc1	$f10,32(s1)
    5220:	3c180000 	lui	t8,0x0
    5224:	a6220014 	sh	v0,20(s1)
    5228:	a6220016 	sh	v0,22(s1)
    522c:	c612000c 	lwc1	$f18,12(s0)
    5230:	260f0094 	addiu	t7,s0,148
    5234:	3c013f80 	lui	at,0x3f80
    5238:	e6320010 	swc1	$f18,16(s1)
    523c:	8f180000 	lw	t8,0(t8)
    5240:	afaf003c 	sw	t7,60(sp)
    5244:	44812000 	mtc1	at,$f4
    5248:	870801c2 	lh	t0,450(t8)
    524c:	85e9000e 	lh	t1,14(t7)
    5250:	87ad0082 	lh	t5,130(sp)
    5254:	44883000 	mtc1	t0,$f6
    5258:	252c8001 	addiu	t4,t1,-32767
    525c:	018d7023 	subu	t6,t4,t5
    5260:	46803220 	cvt.s.w	$f8,$f6
    5264:	000e7c00 	sll	t7,t6,0x10
    5268:	000fc403 	sra	t8,t7,0x10
    526c:	44989000 	mtc1	t8,$f18
    5270:	2409000a 	li	t1,10
    5274:	a629002a 	sh	t1,42(s1)
    5278:	46082283 	div.s	$f10,$f4,$f8
    527c:	3c0a0000 	lui	t2,0x0
    5280:	468091a0 	cvt.s.w	$f6,$f18
    5284:	46065102 	mul.s	$f4,$f10,$f6
    5288:	4600220d 	trunc.w.s	$f8,$f4
    528c:	44194000 	mfc1	t9,$f8
    5290:	00000000 	nop
    5294:	a6390026 	sh	t9,38(s1)
    5298:	8d4a0000 	lw	t2,0(t2)
    529c:	854b01c2 	lh	t3,450(t2)
    52a0:	a62b0028 	sh	t3,40(s1)
    52a4:	a604015e 	sh	a0,350(s0)
    52a8:	a620001a 	sh	zero,26(s1)
    52ac:	8622002a 	lh	v0,42(s1)
    52b0:	3c030000 	lui	v1,0x0
    52b4:	10400002 	beqz	v0,52c0 <Camera_Normal3+0x2ac>
    52b8:	244cffff 	addiu	t4,v0,-1
    52bc:	a62c002a 	sh	t4,42(s1)
    52c0:	8c630000 	lw	v1,0(v1)
    52c4:	3c010000 	lui	at,0x0
    52c8:	c4200000 	lwc1	$f0,0(at)
    52cc:	846d01c6 	lh	t5,454(v1)
    52d0:	846e01c8 	lh	t6,456(v1)
    52d4:	c60200e0 	lwc1	$f2,224(s0)
    52d8:	448d9000 	mtc1	t5,$f18
    52dc:	448e2000 	mtc1	t6,$f4
    52e0:	468092a0 	cvt.s.w	$f10,$f18
    52e4:	46802220 	cvt.s.w	$f8,$f4
    52e8:	46005182 	mul.s	$f6,$f10,$f0
    52ec:	00000000 	nop
    52f0:	46023402 	mul.s	$f16,$f6,$f2
    52f4:	00000000 	nop
    52f8:	46004482 	mul.s	$f18,$f8,$f0
    52fc:	00000000 	nop
    5300:	46029282 	mul.s	$f10,$f18,$f2
    5304:	e7aa0094 	swc1	$f10,148(sp)
    5308:	8622001a 	lh	v0,26(s1)
    530c:	10400022 	beqz	v0,5398 <Camera_Normal3+0x384>
    5310:	00000000 	nop
    5314:	00027840 	sll	t7,v0,0x1
    5318:	448f2000 	mtc1	t7,$f4
    531c:	c606000c 	lwc1	$f6,12(s0)
    5320:	c60e00c8 	lwc1	$f14,200(s0)
    5324:	46802220 	cvt.s.w	$f8,$f4
    5328:	44068000 	mfc1	a2,$f16
    532c:	3c073dcc 	lui	a3,0x3dcc
    5330:	34e7cccd 	ori	a3,a3,0xcccd
    5334:	e7b00098 	swc1	$f16,152(sp)
    5338:	0c000000 	jal	0 <func_800437F0>
    533c:	46083300 	add.s	$f12,$f6,$f8
    5340:	e60000c8 	swc1	$f0,200(s0)
    5344:	3c180000 	lui	t8,0x0
    5348:	8f180000 	lw	t8,0(t8)
    534c:	8639001a 	lh	t9,26(s1)
    5350:	3c073dcc 	lui	a3,0x3dcc
    5354:	870801a2 	lh	t0,418(t8)
    5358:	00194840 	sll	t1,t9,0x1
    535c:	44892000 	mtc1	t1,$f4
    5360:	44889000 	mtc1	t0,$f18
    5364:	34e7cccd 	ori	a3,a3,0xcccd
    5368:	468021a0 	cvt.s.w	$f6,$f4
    536c:	8fa60094 	lw	a2,148(sp)
    5370:	c60e00c4 	lwc1	$f14,196(s0)
    5374:	468092a0 	cvt.s.w	$f10,$f18
    5378:	0c000000 	jal	0 <func_800437F0>
    537c:	46065300 	add.s	$f12,$f10,$f6
    5380:	c7b00098 	lwc1	$f16,152(sp)
    5384:	e60000c4 	swc1	$f0,196(s0)
    5388:	862a001a 	lh	t2,26(s1)
    538c:	254bffff 	addiu	t3,t2,-1
    5390:	10000015 	b	53e8 <Camera_Normal3+0x3d4>
    5394:	a62b001a 	sh	t3,26(s1)
    5398:	c60c000c 	lwc1	$f12,12(s0)
    539c:	c60e00c8 	lwc1	$f14,200(s0)
    53a0:	44068000 	mfc1	a2,$f16
    53a4:	3c073dcc 	lui	a3,0x3dcc
    53a8:	34e7cccd 	ori	a3,a3,0xcccd
    53ac:	0c000000 	jal	0 <func_800437F0>
    53b0:	e7b00098 	swc1	$f16,152(sp)
    53b4:	e60000c8 	swc1	$f0,200(s0)
    53b8:	3c0c0000 	lui	t4,0x0
    53bc:	8d8c0000 	lw	t4,0(t4)
    53c0:	3c073dcc 	lui	a3,0x3dcc
    53c4:	34e7cccd 	ori	a3,a3,0xcccd
    53c8:	858d01a2 	lh	t5,418(t4)
    53cc:	8fa60094 	lw	a2,148(sp)
    53d0:	c60e00c4 	lwc1	$f14,196(s0)
    53d4:	448d4000 	mtc1	t5,$f8
    53d8:	0c000000 	jal	0 <func_800437F0>
    53dc:	46804320 	cvt.s.w	$f12,$f8
    53e0:	c7b00098 	lwc1	$f16,152(sp)
    53e4:	e60000c4 	swc1	$f0,196(s0)
    53e8:	3c0e0000 	lui	t6,0x0
    53ec:	8dce0000 	lw	t6,0(t6)
    53f0:	3c010000 	lui	at,0x0
    53f4:	c42a0000 	lwc1	$f10,0(at)
    53f8:	85cf0198 	lh	t7,408(t6)
    53fc:	44068000 	mfc1	a2,$f16
    5400:	3c073dcc 	lui	a3,0x3dcc
    5404:	448f9000 	mtc1	t7,$f18
    5408:	34e7cccd 	ori	a3,a3,0xcccd
    540c:	c60e00cc 	lwc1	$f14,204(s0)
    5410:	46809120 	cvt.s.w	$f4,$f18
    5414:	460a2302 	mul.s	$f12,$f4,$f10
    5418:	0c000000 	jal	0 <func_800437F0>
    541c:	00000000 	nop
    5420:	e60000cc 	swc1	$f0,204(s0)
    5424:	3c180000 	lui	t8,0x0
    5428:	8f180000 	lw	t8,0(t8)
    542c:	3c010000 	lui	at,0x0
    5430:	c4320000 	lwc1	$f18,0(at)
    5434:	8708019a 	lh	t0,410(t8)
    5438:	3c073dcc 	lui	a3,0x3dcc
    543c:	34e7cccd 	ori	a3,a3,0xcccd
    5440:	44883000 	mtc1	t0,$f6
    5444:	8fa60094 	lw	a2,148(sp)
    5448:	c60e00d0 	lwc1	$f14,208(s0)
    544c:	46803220 	cvt.s.w	$f8,$f6
    5450:	46124302 	mul.s	$f12,$f8,$f18
    5454:	0c000000 	jal	0 <func_800437F0>
    5458:	00000000 	nop
    545c:	e60000d0 	swc1	$f0,208(s0)
    5460:	3c190000 	lui	t9,0x0
    5464:	8f390000 	lw	t9,0(t9)
    5468:	3c010000 	lui	at,0x0
    546c:	c4260000 	lwc1	$f6,0(at)
    5470:	8729019c 	lh	t1,412(t9)
    5474:	3c073dcc 	lui	a3,0x3dcc
    5478:	34e7cccd 	ori	a3,a3,0xcccd
    547c:	44892000 	mtc1	t1,$f4
    5480:	8fa60094 	lw	a2,148(sp)
    5484:	c60e00d4 	lwc1	$f14,212(s0)
    5488:	468022a0 	cvt.s.w	$f10,$f4
    548c:	46065302 	mul.s	$f12,$f10,$f6
    5490:	0c000000 	jal	0 <func_800437F0>
    5494:	00000000 	nop
    5498:	e60000d4 	swc1	$f0,212(s0)
    549c:	87a50082 	lh	a1,130(sp)
    54a0:	02002025 	move	a0,s0
    54a4:	24060001 	li	a2,1
    54a8:	24a58001 	addiu	a1,a1,-32767
    54ac:	00052c00 	sll	a1,a1,0x10
    54b0:	0c000000 	jal	0 <func_800437F0>
    54b4:	00052c03 	sra	a1,a1,0x10
    54b8:	3c013f80 	lui	at,0x3f80
    54bc:	44816000 	mtc1	at,$f12
    54c0:	c6080010 	lwc1	$f8,16(s0)
    54c4:	3c013f00 	lui	at,0x3f00
    54c8:	44812000 	mtc1	at,$f4
    54cc:	46086483 	div.s	$f18,$f12,$f8
    54d0:	c60a00e0 	lwc1	$f10,224(s0)
    54d4:	00022400 	sll	a0,v0,0x10
    54d8:	00042403 	sra	a0,a0,0x10
    54dc:	460a6181 	sub.s	$f6,$f12,$f10
    54e0:	86250024 	lh	a1,36(s1)
    54e4:	2407000f 	li	a3,15
    54e8:	46049002 	mul.s	$f0,$f18,$f4
    54ec:	00000000 	nop
    54f0:	46060082 	mul.s	$f2,$f0,$f6
    54f4:	46020200 	add.s	$f8,$f0,$f2
    54f8:	44064000 	mfc1	a2,$f8
    54fc:	0c000000 	jal	0 <func_800437F0>
    5500:	00000000 	nop
    5504:	a6220024 	sh	v0,36(s1)
    5508:	8e060000 	lw	a2,0(s0)
    550c:	240a0001 	li	t2,1
    5510:	afaa0010 	sw	t2,16(sp)
    5514:	02002025 	move	a0,s0
    5518:	27a50074 	addiu	a1,sp,116
    551c:	0c000000 	jal	0 <func_800437F0>
    5520:	26270020 	addiu	a3,s1,32
    5524:	c6120008 	lwc1	$f18,8(s0)
    5528:	c6040004 	lwc1	$f4,4(s0)
    552c:	3c013f00 	lui	at,0x3f00
    5530:	44813000 	mtc1	at,$f6
    5534:	46049280 	add.s	$f10,$f18,$f4
    5538:	27a40084 	addiu	a0,sp,132
    553c:	8fa50044 	lw	a1,68(sp)
    5540:	8fa60040 	lw	a2,64(sp)
    5544:	46065202 	mul.s	$f8,$f10,$f6
    5548:	0c000000 	jal	0 <func_800437F0>
    554c:	e7a80090 	swc1	$f8,144(sp)
    5550:	862b002a 	lh	t3,42(s1)
    5554:	8e060004 	lw	a2,4(s0)
    5558:	8e070008 	lw	a3,8(s0)
    555c:	02002025 	move	a0,s0
    5560:	8fa50084 	lw	a1,132(sp)
    5564:	0c000000 	jal	0 <func_800437F0>
    5568:	afab0010 	sw	t3,16(sp)
    556c:	e7a00084 	swc1	$f0,132(sp)
    5570:	e60000dc 	swc1	$f0,220(s0)
    5574:	3c010000 	lui	at,0x0
    5578:	c4320000 	lwc1	$f18,0(at)
    557c:	c60400d8 	lwc1	$f4,216(s0)
    5580:	4604903c 	c.lt.s	$f18,$f4
    5584:	00000000 	nop
    5588:	4502000a 	bc1fl	55b4 <Camera_Normal3+0x5a0>
    558c:	3c013f80 	lui	at,0x3f80
    5590:	c7a00084 	lwc1	$f0,132(sp)
    5594:	c7aa0090 	lwc1	$f10,144(sp)
    5598:	3c010000 	lui	at,0x0
    559c:	c4280000 	lwc1	$f8,0(at)
    55a0:	46005181 	sub.s	$f6,$f10,$f0
    55a4:	46083482 	mul.s	$f18,$f6,$f8
    55a8:	46120000 	add.s	$f0,$f0,$f18
    55ac:	e7a00084 	swc1	$f0,132(sp)
    55b0:	3c013f80 	lui	at,0x3f80
    55b4:	44812000 	mtc1	at,$f4
    55b8:	c60a00c4 	lwc1	$f10,196(s0)
    55bc:	860c001c 	lh	t4,28(s0)
    55c0:	862d0024 	lh	t5,36(s1)
    55c4:	460a2183 	div.s	$f6,$f4,$f10
    55c8:	87a50078 	lh	a1,120(sp)
    55cc:	018d2023 	subu	a0,t4,t5
    55d0:	00042400 	sll	a0,a0,0x10
    55d4:	00042403 	sra	a0,a0,0x10
    55d8:	2407000a 	li	a3,10
    55dc:	44063000 	mfc1	a2,$f6
    55e0:	0c000000 	jal	0 <func_800437F0>
    55e4:	00000000 	nop
    55e8:	3c030000 	lui	v1,0x0
    55ec:	8c630000 	lw	v1,0(v1)
    55f0:	a7a20088 	sh	v0,136(sp)
    55f4:	27a60084 	addiu	a2,sp,132
    55f8:	8464019e 	lh	a0,414(v1)
    55fc:	0082082a 	slt	at,a0,v0
    5600:	50200003 	beqzl	at,5610 <Camera_Normal3+0x5fc>
    5604:	846201d8 	lh	v0,472(v1)
    5608:	a7a40088 	sh	a0,136(sp)
    560c:	846201d8 	lh	v0,472(v1)
    5610:	87ae0088 	lh	t6,136(sp)
    5614:	01c2082a 	slt	at,t6,v0
    5618:	50200003 	beqzl	at,5628 <Camera_Normal3+0x614>
    561c:	8faf003c 	lw	t7,60(sp)
    5620:	a7a20088 	sh	v0,136(sp)
    5624:	8faf003c 	lw	t7,60(sp)
    5628:	87a8007a 	lh	t0,122(sp)
    562c:	85f8000e 	lh	t8,14(t7)
    5630:	250a8001 	addiu	t2,t0,-32767
    5634:	030a2023 	subu	a0,t8,t2
    5638:	00042400 	sll	a0,a0,0x10
    563c:	00042403 	sra	a0,a0,0x10
    5640:	04800003 	bltz	a0,5650 <Camera_Normal3+0x63c>
    5644:	00041823 	negu	v1,a0
    5648:	10000001 	b	5650 <Camera_Normal3+0x63c>
    564c:	00801825 	move	v1,a0
    5650:	28612af9 	slti	at,v1,11001
    5654:	14200006 	bnez	at,5670 <Camera_Normal3+0x65c>
    5658:	87ae007a 	lh	t6,122(sp)
    565c:	58800004 	blezl	a0,5670 <Camera_Normal3+0x65c>
    5660:	2404d508 	li	a0,-11000
    5664:	10000002 	b	5670 <Camera_Normal3+0x65c>
    5668:	24042af8 	li	a0,11000
    566c:	2404d508 	li	a0,-11000
    5670:	3c013f00 	lui	at,0x3f00
    5674:	44816000 	mtc1	at,$f12
    5678:	3c013f80 	lui	at,0x3f80
    567c:	44812000 	mtc1	at,$f4
    5680:	c60200e0 	lwc1	$f2,224(s0)
    5684:	44844000 	mtc1	a0,$f8
    5688:	460c2281 	sub.s	$f10,$f4,$f12
    568c:	3c014316 	lui	at,0x4316
    5690:	87ab007a 	lh	t3,122(sp)
    5694:	468044a0 	cvt.s.w	$f18,$f8
    5698:	460a1182 	mul.s	$f6,$f2,$f10
    569c:	c60a00c8 	lwc1	$f10,200(s0)
    56a0:	460c3200 	add.s	$f8,$f6,$f12
    56a4:	44813000 	mtc1	at,$f6
    56a8:	3c013f80 	lui	at,0x3f80
    56ac:	46089102 	mul.s	$f4,$f18,$f8
    56b0:	44819000 	mtc1	at,$f18
    56b4:	00000000 	nop
    56b8:	46029201 	sub.s	$f8,$f18,$f2
    56bc:	460a2403 	div.s	$f16,$f4,$f10
    56c0:	46083102 	mul.s	$f4,$f6,$f8
    56c4:	46008005 	abs.s	$f0,$f16
    56c8:	4600203c 	c.lt.s	$f4,$f0
    56cc:	00000000 	nop
    56d0:	4502000a 	bc1fl	56fc <Camera_Normal3+0x6e8>
    56d4:	a7ae008a 	sh	t6,138(sp)
    56d8:	448b5000 	mtc1	t3,$f10
    56dc:	00000000 	nop
    56e0:	468054a0 	cvt.s.w	$f18,$f10
    56e4:	46109180 	add.s	$f6,$f18,$f16
    56e8:	4600320d 	trunc.w.s	$f8,$f6
    56ec:	440d4000 	mfc1	t5,$f8
    56f0:	10000002 	b	56fc <Camera_Normal3+0x6e8>
    56f4:	a7ad008a 	sh	t5,138(sp)
    56f8:	a7ae008a 	sh	t6,138(sp)
    56fc:	862f0028 	lh	t7,40(s1)
    5700:	87a8008a 	lh	t0,138(sp)
    5704:	59e00008 	blezl	t7,5728 <Camera_Normal3+0x714>
    5708:	8fa40040 	lw	a0,64(sp)
    570c:	86390026 	lh	t9,38(s1)
    5710:	01194821 	addu	t1,t0,t9
    5714:	a7a9008a 	sh	t1,138(sp)
    5718:	86380028 	lh	t8,40(s1)
    571c:	270affff 	addiu	t2,t8,-1
    5720:	a62a0028 	sh	t2,40(s1)
    5724:	8fa40040 	lw	a0,64(sp)
    5728:	0c000000 	jal	0 <func_800437F0>
    572c:	8fa50044 	lw	a1,68(sp)
    5730:	860b0140 	lh	t3,320(s0)
    5734:	24010007 	li	at,7
    5738:	02002025 	move	a0,s0
    573c:	1561000a 	bne	t3,at,5768 <Camera_Normal3+0x754>
    5740:	8fae0040 	lw	t6,64(sp)
    5744:	8e060004 	lw	a2,4(s0)
    5748:	8e07000c 	lw	a3,12(s0)
    574c:	27ac008c 	addiu	t4,sp,140
    5750:	afac0010 	sw	t4,16(sp)
    5754:	afb10014 	sw	s1,20(sp)
    5758:	0c000000 	jal	0 <func_800437F0>
    575c:	27a50084 	addiu	a1,sp,132
    5760:	10000009 	b	5788 <Camera_Normal3+0x774>
    5764:	c60c0014 	lwc1	$f12,20(s0)
    5768:	8fad0048 	lw	t5,72(sp)
    576c:	8dc80000 	lw	t0,0(t6)
    5770:	ada80000 	sw	t0,0(t5)
    5774:	8dcf0004 	lw	t7,4(t6)
    5778:	adaf0004 	sw	t7,4(t5)
    577c:	8dc80008 	lw	t0,8(t6)
    5780:	ada80008 	sw	t0,8(t5)
    5784:	c60c0014 	lwc1	$f12,20(s0)
    5788:	c60e00fc 	lwc1	$f14,252(s0)
    578c:	8e0600d4 	lw	a2,212(s0)
    5790:	0c000000 	jal	0 <func_800437F0>
    5794:	3c073f80 	lui	a3,0x3f80
    5798:	e60000fc 	swc1	$f0,252(s0)
    579c:	00002025 	move	a0,zero
    57a0:	8605015a 	lh	a1,346(s0)
    57a4:	3c063f00 	lui	a2,0x3f00
    57a8:	0c000000 	jal	0 <func_800437F0>
    57ac:	2407000a 	li	a3,10
    57b0:	a602015a 	sh	v0,346(s0)
    57b4:	02002025 	move	a0,s0
    57b8:	0c000000 	jal	0 <func_800437F0>
    57bc:	8e050018 	lw	a1,24(s0)
    57c0:	e6000100 	swc1	$f0,256(s0)
    57c4:	8fbf0024 	lw	ra,36(sp)
    57c8:	8fb10020 	lw	s1,32(sp)
    57cc:	8fb0001c 	lw	s0,28(sp)
    57d0:	27bd00a8 	addiu	sp,sp,168
    57d4:	03e00008 	jr	ra
    57d8:	24020001 	li	v0,1

000057dc <Camera_Normal4>:
    57dc:	27bdffe8 	addiu	sp,sp,-24
    57e0:	afbf0014 	sw	ra,20(sp)
    57e4:	0c000000 	jal	0 <func_800437F0>
    57e8:	00000000 	nop
    57ec:	8fbf0014 	lw	ra,20(sp)
    57f0:	27bd0018 	addiu	sp,sp,24
    57f4:	03e00008 	jr	ra
    57f8:	00000000 	nop

000057fc <Camera_Normal0>:
    57fc:	27bdffe8 	addiu	sp,sp,-24
    5800:	afbf0014 	sw	ra,20(sp)
    5804:	0c000000 	jal	0 <func_800437F0>
    5808:	00000000 	nop
    580c:	8fbf0014 	lw	ra,20(sp)
    5810:	27bd0018 	addiu	sp,sp,24
    5814:	03e00008 	jr	ra
    5818:	00000000 	nop

0000581c <Camera_Parallel1>:
    581c:	27bdff38 	addiu	sp,sp,-200
    5820:	afb00020 	sw	s0,32(sp)
    5824:	00808025 	move	s0,a0
    5828:	afbf0024 	sw	ra,36(sp)
    582c:	0c000000 	jal	0 <func_800437F0>
    5830:	8c840090 	lw	a0,144(a0)
    5834:	8602015e 	lh	v0,350(s0)
    5838:	10400008 	beqz	v0,585c <Camera_Parallel1+0x40>
    583c:	2401000a 	li	at,10
    5840:	10410006 	beq	v0,at,585c <Camera_Parallel1+0x40>
    5844:	24010014 	li	at,20
    5848:	10410004 	beq	v0,at,585c <Camera_Parallel1+0x40>
    584c:	3c0e0000 	lui	t6,0x0
    5850:	8dce0000 	lw	t6,0(t6)
    5854:	85c20314 	lh	v0,788(t6)
    5858:	1040006f 	beqz	v0,5a18 <Camera_Parallel1+0x1fc>
    585c:	3c0c0000 	lui	t4,0x0
    5860:	8d8c0000 	lw	t4,0(t4)
    5864:	3c010000 	lui	at,0x0
    5868:	c42e0000 	lwc1	$f14,0(at)
    586c:	858d01f0 	lh	t5,496(t4)
    5870:	3c013f00 	lui	at,0x3f00
    5874:	44818000 	mtc1	at,$f16
    5878:	448d2000 	mtc1	t5,$f4
    587c:	3c010000 	lui	at,0x0
    5880:	c4320000 	lwc1	$f18,0(at)
    5884:	468021a0 	cvt.s.w	$f6,$f4
    5888:	3c013f80 	lui	at,0x3f80
    588c:	44814000 	mtc1	at,$f8
    5890:	3c014288 	lui	at,0x4288
    5894:	44812000 	mtc1	at,$f4
    5898:	860f0142 	lh	t7,322(s0)
    589c:	46123082 	mul.s	$f2,$f6,$f18
    58a0:	46002183 	div.s	$f6,$f4,$f0
    58a4:	3c190000 	lui	t9,0x0
    58a8:	000fc0c0 	sll	t8,t7,0x3
    58ac:	86090144 	lh	t1,324(s0)
    58b0:	0338c821 	addu	t9,t9,t8
    58b4:	8f390004 	lw	t9,4(t9)
    58b8:	000950c0 	sll	t2,t1,0x3
    58bc:	46024280 	add.s	$f10,$f8,$f2
    58c0:	032a5821 	addu	t3,t9,t2
    58c4:	8d620004 	lw	v0,4(t3)
    58c8:	3c0b0000 	lui	t3,0x0
    58cc:	844e0000 	lh	t6,0(v0)
    58d0:	24420028 	addiu	v0,v0,40
    58d4:	448e2000 	mtc1	t6,$f4
    58d8:	46061202 	mul.s	$f8,$f2,$f6
    58dc:	468021a0 	cvt.s.w	$f6,$f4
    58e0:	46085301 	sub.s	$f12,$f10,$f8
    58e4:	46123282 	mul.s	$f10,$f6,$f18
    58e8:	00000000 	nop
    58ec:	46005202 	mul.s	$f8,$f10,$f0
    58f0:	00000000 	nop
    58f4:	460c4102 	mul.s	$f4,$f8,$f12
    58f8:	e6040000 	swc1	$f4,0(s0)
    58fc:	844fffdc 	lh	t7,-36(v0)
    5900:	448f3000 	mtc1	t7,$f6
    5904:	00000000 	nop
    5908:	468032a0 	cvt.s.w	$f10,$f6
    590c:	46125202 	mul.s	$f8,$f10,$f18
    5910:	00000000 	nop
    5914:	46004102 	mul.s	$f4,$f8,$f0
    5918:	00000000 	nop
    591c:	460c2182 	mul.s	$f6,$f4,$f12
    5920:	e6060004 	swc1	$f6,4(s0)
    5924:	8458ffe0 	lh	t8,-32(v0)
    5928:	44985000 	mtc1	t8,$f10
    592c:	00000000 	nop
    5930:	46805220 	cvt.s.w	$f8,$f10
    5934:	460e4102 	mul.s	$f4,$f8,$f14
    5938:	46102180 	add.s	$f6,$f4,$f16
    593c:	4600328d 	trunc.w.s	$f10,$f6
    5940:	44195000 	mfc1	t9,$f10
    5944:	00000000 	nop
    5948:	a6190020 	sh	t9,32(s0)
    594c:	844affe4 	lh	t2,-28(v0)
    5950:	448a4000 	mtc1	t2,$f8
    5954:	00000000 	nop
    5958:	46804120 	cvt.s.w	$f4,$f8
    595c:	460e2182 	mul.s	$f6,$f4,$f14
    5960:	46103280 	add.s	$f10,$f6,$f16
    5964:	4600520d 	trunc.w.s	$f8,$f10
    5968:	440c4000 	mfc1	t4,$f8
    596c:	00000000 	nop
    5970:	a60c0022 	sh	t4,34(s0)
    5974:	844dffe8 	lh	t5,-24(v0)
    5978:	448d2000 	mtc1	t5,$f4
    597c:	00000000 	nop
    5980:	468021a0 	cvt.s.w	$f6,$f4
    5984:	e6060008 	swc1	$f6,8(s0)
    5988:	844effec 	lh	t6,-20(v0)
    598c:	448e5000 	mtc1	t6,$f10
    5990:	00000000 	nop
    5994:	46805220 	cvt.s.w	$f8,$f10
    5998:	e608000c 	swc1	$f8,12(s0)
    599c:	844ffff0 	lh	t7,-16(v0)
    59a0:	448f2000 	mtc1	t7,$f4
    59a4:	00000000 	nop
    59a8:	468021a0 	cvt.s.w	$f6,$f4
    59ac:	e6060010 	swc1	$f6,16(s0)
    59b0:	8458fff4 	lh	t8,-12(v0)
    59b4:	44985000 	mtc1	t8,$f10
    59b8:	00000000 	nop
    59bc:	46805220 	cvt.s.w	$f8,$f10
    59c0:	46124102 	mul.s	$f4,$f8,$f18
    59c4:	e6040014 	swc1	$f4,20(s0)
    59c8:	8449fff8 	lh	t1,-8(v0)
    59cc:	a6090024 	sh	t1,36(s0)
    59d0:	8459fffc 	lh	t9,-4(v0)
    59d4:	44993000 	mtc1	t9,$f6
    59d8:	00000000 	nop
    59dc:	468032a0 	cvt.s.w	$f10,$f6
    59e0:	46125202 	mul.s	$f8,$f10,$f18
    59e4:	00000000 	nop
    59e8:	46004102 	mul.s	$f4,$f8,$f0
    59ec:	00000000 	nop
    59f0:	460c2182 	mul.s	$f6,$f4,$f12
    59f4:	e6060018 	swc1	$f6,24(s0)
    59f8:	844a0000 	lh	t2,0(v0)
    59fc:	448a5000 	mtc1	t2,$f10
    5a00:	00000000 	nop
    5a04:	46805220 	cvt.s.w	$f8,$f10
    5a08:	46124102 	mul.s	$f4,$f8,$f18
    5a0c:	e604001c 	swc1	$f4,28(s0)
    5a10:	8d6b0000 	lw	t3,0(t3)
    5a14:	85620314 	lh	v0,788(t3)
    5a18:	50400004 	beqzl	v0,5a2c <Camera_Parallel1+0x210>
    5a1c:	26050050 	addiu	a1,s0,80
    5a20:	0c000000 	jal	0 <func_800437F0>
    5a24:	02002025 	move	a0,s0
    5a28:	26050050 	addiu	a1,s0,80
    5a2c:	2606005c 	addiu	a2,s0,92
    5a30:	afa60040 	sw	a2,64(sp)
    5a34:	afa5003c 	sw	a1,60(sp)
    5a38:	0c000000 	jal	0 <func_800437F0>
    5a3c:	27a400a0 	addiu	a0,sp,160
    5a40:	26060074 	addiu	a2,s0,116
    5a44:	afa60038 	sw	a2,56(sp)
    5a48:	27a40098 	addiu	a0,sp,152
    5a4c:	0c000000 	jal	0 <func_800437F0>
    5a50:	8fa5003c 	lw	a1,60(sp)
    5a54:	8603015e 	lh	v1,350(s0)
    5a58:	10600009 	beqz	v1,5a80 <Camera_Parallel1+0x264>
    5a5c:	2401000a 	li	at,10
    5a60:	10610007 	beq	v1,at,5a80 <Camera_Parallel1+0x264>
    5a64:	24010014 	li	at,20
    5a68:	10610005 	beq	v1,at,5a80 <Camera_Parallel1+0x264>
    5a6c:	24010019 	li	at,25
    5a70:	50610004 	beql	v1,at,5a84 <Camera_Parallel1+0x268>
    5a74:	26080028 	addiu	t0,s0,40
    5a78:	10000017 	b	5ad8 <Camera_Parallel1+0x2bc>
    5a7c:	26080028 	addiu	t0,s0,40
    5a80:	26080028 	addiu	t0,s0,40
    5a84:	a5000016 	sh	zero,22(t0)
    5a88:	a5000010 	sh	zero,16(t0)
    5a8c:	860c0024 	lh	t4,36(s0)
    5a90:	44803000 	mtc1	zero,$f6
    5a94:	240e0014 	li	t6,20
    5a98:	318d0004 	andi	t5,t4,0x4
    5a9c:	11a00003 	beqz	t5,5aac <Camera_Parallel1+0x290>
    5aa0:	3c0f0000 	lui	t7,0x0
    5aa4:	10000004 	b	5ab8 <Camera_Parallel1+0x29c>
    5aa8:	a50e0018 	sh	t6,24(t0)
    5aac:	8def0000 	lw	t7,0(t7)
    5ab0:	85f801c2 	lh	t8,450(t7)
    5ab4:	a5180018 	sh	t8,24(t0)
    5ab8:	e5060000 	swc1	$f6,0(t0)
    5abc:	c60800f4 	lwc1	$f8,244(s0)
    5ac0:	c60a0098 	lwc1	$f10,152(s0)
    5ac4:	46085101 	sub.s	$f4,$f10,$f8
    5ac8:	e504000c 	swc1	$f4,12(t0)
    5acc:	8609015e 	lh	t1,350(s0)
    5ad0:	25390001 	addiu	t9,t1,1
    5ad4:	a619015e 	sh	t9,350(s0)
    5ad8:	850a0018 	lh	t2,24(t0)
    5adc:	3c030000 	lui	v1,0x0
    5ae0:	51400013 	beqzl	t2,5b30 <Camera_Parallel1+0x314>
    5ae4:	86020024 	lh	v0,36(s0)
    5ae8:	86020024 	lh	v0,36(s0)
    5aec:	304b0002 	andi	t3,v0,0x2
    5af0:	11600007 	beqz	t3,5b10 <Camera_Parallel1+0x2f4>
    5af4:	30590004 	andi	t9,v0,0x4
    5af8:	860c00a2 	lh	t4,162(s0)
    5afc:	86180022 	lh	t8,34(s0)
    5b00:	258f8001 	addiu	t7,t4,-32767
    5b04:	01f84821 	addu	t1,t7,t8
    5b08:	10000014 	b	5b5c <Camera_Parallel1+0x340>
    5b0c:	a5090012 	sh	t1,18(t0)
    5b10:	13200004 	beqz	t9,5b24 <Camera_Parallel1+0x308>
    5b14:	87ab009e 	lh	t3,158(sp)
    5b18:	860a0022 	lh	t2,34(s0)
    5b1c:	1000000f 	b	5b5c <Camera_Parallel1+0x340>
    5b20:	a50a0012 	sh	t2,18(t0)
    5b24:	1000000d 	b	5b5c <Camera_Parallel1+0x340>
    5b28:	a50b0012 	sh	t3,18(t0)
    5b2c:	86020024 	lh	v0,36(s0)
    5b30:	3c010000 	lui	at,0x0
    5b34:	304c0020 	andi	t4,v0,0x20
    5b38:	11800007 	beqz	t4,5b58 <Camera_Parallel1+0x33c>
    5b3c:	00000000 	nop
    5b40:	860d00a2 	lh	t5,162(s0)
    5b44:	86090022 	lh	t1,34(s0)
    5b48:	25b88001 	addiu	t8,t5,-32767
    5b4c:	0309c821 	addu	t9,t8,t1
    5b50:	a5190012 	sh	t9,18(t0)
    5b54:	86020024 	lh	v0,36(s0)
    5b58:	ac220000 	sw	v0,0(at)
    5b5c:	860a0020 	lh	t2,32(s0)
    5b60:	24010015 	li	at,21
    5b64:	a50a0014 	sh	t2,20(t0)
    5b68:	8602015e 	lh	v0,350(s0)
    5b6c:	54410006 	bnel	v0,at,5b88 <Camera_Parallel1+0x36c>
    5b70:	2401000b 	li	at,11
    5b74:	24020001 	li	v0,1
    5b78:	a5020016 	sh	v0,22(t0)
    5b7c:	10000005 	b	5b94 <Camera_Parallel1+0x378>
    5b80:	a602015e 	sh	v0,350(s0)
    5b84:	2401000b 	li	at,11
    5b88:	14410002 	bne	v0,at,5b94 <Camera_Parallel1+0x378>
    5b8c:	24020001 	li	v0,1
    5b90:	a602015e 	sh	v0,350(s0)
    5b94:	8c630000 	lw	v1,0(v1)
    5b98:	3c010000 	lui	at,0x0
    5b9c:	c4300000 	lwc1	$f16,0(at)
    5ba0:	846b01c6 	lh	t3,454(v1)
    5ba4:	846c01c8 	lh	t4,456(v1)
    5ba8:	c60000e0 	lwc1	$f0,224(s0)
    5bac:	448b3000 	mtc1	t3,$f6
    5bb0:	448c2000 	mtc1	t4,$f4
    5bb4:	3c073dcc 	lui	a3,0x3dcc
    5bb8:	468032a0 	cvt.s.w	$f10,$f6
    5bbc:	34e7cccd 	ori	a3,a3,0xcccd
    5bc0:	468021a0 	cvt.s.w	$f6,$f4
    5bc4:	46105202 	mul.s	$f8,$f10,$f16
    5bc8:	00000000 	nop
    5bcc:	46004082 	mul.s	$f2,$f8,$f0
    5bd0:	00000000 	nop
    5bd4:	46103282 	mul.s	$f10,$f6,$f16
    5bd8:	44061000 	mfc1	a2,$f2
    5bdc:	46005202 	mul.s	$f8,$f10,$f0
    5be0:	e7a800b4 	swc1	$f8,180(sp)
    5be4:	846d01a0 	lh	t5,416(v1)
    5be8:	c60e00c0 	lwc1	$f14,192(s0)
    5bec:	e7a200b8 	swc1	$f2,184(sp)
    5bf0:	448d2000 	mtc1	t5,$f4
    5bf4:	afa80034 	sw	t0,52(sp)
    5bf8:	0c000000 	jal	0 <func_800437F0>
    5bfc:	46802320 	cvt.s.w	$f12,$f4
    5c00:	c7a200b8 	lwc1	$f2,184(sp)
    5c04:	3c073dcc 	lui	a3,0x3dcc
    5c08:	e60000c0 	swc1	$f0,192(s0)
    5c0c:	44061000 	mfc1	a2,$f2
    5c10:	34e7cccd 	ori	a3,a3,0xcccd
    5c14:	c60c0008 	lwc1	$f12,8(s0)
    5c18:	0c000000 	jal	0 <func_800437F0>
    5c1c:	c60e00c8 	lwc1	$f14,200(s0)
    5c20:	3c014000 	lui	at,0x4000
    5c24:	e60000c8 	swc1	$f0,200(s0)
    5c28:	44816000 	mtc1	at,$f12
    5c2c:	3c073dcc 	lui	a3,0x3dcc
    5c30:	34e7cccd 	ori	a3,a3,0xcccd
    5c34:	8fa600b4 	lw	a2,180(sp)
    5c38:	0c000000 	jal	0 <func_800437F0>
    5c3c:	c60e00c4 	lwc1	$f14,196(s0)
    5c40:	c7a200b8 	lwc1	$f2,184(sp)
    5c44:	e60000c4 	swc1	$f0,196(s0)
    5c48:	3c0e0000 	lui	t6,0x0
    5c4c:	8dce0000 	lw	t6,0(t6)
    5c50:	3c010000 	lui	at,0x0
    5c54:	c4280000 	lwc1	$f8,0(at)
    5c58:	85cf0198 	lh	t7,408(t6)
    5c5c:	3c073dcc 	lui	a3,0x3dcc
    5c60:	44061000 	mfc1	a2,$f2
    5c64:	448f3000 	mtc1	t7,$f6
    5c68:	34e7cccd 	ori	a3,a3,0xcccd
    5c6c:	c60e00cc 	lwc1	$f14,204(s0)
    5c70:	468032a0 	cvt.s.w	$f10,$f6
    5c74:	46085302 	mul.s	$f12,$f10,$f8
    5c78:	0c000000 	jal	0 <func_800437F0>
    5c7c:	00000000 	nop
    5c80:	e60000cc 	swc1	$f0,204(s0)
    5c84:	3c180000 	lui	t8,0x0
    5c88:	8f180000 	lw	t8,0(t8)
    5c8c:	3c010000 	lui	at,0x0
    5c90:	c42a0000 	lwc1	$f10,0(at)
    5c94:	8709019a 	lh	t1,410(t8)
    5c98:	3c073dcc 	lui	a3,0x3dcc
    5c9c:	34e7cccd 	ori	a3,a3,0xcccd
    5ca0:	44892000 	mtc1	t1,$f4
    5ca4:	8fa600b4 	lw	a2,180(sp)
    5ca8:	c60e00d0 	lwc1	$f14,208(s0)
    5cac:	468021a0 	cvt.s.w	$f6,$f4
    5cb0:	460a3302 	mul.s	$f12,$f6,$f10
    5cb4:	0c000000 	jal	0 <func_800437F0>
    5cb8:	00000000 	nop
    5cbc:	e60000d0 	swc1	$f0,208(s0)
    5cc0:	3c190000 	lui	t9,0x0
    5cc4:	8f390000 	lw	t9,0(t9)
    5cc8:	3c010000 	lui	at,0x0
    5ccc:	c4260000 	lwc1	$f6,0(at)
    5cd0:	872a019c 	lh	t2,412(t9)
    5cd4:	3c010000 	lui	at,0x0
    5cd8:	c60a00e0 	lwc1	$f10,224(s0)
    5cdc:	448a4000 	mtc1	t2,$f8
    5ce0:	3c073dcc 	lui	a3,0x3dcc
    5ce4:	34e7cccd 	ori	a3,a3,0xcccd
    5ce8:	46804120 	cvt.s.w	$f4,$f8
    5cec:	c4280000 	lwc1	$f8,0(at)
    5cf0:	c60e00d4 	lwc1	$f14,212(s0)
    5cf4:	46062302 	mul.s	$f12,$f4,$f6
    5cf8:	00000000 	nop
    5cfc:	46085102 	mul.s	$f4,$f10,$f8
    5d00:	44062000 	mfc1	a2,$f4
    5d04:	0c000000 	jal	0 <func_800437F0>
    5d08:	00000000 	nop
    5d0c:	860b0024 	lh	t3,36(s0)
    5d10:	8fa80034 	lw	t0,52(sp)
    5d14:	e60000d4 	swc1	$f0,212(s0)
    5d18:	316c0001 	andi	t4,t3,0x1
    5d1c:	51800024 	beqzl	t4,5db0 <Camera_Parallel1+0x594>
    5d20:	a5000010 	sh	zero,16(t0)
    5d24:	87a500a6 	lh	a1,166(sp)
    5d28:	02002025 	move	a0,s0
    5d2c:	24060001 	li	a2,1
    5d30:	24a58001 	addiu	a1,a1,-32767
    5d34:	00052c00 	sll	a1,a1,0x10
    5d38:	00052c03 	sra	a1,a1,0x10
    5d3c:	0c000000 	jal	0 <func_800437F0>
    5d40:	afa80034 	sw	t0,52(sp)
    5d44:	3c013f80 	lui	at,0x3f80
    5d48:	44817000 	mtc1	at,$f14
    5d4c:	c606000c 	lwc1	$f6,12(s0)
    5d50:	3c010000 	lui	at,0x0
    5d54:	c42a0000 	lwc1	$f10,0(at)
    5d58:	46067003 	div.s	$f0,$f14,$f6
    5d5c:	3c010000 	lui	at,0x0
    5d60:	c4280000 	lwc1	$f8,0(at)
    5d64:	c60600e0 	lwc1	$f6,224(s0)
    5d68:	8fa80034 	lw	t0,52(sp)
    5d6c:	00022400 	sll	a0,v0,0x10
    5d70:	00042403 	sra	a0,a0,0x10
    5d74:	2407000f 	li	a3,15
    5d78:	85050010 	lh	a1,16(t0)
    5d7c:	460a0082 	mul.s	$f2,$f0,$f10
    5d80:	46067281 	sub.s	$f10,$f14,$f6
    5d84:	46080102 	mul.s	$f4,$f0,$f8
    5d88:	00000000 	nop
    5d8c:	460a2302 	mul.s	$f12,$f4,$f10
    5d90:	460c1200 	add.s	$f8,$f2,$f12
    5d94:	44064000 	mfc1	a2,$f8
    5d98:	0c000000 	jal	0 <func_800437F0>
    5d9c:	00000000 	nop
    5da0:	8fa80034 	lw	t0,52(sp)
    5da4:	10000002 	b	5db0 <Camera_Parallel1+0x594>
    5da8:	a5020010 	sh	v0,16(t0)
    5dac:	a5000010 	sh	zero,16(t0)
    5db0:	c6060098 	lwc1	$f6,152(s0)
    5db4:	c6040104 	lwc1	$f4,260(s0)
    5db8:	46043032 	c.eq.s	$f6,$f4
    5dbc:	00000000 	nop
    5dc0:	4503000f 	bc1tl	5e00 <Camera_Parallel1+0x5e4>
    5dc4:	c6060098 	lwc1	$f6,152(s0)
    5dc8:	8e020090 	lw	v0,144(s0)
    5dcc:	3c010000 	lui	at,0x0
    5dd0:	c42a0000 	lwc1	$f10,0(at)
    5dd4:	c448006c 	lwc1	$f8,108(v0)
    5dd8:	4608503c 	c.lt.s	$f10,$f8
    5ddc:	00000000 	nop
    5de0:	45030007 	bc1tl	5e00 <Camera_Parallel1+0x5e4>
    5de4:	c6060098 	lwc1	$f6,152(s0)
    5de8:	8c4d067c 	lw	t5,1660(v0)
    5dec:	240f0001 	li	t7,1
    5df0:	000d7280 	sll	t6,t5,0xa
    5df4:	05c30006 	bgezl	t6,5e10 <Camera_Parallel1+0x5f4>
    5df8:	a7af006a 	sh	t7,106(sp)
    5dfc:	c6060098 	lwc1	$f6,152(s0)
    5e00:	e506000c 	swc1	$f6,12(t0)
    5e04:	10000002 	b	5e10 <Camera_Parallel1+0x5f4>
    5e08:	a7a0006a 	sh	zero,106(sp)
    5e0c:	a7af006a 	sh	t7,106(sp)
    5e10:	86020024 	lh	v0,36(s0)
    5e14:	87a9006a 	lh	t1,106(sp)
    5e18:	02002025 	move	a0,s0
    5e1c:	30580080 	andi	t8,v0,0x80
    5e20:	1700000c 	bnez	t8,5e54 <Camera_Parallel1+0x638>
    5e24:	27a50098 	addiu	a1,sp,152
    5e28:	1520000a 	bnez	t1,5e54 <Camera_Parallel1+0x638>
    5e2c:	2507000c 	addiu	a3,t0,12
    5e30:	8e060000 	lw	a2,0(s0)
    5e34:	30590001 	andi	t9,v0,0x1
    5e38:	afb90010 	sw	t9,16(sp)
    5e3c:	afa80034 	sw	t0,52(sp)
    5e40:	02002025 	move	a0,s0
    5e44:	0c000000 	jal	0 <func_800437F0>
    5e48:	27a50098 	addiu	a1,sp,152
    5e4c:	10000008 	b	5e70 <Camera_Parallel1+0x654>
    5e50:	8fa80034 	lw	t0,52(sp)
    5e54:	8e060018 	lw	a2,24(s0)
    5e58:	304a0001 	andi	t2,v0,0x1
    5e5c:	afaa0010 	sw	t2,16(sp)
    5e60:	afa80034 	sw	t0,52(sp)
    5e64:	0c000000 	jal	0 <func_800437F0>
    5e68:	2507000c 	addiu	a3,t0,12
    5e6c:	8fa80034 	lw	t0,52(sp)
    5e70:	850b0018 	lh	t3,24(t0)
    5e74:	51600028 	beqzl	t3,5f18 <Camera_Parallel1+0x6fc>
    5e78:	a5000016 	sh	zero,22(t0)
    5e7c:	860c014c 	lh	t4,332(s0)
    5e80:	358d0020 	ori	t5,t4,0x20
    5e84:	a60d014c 	sh	t5,332(s0)
    5e88:	85020018 	lh	v0,24(t0)
    5e8c:	87b800a6 	lh	t8,166(sp)
    5e90:	850f0012 	lh	t7,18(t0)
    5e94:	244e0001 	addiu	t6,v0,1
    5e98:	01c20019 	multu	t6,v0
    5e9c:	01f84823 	subu	t1,t7,t8
    5ea0:	0009cc00 	sll	t9,t1,0x10
    5ea4:	00195403 	sra	t2,t9,0x10
    5ea8:	87ae00a4 	lh	t6,164(sp)
    5eac:	c7a400a0 	lwc1	$f4,160(sp)
    5eb0:	a7ae00ac 	sh	t6,172(sp)
    5eb4:	e7a400a8 	swc1	$f4,168(sp)
    5eb8:	00001812 	mflo	v1
    5ebc:	00031843 	sra	v1,v1,0x1
    5ec0:	00031c00 	sll	v1,v1,0x10
    5ec4:	00031c03 	sra	v1,v1,0x10
    5ec8:	0143001a 	div	zero,t2,v1
    5ecc:	00005812 	mflo	t3
    5ed0:	14600002 	bnez	v1,5edc <Camera_Parallel1+0x6c0>
    5ed4:	00000000 	nop
    5ed8:	0007000d 	break	0x7
    5edc:	2401ffff 	li	at,-1
    5ee0:	14610004 	bne	v1,at,5ef4 <Camera_Parallel1+0x6d8>
    5ee4:	3c018000 	lui	at,0x8000
    5ee8:	15410002 	bne	t2,at,5ef4 <Camera_Parallel1+0x6d8>
    5eec:	00000000 	nop
    5ef0:	0006000d 	break	0x6
    5ef4:	01620019 	multu	t3,v0
    5ef8:	00006012 	mflo	t4
    5efc:	030c6821 	addu	t5,t8,t4
    5f00:	a7ad00ae 	sh	t5,174(sp)
    5f04:	850f0018 	lh	t7,24(t0)
    5f08:	25e9ffff 	addiu	t1,t7,-1
    5f0c:	1000004d 	b	6044 <Camera_Parallel1+0x828>
    5f10:	a5090018 	sh	t1,24(t0)
    5f14:	a5000016 	sh	zero,22(t0)
    5f18:	3c013f80 	lui	at,0x3f80
    5f1c:	44815000 	mtc1	at,$f10
    5f20:	c60800c0 	lwc1	$f8,192(s0)
    5f24:	c60e00dc 	lwc1	$f14,220(s0)
    5f28:	c60c0004 	lwc1	$f12,4(s0)
    5f2c:	46085183 	div.s	$f6,$f10,$f8
    5f30:	afa80034 	sw	t0,52(sp)
    5f34:	3c074000 	lui	a3,0x4000
    5f38:	44063000 	mfc1	a2,$f6
    5f3c:	0c000000 	jal	0 <func_800437F0>
    5f40:	00000000 	nop
    5f44:	e60000dc 	swc1	$f0,220(s0)
    5f48:	8fa60038 	lw	a2,56(sp)
    5f4c:	8fa5003c 	lw	a1,60(sp)
    5f50:	0c000000 	jal	0 <func_800437F0>
    5f54:	27a400a8 	addiu	a0,sp,168
    5f58:	c60400dc 	lwc1	$f4,220(s0)
    5f5c:	3c063f4c 	lui	a2,0x3f4c
    5f60:	8fa80034 	lw	t0,52(sp)
    5f64:	e7a400a8 	swc1	$f4,168(sp)
    5f68:	86190024 	lh	t9,36(s0)
    5f6c:	34c6cccd 	ori	a2,a2,0xcccd
    5f70:	87a5009e 	lh	a1,158(sp)
    5f74:	332a0040 	andi	t2,t9,0x40
    5f78:	1140000b 	beqz	t2,5fa8 <Camera_Parallel1+0x78c>
    5f7c:	2407000a 	li	a3,10
    5f80:	85040012 	lh	a0,18(t0)
    5f84:	3c063f19 	lui	a2,0x3f19
    5f88:	34c6999a 	ori	a2,a2,0x999a
    5f8c:	afa80034 	sw	t0,52(sp)
    5f90:	87a5009e 	lh	a1,158(sp)
    5f94:	0c000000 	jal	0 <func_800437F0>
    5f98:	2407000a 	li	a3,10
    5f9c:	8fa80034 	lw	t0,52(sp)
    5fa0:	10000006 	b	5fbc <Camera_Parallel1+0x7a0>
    5fa4:	a7a200ae 	sh	v0,174(sp)
    5fa8:	85040012 	lh	a0,18(t0)
    5fac:	0c000000 	jal	0 <func_800437F0>
    5fb0:	afa80034 	sw	t0,52(sp)
    5fb4:	8fa80034 	lw	t0,52(sp)
    5fb8:	a7a200ae 	sh	v0,174(sp)
    5fbc:	860b0024 	lh	t3,36(s0)
    5fc0:	3c013f80 	lui	at,0x3f80
    5fc4:	44815000 	mtc1	at,$f10
    5fc8:	31780001 	andi	t8,t3,0x1
    5fcc:	53000008 	beqzl	t8,5ff0 <Camera_Parallel1+0x7d4>
    5fd0:	85040014 	lh	a0,20(t0)
    5fd4:	850c0014 	lh	t4,20(t0)
    5fd8:	850d0010 	lh	t5,16(t0)
    5fdc:	018d2023 	subu	a0,t4,t5
    5fe0:	00042400 	sll	a0,a0,0x10
    5fe4:	10000002 	b	5ff0 <Camera_Parallel1+0x7d4>
    5fe8:	00042403 	sra	a0,a0,0x10
    5fec:	85040014 	lh	a0,20(t0)
    5ff0:	c60800c4 	lwc1	$f8,196(s0)
    5ff4:	87a5009c 	lh	a1,156(sp)
    5ff8:	24070004 	li	a3,4
    5ffc:	46085183 	div.s	$f6,$f10,$f8
    6000:	44063000 	mfc1	a2,$f6
    6004:	0c000000 	jal	0 <func_800437F0>
    6008:	00000000 	nop
    600c:	3c030000 	lui	v1,0x0
    6010:	8c630000 	lw	v1,0(v1)
    6014:	a7a200ac 	sh	v0,172(sp)
    6018:	8464019e 	lh	a0,414(v1)
    601c:	0082082a 	slt	at,a0,v0
    6020:	50200003 	beqzl	at,6030 <Camera_Parallel1+0x814>
    6024:	846201d8 	lh	v0,472(v1)
    6028:	a7a400ac 	sh	a0,172(sp)
    602c:	846201d8 	lh	v0,472(v1)
    6030:	87ae00ac 	lh	t6,172(sp)
    6034:	01c2082a 	slt	at,t6,v0
    6038:	50200003 	beqzl	at,6048 <Camera_Parallel1+0x82c>
    603c:	8fa40038 	lw	a0,56(sp)
    6040:	a7a200ac 	sh	v0,172(sp)
    6044:	8fa40038 	lw	a0,56(sp)
    6048:	8fa5003c 	lw	a1,60(sp)
    604c:	0c000000 	jal	0 <func_800437F0>
    6050:	27a600a8 	addiu	a2,sp,168
    6054:	860f0140 	lh	t7,320(s0)
    6058:	24010007 	li	at,7
    605c:	8fa90038 	lw	t1,56(sp)
    6060:	55e10032 	bnel	t7,at,612c <Camera_Parallel1+0x910>
    6064:	c60c0010 	lwc1	$f12,16(s0)
    6068:	8d2a0000 	lw	t2,0(t1)
    606c:	27a6006c 	addiu	a2,sp,108
    6070:	3c180001 	lui	t8,0x1
    6074:	acca0000 	sw	t2,0(a2)
    6078:	8d390004 	lw	t9,4(t1)
    607c:	02002025 	move	a0,s0
    6080:	acd90004 	sw	t9,4(a2)
    6084:	8d2a0008 	lw	t2,8(t1)
    6088:	acca0008 	sw	t2,8(a2)
    608c:	8e0b008c 	lw	t3,140(s0)
    6090:	030bc021 	addu	t8,t8,t3
    6094:	93180a39 	lbu	t8,2617(t8)
    6098:	13000006 	beqz	t8,60b4 <Camera_Parallel1+0x898>
    609c:	00000000 	nop
    60a0:	860c0024 	lh	t4,36(s0)
    60a4:	8fa5003c 	lw	a1,60(sp)
    60a8:	318d0010 	andi	t5,t4,0x10
    60ac:	11a0000c 	beqz	t5,60e0 <Camera_Parallel1+0x8c4>
    60b0:	00000000 	nop
    60b4:	0c000000 	jal	0 <func_800437F0>
    60b8:	8fa5003c 	lw	a1,60(sp)
    60bc:	27af006c 	addiu	t7,sp,108
    60c0:	8df90000 	lw	t9,0(t7)
    60c4:	8fae0040 	lw	t6,64(sp)
    60c8:	add90000 	sw	t9,0(t6)
    60cc:	8de90004 	lw	t1,4(t7)
    60d0:	adc90004 	sw	t1,4(t6)
    60d4:	8df90008 	lw	t9,8(t7)
    60d8:	10000013 	b	6128 <Camera_Parallel1+0x90c>
    60dc:	add90008 	sw	t9,8(t6)
    60e0:	0c000000 	jal	0 <func_800437F0>
    60e4:	02002025 	move	a0,s0
    60e8:	27aa006c 	addiu	t2,sp,108
    60ec:	8fa50040 	lw	a1,64(sp)
    60f0:	8d580000 	lw	t8,0(t2)
    60f4:	27a400a8 	addiu	a0,sp,168
    60f8:	acb80000 	sw	t8,0(a1)
    60fc:	8d4b0004 	lw	t3,4(t2)
    6100:	acab0004 	sw	t3,4(a1)
    6104:	8d580008 	lw	t8,8(t2)
    6108:	acb80008 	sw	t8,8(a1)
    610c:	0c000000 	jal	0 <func_800437F0>
    6110:	8fa6003c 	lw	a2,60(sp)
    6114:	87ac00ac 	lh	t4,172(sp)
    6118:	a60c0134 	sh	t4,308(s0)
    611c:	87ad00ae 	lh	t5,174(sp)
    6120:	a6000138 	sh	zero,312(s0)
    6124:	a60d0136 	sh	t5,310(s0)
    6128:	c60c0010 	lwc1	$f12,16(s0)
    612c:	c60e00fc 	lwc1	$f14,252(s0)
    6130:	8e0600d4 	lw	a2,212(s0)
    6134:	0c000000 	jal	0 <func_800437F0>
    6138:	3c073f80 	lui	a3,0x3f80
    613c:	e60000fc 	swc1	$f0,252(s0)
    6140:	00002025 	move	a0,zero
    6144:	8605015a 	lh	a1,346(s0)
    6148:	3c063f00 	lui	a2,0x3f00
    614c:	0c000000 	jal	0 <func_800437F0>
    6150:	2407000a 	li	a3,10
    6154:	a602015a 	sh	v0,346(s0)
    6158:	87ae006a 	lh	t6,106(sp)
    615c:	51c00004 	beqzl	t6,6170 <Camera_Parallel1+0x954>
    6160:	c6000014 	lwc1	$f0,20(s0)
    6164:	10000002 	b	6170 <Camera_Parallel1+0x954>
    6168:	c600001c 	lwc1	$f0,28(s0)
    616c:	c6000014 	lwc1	$f0,20(s0)
    6170:	44050000 	mfc1	a1,$f0
    6174:	0c000000 	jal	0 <func_800437F0>
    6178:	02002025 	move	a0,s0
    617c:	e6000100 	swc1	$f0,256(s0)
    6180:	8fbf0024 	lw	ra,36(sp)
    6184:	8fb00020 	lw	s0,32(sp)
    6188:	27bd00c8 	addiu	sp,sp,200
    618c:	03e00008 	jr	ra
    6190:	00000000 	nop

00006194 <Camera_Parallel2>:
    6194:	27bdffe8 	addiu	sp,sp,-24
    6198:	afbf0014 	sw	ra,20(sp)
    619c:	0c000000 	jal	0 <func_800437F0>
    61a0:	00000000 	nop
    61a4:	8fbf0014 	lw	ra,20(sp)
    61a8:	27bd0018 	addiu	sp,sp,24
    61ac:	03e00008 	jr	ra
    61b0:	00000000 	nop

000061b4 <Camera_Parallel3>:
    61b4:	848e0142 	lh	t6,322(a0)
    61b8:	3c180000 	lui	t8,0x0
    61bc:	84990144 	lh	t9,324(a0)
    61c0:	000e78c0 	sll	t7,t6,0x3
    61c4:	030fc021 	addu	t8,t8,t7
    61c8:	8f180004 	lw	t8,4(t8)
    61cc:	001940c0 	sll	t0,t9,0x3
    61d0:	3c010000 	lui	at,0x0
    61d4:	03084821 	addu	t1,t8,t0
    61d8:	8d220004 	lw	v0,4(t1)
    61dc:	84430000 	lh	v1,0(v0)
    61e0:	306a0001 	andi	t2,v1,0x1
    61e4:	11400004 	beqz	t2,61f8 <Camera_Parallel3+0x44>
    61e8:	ac230000 	sw	v1,0(at)
    61ec:	848b014c 	lh	t3,332(a0)
    61f0:	356c0400 	ori	t4,t3,0x400
    61f4:	a48c014c 	sh	t4,332(a0)
    61f8:	306d0002 	andi	t5,v1,0x2
    61fc:	11a00004 	beqz	t5,6210 <Camera_Parallel3+0x5c>
    6200:	00000000 	nop
    6204:	848e014c 	lh	t6,332(a0)
    6208:	35cf0010 	ori	t7,t6,0x10
    620c:	a48f014c 	sh	t7,332(a0)
    6210:	03e00008 	jr	ra
    6214:	00000000 	nop

00006218 <Camera_Parallel4>:
    6218:	27bdffe8 	addiu	sp,sp,-24
    621c:	afbf0014 	sw	ra,20(sp)
    6220:	0c000000 	jal	0 <func_800437F0>
    6224:	00000000 	nop
    6228:	8fbf0014 	lw	ra,20(sp)
    622c:	27bd0018 	addiu	sp,sp,24
    6230:	03e00008 	jr	ra
    6234:	00000000 	nop

00006238 <Camera_Parallel0>:
    6238:	27bdffe8 	addiu	sp,sp,-24
    623c:	afbf0014 	sw	ra,20(sp)
    6240:	0c000000 	jal	0 <func_800437F0>
    6244:	00000000 	nop
    6248:	8fbf0014 	lw	ra,20(sp)
    624c:	27bd0018 	addiu	sp,sp,24
    6250:	03e00008 	jr	ra
    6254:	00000000 	nop

00006258 <Camera_Jump1>:
    6258:	27bdff48 	addiu	sp,sp,-184
    625c:	afb0001c 	sw	s0,28(sp)
    6260:	00808025 	move	s0,a0
    6264:	afbf0024 	sw	ra,36(sp)
    6268:	afb10020 	sw	s1,32(sp)
    626c:	0c000000 	jal	0 <func_800437F0>
    6270:	8c840090 	lw	a0,144(a0)
    6274:	8603015e 	lh	v1,350(s0)
    6278:	10600008 	beqz	v1,629c <Camera_Jump1+0x44>
    627c:	2401000a 	li	at,10
    6280:	10610006 	beq	v1,at,629c <Camera_Jump1+0x44>
    6284:	24010014 	li	at,20
    6288:	10610004 	beq	v1,at,629c <Camera_Jump1+0x44>
    628c:	3c0e0000 	lui	t6,0x0
    6290:	8dce0000 	lw	t6,0(t6)
    6294:	85c30314 	lh	v1,788(t6)
    6298:	10600052 	beqz	v1,63e4 <Camera_Jump1+0x18c>
    629c:	3c010000 	lui	at,0x0
    62a0:	c42e0000 	lwc1	$f14,0(at)
    62a4:	3c013f80 	lui	at,0x3f80
    62a8:	44814000 	mtc1	at,$f8
    62ac:	3c014288 	lui	at,0x4288
    62b0:	3c0b0000 	lui	t3,0x0
    62b4:	8d6b0000 	lw	t3,0(t3)
    62b8:	44818000 	mtc1	at,$f16
    62bc:	860f0142 	lh	t7,322(s0)
    62c0:	856c01f0 	lh	t4,496(t3)
    62c4:	46008483 	div.s	$f18,$f16,$f0
    62c8:	3c190000 	lui	t9,0x0
    62cc:	448c2000 	mtc1	t4,$f4
    62d0:	000fc0c0 	sll	t8,t7,0x3
    62d4:	86080144 	lh	t0,324(s0)
    62d8:	468021a0 	cvt.s.w	$f6,$f4
    62dc:	0338c821 	addu	t9,t9,t8
    62e0:	8f390004 	lw	t9,4(t9)
    62e4:	000848c0 	sll	t1,t0,0x3
    62e8:	3c0b0000 	lui	t3,0x0
    62ec:	03295021 	addu	t2,t9,t1
    62f0:	8d420004 	lw	v0,4(t2)
    62f4:	844d0000 	lh	t5,0(v0)
    62f8:	2442001c 	addiu	v0,v0,28
    62fc:	460e3302 	mul.s	$f12,$f6,$f14
    6300:	448d3000 	mtc1	t5,$f6
    6304:	460c4280 	add.s	$f10,$f8,$f12
    6308:	46126102 	mul.s	$f4,$f12,$f18
    630c:	46803220 	cvt.s.w	$f8,$f6
    6310:	46045081 	sub.s	$f2,$f10,$f4
    6314:	460e4402 	mul.s	$f16,$f8,$f14
    6318:	00000000 	nop
    631c:	46008482 	mul.s	$f18,$f16,$f0
    6320:	00000000 	nop
    6324:	46029282 	mul.s	$f10,$f18,$f2
    6328:	e60a0000 	swc1	$f10,0(s0)
    632c:	844effe8 	lh	t6,-24(v0)
    6330:	448e2000 	mtc1	t6,$f4
    6334:	00000000 	nop
    6338:	468021a0 	cvt.s.w	$f6,$f4
    633c:	460e3202 	mul.s	$f8,$f6,$f14
    6340:	00000000 	nop
    6344:	46004402 	mul.s	$f16,$f8,$f0
    6348:	00000000 	nop
    634c:	46028482 	mul.s	$f18,$f16,$f2
    6350:	e6120004 	swc1	$f18,4(s0)
    6354:	844fffec 	lh	t7,-20(v0)
    6358:	448f5000 	mtc1	t7,$f10
    635c:	00000000 	nop
    6360:	46805120 	cvt.s.w	$f4,$f10
    6364:	460e2182 	mul.s	$f6,$f4,$f14
    6368:	00000000 	nop
    636c:	46003202 	mul.s	$f8,$f6,$f0
    6370:	00000000 	nop
    6374:	46024402 	mul.s	$f16,$f8,$f2
    6378:	e6100008 	swc1	$f16,8(s0)
    637c:	8458fff0 	lh	t8,-16(v0)
    6380:	44989000 	mtc1	t8,$f18
    6384:	00000000 	nop
    6388:	468092a0 	cvt.s.w	$f10,$f18
    638c:	e60a000c 	swc1	$f10,12(s0)
    6390:	8448fff4 	lh	t0,-12(v0)
    6394:	44882000 	mtc1	t0,$f4
    6398:	00000000 	nop
    639c:	468021a0 	cvt.s.w	$f6,$f4
    63a0:	460e3202 	mul.s	$f8,$f6,$f14
    63a4:	e6080010 	swc1	$f8,16(s0)
    63a8:	8459fff8 	lh	t9,-8(v0)
    63ac:	44998000 	mtc1	t9,$f16
    63b0:	00000000 	nop
    63b4:	468084a0 	cvt.s.w	$f18,$f16
    63b8:	e6120014 	swc1	$f18,20(s0)
    63bc:	8449fffc 	lh	t1,-4(v0)
    63c0:	44895000 	mtc1	t1,$f10
    63c4:	00000000 	nop
    63c8:	46805120 	cvt.s.w	$f4,$f10
    63cc:	460e2182 	mul.s	$f6,$f4,$f14
    63d0:	e6060018 	swc1	$f6,24(s0)
    63d4:	844a0000 	lh	t2,0(v0)
    63d8:	a60a001c 	sh	t2,28(s0)
    63dc:	8d6b0000 	lw	t3,0(t3)
    63e0:	85630314 	lh	v1,788(t3)
    63e4:	50600004 	beqzl	v1,63f8 <Camera_Jump1+0x1a0>
    63e8:	27a40060 	addiu	a0,sp,96
    63ec:	0c000000 	jal	0 <func_800437F0>
    63f0:	02002025 	move	a0,s0
    63f4:	27a40060 	addiu	a0,sp,96
    63f8:	0c000000 	jal	0 <func_800437F0>
    63fc:	8e050090 	lw	a1,144(s0)
    6400:	26050050 	addiu	a1,s0,80
    6404:	2606005c 	addiu	a2,s0,92
    6408:	afa60040 	sw	a2,64(sp)
    640c:	afa5003c 	sw	a1,60(sp)
    6410:	0c000000 	jal	0 <func_800437F0>
    6414:	27a40090 	addiu	a0,sp,144
    6418:	26060074 	addiu	a2,s0,116
    641c:	afa60038 	sw	a2,56(sp)
    6420:	27a40088 	addiu	a0,sp,136
    6424:	0c000000 	jal	0 <func_800437F0>
    6428:	8fa5003c 	lw	a1,60(sp)
    642c:	860c001c 	lh	t4,28(s0)
    6430:	3c010000 	lui	at,0x0
    6434:	ac2c0000 	sw	t4,0(at)
    6438:	8603015e 	lh	v1,350(s0)
    643c:	10600004 	beqz	v1,6450 <Camera_Jump1+0x1f8>
    6440:	2401000a 	li	at,10
    6444:	10610002 	beq	v1,at,6450 <Camera_Jump1+0x1f8>
    6448:	24010014 	li	at,20
    644c:	1461001b 	bne	v1,at,64bc <Camera_Jump1+0x264>
    6450:	26110020 	addiu	s1,s0,32
    6454:	a6200018 	sh	zero,24(s1)
    6458:	862d0018 	lh	t5,24(s1)
    645c:	240e00c8 	li	t6,200
    6460:	ae20000c 	sw	zero,12(s1)
    6464:	a6200024 	sh	zero,36(s1)
    6468:	a62e0026 	sh	t6,38(s1)
    646c:	a620001a 	sh	zero,26(s1)
    6470:	a62d0016 	sh	t5,22(s1)
    6474:	c608000c 	lwc1	$f8,12(s0)
    6478:	3c010000 	lui	at,0x0
    647c:	e6280010 	swc1	$f8,16(s1)
    6480:	c61200f4 	lwc1	$f18,244(s0)
    6484:	c6100098 	lwc1	$f16,152(s0)
    6488:	46128281 	sub.s	$f10,$f16,$f18
    648c:	e62a001c 	swc1	$f10,28(s1)
    6490:	c7a40090 	lwc1	$f4,144(sp)
    6494:	e6240020 	swc1	$f4,32(s1)
    6498:	c60600e8 	lwc1	$f6,232(s0)
    649c:	c60800f4 	lwc1	$f8,244(s0)
    64a0:	860f015e 	lh	t7,350(s0)
    64a4:	46083401 	sub.s	$f16,$f6,$f8
    64a8:	25f80001 	addiu	t8,t7,1
    64ac:	e61000e8 	swc1	$f16,232(s0)
    64b0:	c4320000 	lwc1	$f18,0(at)
    64b4:	a618015e 	sh	t8,350(s0)
    64b8:	e61200cc 	swc1	$f18,204(s0)
    64bc:	26110020 	addiu	s1,s0,32
    64c0:	8622001a 	lh	v0,26(s1)
    64c4:	1040002d 	beqz	v0,657c <Camera_Jump1+0x324>
    64c8:	3c080000 	lui	t0,0x0
    64cc:	8d080000 	lw	t0,0(t0)
    64d0:	44822000 	mtc1	v0,$f4
    64d4:	3c010000 	lui	at,0x0
    64d8:	851901c8 	lh	t9,456(t0)
    64dc:	c4320000 	lwc1	$f18,0(at)
    64e0:	468021a0 	cvt.s.w	$f6,$f4
    64e4:	44994000 	mtc1	t9,$f8
    64e8:	c60a000c 	lwc1	$f10,12(s0)
    64ec:	3c073dcc 	lui	a3,0x3dcc
    64f0:	34e7cccd 	ori	a3,a3,0xcccd
    64f4:	46804420 	cvt.s.w	$f16,$f8
    64f8:	c60e00c8 	lwc1	$f14,200(s0)
    64fc:	46065300 	add.s	$f12,$f10,$f6
    6500:	46128102 	mul.s	$f4,$f16,$f18
    6504:	44062000 	mfc1	a2,$f4
    6508:	0c000000 	jal	0 <func_800437F0>
    650c:	00000000 	nop
    6510:	e60000c8 	swc1	$f0,200(s0)
    6514:	3c020000 	lui	v0,0x0
    6518:	8c420000 	lw	v0,0(v0)
    651c:	862a001a 	lh	t2,26(s1)
    6520:	3c010000 	lui	at,0x0
    6524:	844b01c8 	lh	t3,456(v0)
    6528:	844901a2 	lh	t1,418(v0)
    652c:	448a4000 	mtc1	t2,$f8
    6530:	448b9000 	mtc1	t3,$f18
    6534:	44895000 	mtc1	t1,$f10
    6538:	46804420 	cvt.s.w	$f16,$f8
    653c:	3c073dcc 	lui	a3,0x3dcc
    6540:	34e7cccd 	ori	a3,a3,0xcccd
    6544:	c60e00c4 	lwc1	$f14,196(s0)
    6548:	46809120 	cvt.s.w	$f4,$f18
    654c:	468051a0 	cvt.s.w	$f6,$f10
    6550:	c42a0000 	lwc1	$f10,0(at)
    6554:	460a2202 	mul.s	$f8,$f4,$f10
    6558:	46103300 	add.s	$f12,$f6,$f16
    655c:	44064000 	mfc1	a2,$f8
    6560:	0c000000 	jal	0 <func_800437F0>
    6564:	00000000 	nop
    6568:	e60000c4 	swc1	$f0,196(s0)
    656c:	862c001a 	lh	t4,26(s1)
    6570:	258dffff 	addiu	t5,t4,-1
    6574:	10000023 	b	6604 <Camera_Jump1+0x3ac>
    6578:	a62d001a 	sh	t5,26(s1)
    657c:	3c0e0000 	lui	t6,0x0
    6580:	8dce0000 	lw	t6,0(t6)
    6584:	3c010000 	lui	at,0x0
    6588:	c4320000 	lwc1	$f18,0(at)
    658c:	85cf01c8 	lh	t7,456(t6)
    6590:	3c073dcc 	lui	a3,0x3dcc
    6594:	34e7cccd 	ori	a3,a3,0xcccd
    6598:	448f3000 	mtc1	t7,$f6
    659c:	c60c000c 	lwc1	$f12,12(s0)
    65a0:	c60e00c8 	lwc1	$f14,200(s0)
    65a4:	46803420 	cvt.s.w	$f16,$f6
    65a8:	46128102 	mul.s	$f4,$f16,$f18
    65ac:	44062000 	mfc1	a2,$f4
    65b0:	0c000000 	jal	0 <func_800437F0>
    65b4:	00000000 	nop
    65b8:	e60000c8 	swc1	$f0,200(s0)
    65bc:	3c020000 	lui	v0,0x0
    65c0:	8c420000 	lw	v0,0(v0)
    65c4:	3c010000 	lui	at,0x0
    65c8:	c4300000 	lwc1	$f16,0(at)
    65cc:	844801c8 	lh	t0,456(v0)
    65d0:	845801a2 	lh	t8,418(v0)
    65d4:	3c073dcc 	lui	a3,0x3dcc
    65d8:	44884000 	mtc1	t0,$f8
    65dc:	44985000 	mtc1	t8,$f10
    65e0:	34e7cccd 	ori	a3,a3,0xcccd
    65e4:	468041a0 	cvt.s.w	$f6,$f8
    65e8:	c60e00c4 	lwc1	$f14,196(s0)
    65ec:	46805320 	cvt.s.w	$f12,$f10
    65f0:	46103482 	mul.s	$f18,$f6,$f16
    65f4:	44069000 	mfc1	a2,$f18
    65f8:	0c000000 	jal	0 <func_800437F0>
    65fc:	00000000 	nop
    6600:	e60000c4 	swc1	$f0,196(s0)
    6604:	3c020000 	lui	v0,0x0
    6608:	8c420000 	lw	v0,0(v0)
    660c:	3c010000 	lui	at,0x0
    6610:	c4200000 	lwc1	$f0,0(at)
    6614:	84590198 	lh	t9,408(v0)
    6618:	844901c6 	lh	t1,454(v0)
    661c:	3c073dcc 	lui	a3,0x3dcc
    6620:	44992000 	mtc1	t9,$f4
    6624:	44894000 	mtc1	t1,$f8
    6628:	34e7cccd 	ori	a3,a3,0xcccd
    662c:	468022a0 	cvt.s.w	$f10,$f4
    6630:	c60e00cc 	lwc1	$f14,204(s0)
    6634:	468041a0 	cvt.s.w	$f6,$f8
    6638:	46005302 	mul.s	$f12,$f10,$f0
    663c:	00000000 	nop
    6640:	46003402 	mul.s	$f16,$f6,$f0
    6644:	44068000 	mfc1	a2,$f16
    6648:	0c000000 	jal	0 <func_800437F0>
    664c:	00000000 	nop
    6650:	3c010000 	lui	at,0x0
    6654:	c4220000 	lwc1	$f2,0(at)
    6658:	e60000cc 	swc1	$f0,204(s0)
    665c:	3c020000 	lui	v0,0x0
    6660:	8c420000 	lw	v0,0(v0)
    6664:	3c073dcc 	lui	a3,0x3dcc
    6668:	34e7cccd 	ori	a3,a3,0xcccd
    666c:	844a019a 	lh	t2,410(v0)
    6670:	844b01c8 	lh	t3,456(v0)
    6674:	c60e00d0 	lwc1	$f14,208(s0)
    6678:	448a9000 	mtc1	t2,$f18
    667c:	448b5000 	mtc1	t3,$f10
    6680:	46809120 	cvt.s.w	$f4,$f18
    6684:	46805220 	cvt.s.w	$f8,$f10
    6688:	46022302 	mul.s	$f12,$f4,$f2
    668c:	00000000 	nop
    6690:	46024182 	mul.s	$f6,$f8,$f2
    6694:	44063000 	mfc1	a2,$f6
    6698:	0c000000 	jal	0 <func_800437F0>
    669c:	00000000 	nop
    66a0:	e60000d0 	swc1	$f0,208(s0)
    66a4:	3c0c0000 	lui	t4,0x0
    66a8:	8d8c0000 	lw	t4,0(t4)
    66ac:	3c010000 	lui	at,0x0
    66b0:	c4240000 	lwc1	$f4,0(at)
    66b4:	858d019c 	lh	t5,412(t4)
    66b8:	3c063d4c 	lui	a2,0x3d4c
    66bc:	3c073dcc 	lui	a3,0x3dcc
    66c0:	448d8000 	mtc1	t5,$f16
    66c4:	34e7cccd 	ori	a3,a3,0xcccd
    66c8:	34c6cccd 	ori	a2,a2,0xcccd
    66cc:	468084a0 	cvt.s.w	$f18,$f16
    66d0:	46000386 	mov.s	$f14,$f0
    66d4:	46049302 	mul.s	$f12,$f18,$f4
    66d8:	0c000000 	jal	0 <func_800437F0>
    66dc:	00000000 	nop
    66e0:	e60000d4 	swc1	$f0,212(s0)
    66e4:	8e060000 	lw	a2,0(s0)
    66e8:	afa00010 	sw	zero,16(sp)
    66ec:	02002025 	move	a0,s0
    66f0:	27a50088 	addiu	a1,sp,136
    66f4:	0c000000 	jal	0 <func_800437F0>
    66f8:	2627001c 	addiu	a3,s1,28
    66fc:	27af0090 	addiu	t7,sp,144
    6700:	8de80000 	lw	t0,0(t7)
    6704:	27ae0080 	addiu	t6,sp,128
    6708:	27a40078 	addiu	a0,sp,120
    670c:	adc80000 	sw	t0,0(t6)
    6710:	8df80004 	lw	t8,4(t7)
    6714:	add80004 	sw	t8,4(t6)
    6718:	8fa60040 	lw	a2,64(sp)
    671c:	0c000000 	jal	0 <func_800437F0>
    6720:	8fa5003c 	lw	a1,60(sp)
    6724:	3c190000 	lui	t9,0x0
    6728:	8f390000 	lw	t9,0(t9)
    672c:	3c010000 	lui	at,0x0
    6730:	c4260000 	lwc1	$f6,0(at)
    6734:	872901ce 	lh	t1,462(t9)
    6738:	c7ac0078 	lwc1	$f12,120(sp)
    673c:	c7ae0090 	lwc1	$f14,144(sp)
    6740:	44895000 	mtc1	t1,$f10
    6744:	3c073f80 	lui	a3,0x3f80
    6748:	46805220 	cvt.s.w	$f8,$f10
    674c:	46064402 	mul.s	$f16,$f8,$f6
    6750:	44068000 	mfc1	a2,$f16
    6754:	0c000000 	jal	0 <func_800437F0>
    6758:	00000000 	nop
    675c:	3c0a0000 	lui	t2,0x0
    6760:	8d4a0000 	lw	t2,0(t2)
    6764:	e7a00080 	swc1	$f0,128(sp)
    6768:	3c010000 	lui	at,0x0
    676c:	854b01ce 	lh	t3,462(t2)
    6770:	c42a0000 	lwc1	$f10,0(at)
    6774:	87a4007c 	lh	a0,124(sp)
    6778:	448b9000 	mtc1	t3,$f18
    677c:	87a50094 	lh	a1,148(sp)
    6780:	2407000a 	li	a3,10
    6784:	46809120 	cvt.s.w	$f4,$f18
    6788:	460a2202 	mul.s	$f8,$f4,$f10
    678c:	44064000 	mfc1	a2,$f8
    6790:	0c000000 	jal	0 <func_800437F0>
    6794:	00000000 	nop
    6798:	a7a20084 	sh	v0,132(sp)
    679c:	862c0018 	lh	t4,24(s1)
    67a0:	3c013f80 	lui	at,0x3f80
    67a4:	02002025 	move	a0,s0
    67a8:	11800017 	beqz	t4,6808 <Camera_Jump1+0x5b0>
    67ac:	87a5008e 	lh	a1,142(sp)
    67b0:	44813000 	mtc1	at,$f6
    67b4:	c61000c8 	lwc1	$f16,200(s0)
    67b8:	86240016 	lh	a0,22(s1)
    67bc:	87a5008e 	lh	a1,142(sp)
    67c0:	46103483 	div.s	$f18,$f6,$f16
    67c4:	2407000a 	li	a3,10
    67c8:	44069000 	mfc1	a2,$f18
    67cc:	0c000000 	jal	0 <func_800437F0>
    67d0:	00000000 	nop
    67d4:	a7a20086 	sh	v0,134(sp)
    67d8:	3c013f80 	lui	at,0x3f80
    67dc:	44812000 	mtc1	at,$f4
    67e0:	c60a00c8 	lwc1	$f10,200(s0)
    67e4:	86240014 	lh	a0,20(s1)
    67e8:	87a5008c 	lh	a1,140(sp)
    67ec:	460a2203 	div.s	$f8,$f4,$f10
    67f0:	2407000a 	li	a3,10
    67f4:	44064000 	mfc1	a2,$f8
    67f8:	0c000000 	jal	0 <func_800437F0>
    67fc:	00000000 	nop
    6800:	10000007 	b	6820 <Camera_Jump1+0x5c8>
    6804:	a7a20084 	sh	v0,132(sp)
    6808:	44803000 	mtc1	zero,$f6
    680c:	860600a2 	lh	a2,162(s0)
    6810:	8e070010 	lw	a3,16(s0)
    6814:	0c000000 	jal	0 <func_800437F0>
    6818:	e7a60010 	swc1	$f6,16(sp)
    681c:	a7a20086 	sh	v0,134(sp)
    6820:	c6000004 	lwc1	$f0,4(s0)
    6824:	c7b00080 	lwc1	$f16,128(sp)
    6828:	c7b20080 	lwc1	$f18,128(sp)
    682c:	3c020000 	lui	v0,0x0
    6830:	4600803c 	c.lt.s	$f16,$f0
    6834:	27a40098 	addiu	a0,sp,152
    6838:	27a60080 	addiu	a2,sp,128
    683c:	45020004 	bc1fl	6850 <Camera_Jump1+0x5f8>
    6840:	c6000008 	lwc1	$f0,8(s0)
    6844:	10000007 	b	6864 <Camera_Jump1+0x60c>
    6848:	e7a00080 	swc1	$f0,128(sp)
    684c:	c6000008 	lwc1	$f0,8(s0)
    6850:	4612003c 	c.lt.s	$f0,$f18
    6854:	00000000 	nop
    6858:	45000002 	bc1f	6864 <Camera_Jump1+0x60c>
    685c:	00000000 	nop
    6860:	e7a00080 	swc1	$f0,128(sp)
    6864:	8c420000 	lw	v0,0(v0)
    6868:	87ad0084 	lh	t5,132(sp)
    686c:	87ae0084 	lh	t6,132(sp)
    6870:	8443019e 	lh	v1,414(v0)
    6874:	006d082a 	slt	at,v1,t5
    6878:	50200004 	beqzl	at,688c <Camera_Jump1+0x634>
    687c:	844301da 	lh	v1,474(v0)
    6880:	10000006 	b	689c <Camera_Jump1+0x644>
    6884:	a7a30084 	sh	v1,132(sp)
    6888:	844301da 	lh	v1,474(v0)
    688c:	01c3082a 	slt	at,t6,v1
    6890:	10200002 	beqz	at,689c <Camera_Jump1+0x644>
    6894:	00000000 	nop
    6898:	a7a30084 	sh	v1,132(sp)
    689c:	0c000000 	jal	0 <func_800437F0>
    68a0:	8fa5003c 	lw	a1,60(sp)
    68a4:	8fa30038 	lw	v1,56(sp)
    68a8:	c7a40098 	lwc1	$f4,152(sp)
    68ac:	3c0f0000 	lui	t7,0x0
    68b0:	3c010000 	lui	at,0x0
    68b4:	e4640000 	swc1	$f4,0(v1)
    68b8:	c7aa00a0 	lwc1	$f10,160(sp)
    68bc:	c4600004 	lwc1	$f0,4(v1)
    68c0:	e46a0008 	swc1	$f10,8(v1)
    68c4:	8def0000 	lw	t7,0(t7)
    68c8:	c4300000 	lwc1	$f16,0(at)
    68cc:	c7a4009c 	lwc1	$f4,156(sp)
    68d0:	85f801d2 	lh	t8,466(t7)
    68d4:	24010007 	li	at,7
    68d8:	46002281 	sub.s	$f10,$f4,$f0
    68dc:	44984000 	mtc1	t8,$f8
    68e0:	00000000 	nop
    68e4:	468041a0 	cvt.s.w	$f6,$f8
    68e8:	46103482 	mul.s	$f18,$f6,$f16
    68ec:	00000000 	nop
    68f0:	46125202 	mul.s	$f8,$f10,$f18
    68f4:	46080180 	add.s	$f6,$f0,$f8
    68f8:	e4660004 	swc1	$f6,4(v1)
    68fc:	86080140 	lh	t0,320(s0)
    6900:	15010037 	bne	t0,at,69e0 <Camera_Jump1+0x788>
    6904:	00000000 	nop
    6908:	8619001c 	lh	t9,28(s0)
    690c:	02002025 	move	a0,s0
    6910:	27a50080 	addiu	a1,sp,128
    6914:	33290010 	andi	t1,t9,0x10
    6918:	15200031 	bnez	t1,69e0 <Camera_Jump1+0x788>
    691c:	27aa00a4 	addiu	t2,sp,164
    6920:	8e060004 	lw	a2,4(s0)
    6924:	8e07000c 	lw	a3,12(s0)
    6928:	afb10014 	sw	s1,20(sp)
    692c:	0c000000 	jal	0 <func_800437F0>
    6930:	afaa0010 	sw	t2,16(sp)
    6934:	860b001c 	lh	t3,28(s0)
    6938:	87ad0094 	lh	t5,148(sp)
    693c:	27a40080 	addiu	a0,sp,128
    6940:	316c0004 	andi	t4,t3,0x4
    6944:	11800008 	beqz	t4,6968 <Camera_Jump1+0x710>
    6948:	8fa50040 	lw	a1,64(sp)
    694c:	000d7023 	negu	t6,t5
    6950:	a60e0134 	sh	t6,308(s0)
    6954:	87af0096 	lh	t7,150(sp)
    6958:	a6000138 	sh	zero,312(s0)
    695c:	25f88001 	addiu	t8,t7,-32767
    6960:	10000008 	b	6984 <Camera_Jump1+0x72c>
    6964:	a6180136 	sh	t8,310(s0)
    6968:	0c000000 	jal	0 <func_800437F0>
    696c:	8fa6003c 	lw	a2,60(sp)
    6970:	87a80084 	lh	t0,132(sp)
    6974:	a6080134 	sh	t0,308(s0)
    6978:	87b90086 	lh	t9,134(sp)
    697c:	a6000138 	sh	zero,312(s0)
    6980:	a6190136 	sh	t9,310(s0)
    6984:	86290018 	lh	t1,24(s1)
    6988:	3c010000 	lui	at,0x0
    698c:	c7a400a4 	lwc1	$f4,164(sp)
    6990:	51200020 	beqzl	t1,6a14 <Camera_Jump1+0x7bc>
    6994:	8fa4003c 	lw	a0,60(sp)
    6998:	c4300000 	lwc1	$f16,0(at)
    699c:	3c013f80 	lui	at,0x3f80
    69a0:	44819000 	mtc1	at,$f18
    69a4:	46048282 	mul.s	$f10,$f16,$f4
    69a8:	862a0016 	lh	t2,22(s1)
    69ac:	86050136 	lh	a1,310(s0)
    69b0:	2407000a 	li	a3,10
    69b4:	254d8001 	addiu	t5,t2,-32767
    69b8:	01a5c023 	subu	t8,t5,a1
    69bc:	00b82021 	addu	a0,a1,t8
    69c0:	460a9201 	sub.s	$f8,$f18,$f10
    69c4:	00042400 	sll	a0,a0,0x10
    69c8:	00042403 	sra	a0,a0,0x10
    69cc:	44064000 	mfc1	a2,$f8
    69d0:	0c000000 	jal	0 <func_800437F0>
    69d4:	00000000 	nop
    69d8:	1000000d 	b	6a10 <Camera_Jump1+0x7b8>
    69dc:	a6020136 	sh	v0,310(s0)
    69e0:	c606000c 	lwc1	$f6,12(s0)
    69e4:	a6200018 	sh	zero,24(s1)
    69e8:	3c010000 	lui	at,0x0
    69ec:	e6260010 	swc1	$f6,16(s1)
    69f0:	ac200000 	sw	zero,0(at)
    69f4:	8c690000 	lw	t1,0(v1)
    69f8:	8fa80040 	lw	t0,64(sp)
    69fc:	ad090000 	sw	t1,0(t0)
    6a00:	8c790004 	lw	t9,4(v1)
    6a04:	ad190004 	sw	t9,4(t0)
    6a08:	8c690008 	lw	t1,8(v1)
    6a0c:	ad090008 	sw	t1,8(t0)
    6a10:	8fa4003c 	lw	a0,60(sp)
    6a14:	0c000000 	jal	0 <func_800437F0>
    6a18:	8fa50040 	lw	a1,64(sp)
    6a1c:	e60000dc 	swc1	$f0,220(s0)
    6a20:	00002025 	move	a0,zero
    6a24:	8605015a 	lh	a1,346(s0)
    6a28:	3c063f00 	lui	a2,0x3f00
    6a2c:	0c000000 	jal	0 <func_800437F0>
    6a30:	2407000a 	li	a3,10
    6a34:	a602015a 	sh	v0,346(s0)
    6a38:	02002025 	move	a0,s0
    6a3c:	0c000000 	jal	0 <func_800437F0>
    6a40:	8e050018 	lw	a1,24(s0)
    6a44:	e6000100 	swc1	$f0,256(s0)
    6a48:	8fbf0024 	lw	ra,36(sp)
    6a4c:	8fb10020 	lw	s1,32(sp)
    6a50:	8fb0001c 	lw	s0,28(sp)
    6a54:	27bd00b8 	addiu	sp,sp,184
    6a58:	03e00008 	jr	ra
    6a5c:	24020001 	li	v0,1

00006a60 <Camera_Jump2>:
    6a60:	27bdff20 	addiu	sp,sp,-224
    6a64:	afb00018 	sw	s0,24(sp)
    6a68:	00808025 	move	s0,a0
    6a6c:	afbf001c 	sw	ra,28(sp)
    6a70:	0c000000 	jal	0 <func_800437F0>
    6a74:	8c840090 	lw	a0,144(a0)
    6a78:	e7a00048 	swc1	$f0,72(sp)
    6a7c:	8603015e 	lh	v1,350(s0)
    6a80:	10600009 	beqz	v1,6aa8 <Camera_Jump2+0x48>
    6a84:	2401000a 	li	at,10
    6a88:	10610007 	beq	v1,at,6aa8 <Camera_Jump2+0x48>
    6a8c:	24010014 	li	at,20
    6a90:	10610005 	beq	v1,at,6aa8 <Camera_Jump2+0x48>
    6a94:	3c0e0000 	lui	t6,0x0
    6a98:	8dce0000 	lw	t6,0(t6)
    6a9c:	85c30314 	lh	v1,788(t6)
    6aa0:	10600066 	beqz	v1,6c3c <Camera_Jump2+0x1dc>
    6aa4:	00000000 	nop
    6aa8:	860f0142 	lh	t7,322(s0)
    6aac:	3c0e0000 	lui	t6,0x0
    6ab0:	8dce0000 	lw	t6,0(t6)
    6ab4:	3c010000 	lui	at,0x0
    6ab8:	000fc0c0 	sll	t8,t7,0x3
    6abc:	c42e0000 	lwc1	$f14,0(at)
    6ac0:	85cf01f0 	lh	t7,496(t6)
    6ac4:	3c013f80 	lui	at,0x3f80
    6ac8:	44814000 	mtc1	at,$f8
    6acc:	448f2000 	mtc1	t7,$f4
    6ad0:	3c014288 	lui	at,0x4288
    6ad4:	44819000 	mtc1	at,$f18
    6ad8:	468021a0 	cvt.s.w	$f6,$f4
    6adc:	3c190000 	lui	t9,0x0
    6ae0:	860b0144 	lh	t3,324(s0)
    6ae4:	0338c821 	addu	t9,t9,t8
    6ae8:	8f390004 	lw	t9,4(t9)
    6aec:	46009103 	div.s	$f4,$f18,$f0
    6af0:	c61200f4 	lwc1	$f18,244(s0)
    6af4:	000b60c0 	sll	t4,t3,0x3
    6af8:	032c6821 	addu	t5,t9,t4
    6afc:	460e3082 	mul.s	$f2,$f6,$f14
    6b00:	8da20004 	lw	v0,4(t5)
    6b04:	3c014120 	lui	at,0x4120
    6b08:	46024280 	add.s	$f10,$f8,$f2
    6b0c:	44804000 	mtc1	zero,$f8
    6b10:	46041182 	mul.s	$f6,$f2,$f4
    6b14:	4612403c 	c.lt.s	$f8,$f18
    6b18:	00000000 	nop
    6b1c:	45000005 	bc1f	6b34 <Camera_Jump2+0xd4>
    6b20:	46065301 	sub.s	$f12,$f10,$f6
    6b24:	3c01c120 	lui	at,0xc120
    6b28:	44811000 	mtc1	at,$f2
    6b2c:	10000004 	b	6b40 <Camera_Jump2+0xe0>
    6b30:	84580000 	lh	t8,0(v0)
    6b34:	44811000 	mtc1	at,$f2
    6b38:	00000000 	nop
    6b3c:	84580000 	lh	t8,0(v0)
    6b40:	24420020 	addiu	v0,v0,32
    6b44:	44982000 	mtc1	t8,$f4
    6b48:	00000000 	nop
    6b4c:	468022a0 	cvt.s.w	$f10,$f4
    6b50:	46025180 	add.s	$f6,$f10,$f2
    6b54:	460e3202 	mul.s	$f8,$f6,$f14
    6b58:	00000000 	nop
    6b5c:	46004482 	mul.s	$f18,$f8,$f0
    6b60:	00000000 	nop
    6b64:	460c9102 	mul.s	$f4,$f18,$f12
    6b68:	e6040000 	swc1	$f4,0(s0)
    6b6c:	844bffe4 	lh	t3,-28(v0)
    6b70:	448b5000 	mtc1	t3,$f10
    6b74:	00000000 	nop
    6b78:	468051a0 	cvt.s.w	$f6,$f10
    6b7c:	460e3202 	mul.s	$f8,$f6,$f14
    6b80:	00000000 	nop
    6b84:	46004482 	mul.s	$f18,$f8,$f0
    6b88:	00000000 	nop
    6b8c:	460c9102 	mul.s	$f4,$f18,$f12
    6b90:	e6040004 	swc1	$f4,4(s0)
    6b94:	8459ffe8 	lh	t9,-24(v0)
    6b98:	44995000 	mtc1	t9,$f10
    6b9c:	3c190000 	lui	t9,0x0
    6ba0:	468051a0 	cvt.s.w	$f6,$f10
    6ba4:	460e3202 	mul.s	$f8,$f6,$f14
    6ba8:	00000000 	nop
    6bac:	46004482 	mul.s	$f18,$f8,$f0
    6bb0:	00000000 	nop
    6bb4:	460c9102 	mul.s	$f4,$f18,$f12
    6bb8:	e6040008 	swc1	$f4,8(s0)
    6bbc:	844cffec 	lh	t4,-20(v0)
    6bc0:	448c5000 	mtc1	t4,$f10
    6bc4:	00000000 	nop
    6bc8:	468051a0 	cvt.s.w	$f6,$f10
    6bcc:	460e3202 	mul.s	$f8,$f6,$f14
    6bd0:	e608000c 	swc1	$f8,12(s0)
    6bd4:	844dfff0 	lh	t5,-16(v0)
    6bd8:	448d9000 	mtc1	t5,$f18
    6bdc:	00000000 	nop
    6be0:	46809120 	cvt.s.w	$f4,$f18
    6be4:	e6040010 	swc1	$f4,16(s0)
    6be8:	844efff4 	lh	t6,-12(v0)
    6bec:	448e5000 	mtc1	t6,$f10
    6bf0:	00000000 	nop
    6bf4:	468051a0 	cvt.s.w	$f6,$f10
    6bf8:	460e3202 	mul.s	$f8,$f6,$f14
    6bfc:	e6080014 	swc1	$f8,20(s0)
    6c00:	844ffff8 	lh	t7,-8(v0)
    6c04:	448f9000 	mtc1	t7,$f18
    6c08:	00000000 	nop
    6c0c:	46809120 	cvt.s.w	$f4,$f18
    6c10:	e6040018 	swc1	$f4,24(s0)
    6c14:	8458fffc 	lh	t8,-4(v0)
    6c18:	44985000 	mtc1	t8,$f10
    6c1c:	00000000 	nop
    6c20:	468051a0 	cvt.s.w	$f6,$f10
    6c24:	460e3202 	mul.s	$f8,$f6,$f14
    6c28:	e608001c 	swc1	$f8,28(s0)
    6c2c:	844b0000 	lh	t3,0(v0)
    6c30:	a60b0020 	sh	t3,32(s0)
    6c34:	8f390000 	lw	t9,0(t9)
    6c38:	87230314 	lh	v1,788(t9)
    6c3c:	50600004 	beqzl	v1,6c50 <Camera_Jump2+0x1f0>
    6c40:	26050050 	addiu	a1,s0,80
    6c44:	0c000000 	jal	0 <func_800437F0>
    6c48:	02002025 	move	a0,s0
    6c4c:	26050050 	addiu	a1,s0,80
    6c50:	2606005c 	addiu	a2,s0,92
    6c54:	afa60038 	sw	a2,56(sp)
    6c58:	afa50034 	sw	a1,52(sp)
    6c5c:	0c000000 	jal	0 <func_800437F0>
    6c60:	27a4009c 	addiu	a0,sp,156
    6c64:	26060074 	addiu	a2,s0,116
    6c68:	afa60030 	sw	a2,48(sp)
    6c6c:	27a400a4 	addiu	a0,sp,164
    6c70:	0c000000 	jal	0 <func_800437F0>
    6c74:	8fa50034 	lw	a1,52(sp)
    6c78:	860c0020 	lh	t4,32(s0)
    6c7c:	3c010000 	lui	at,0x0
    6c80:	ac2c0000 	sw	t4,0(at)
    6c84:	8603015e 	lh	v1,350(s0)
    6c88:	10600004 	beqz	v1,6c9c <Camera_Jump2+0x23c>
    6c8c:	2401000a 	li	at,10
    6c90:	10610002 	beq	v1,at,6c9c <Camera_Jump2+0x23c>
    6c94:	24010014 	li	at,20
    6c98:	1461006c 	bne	v1,at,6e4c <Camera_Jump2+0x3ec>
    6c9c:	26080094 	addiu	t0,s0,148
    6ca0:	8d0e0000 	lw	t6,0(t0)
    6ca4:	27a500c8 	addiu	a1,sp,200
    6ca8:	02002025 	move	a0,s0
    6cac:	acae0000 	sw	t6,0(a1)
    6cb0:	8d0d0004 	lw	t5,4(t0)
    6cb4:	acad0004 	sw	t5,4(a1)
    6cb8:	8d0e0008 	lw	t6,8(t0)
    6cbc:	acae0008 	sw	t6,8(a1)
    6cc0:	0c000000 	jal	0 <func_800437F0>
    6cc4:	afa8002c 	sw	t0,44(sp)
    6cc8:	3c01c6fa 	lui	at,0xc6fa
    6ccc:	44819000 	mtc1	at,$f18
    6cd0:	8fa8002c 	lw	t0,44(sp)
    6cd4:	26090024 	addiu	t1,s0,36
    6cd8:	46120032 	c.eq.s	$f0,$f18
    6cdc:	e5200000 	swc1	$f0,0(t1)
    6ce0:	87af00aa 	lh	t7,170(sp)
    6ce4:	a5200006 	sh	zero,6(t1)
    6ce8:	45000010 	bc1f	6d2c <Camera_Jump2+0x2cc>
    6cec:	a52f0004 	sh	t7,4(t1)
    6cf0:	3c040000 	lui	a0,0x0
    6cf4:	24840000 	addiu	a0,a0,0
    6cf8:	afa8002c 	sw	t0,44(sp)
    6cfc:	0c000000 	jal	0 <func_800437F0>
    6d00:	afa90028 	sw	t1,40(sp)
    6d04:	8fa90028 	lw	t1,40(sp)
    6d08:	8fa8002c 	lw	t0,44(sp)
    6d0c:	2418ffff 	li	t8,-1
    6d10:	3c01447a 	lui	at,0x447a
    6d14:	a538000a 	sh	t8,10(t1)
    6d18:	44815000 	mtc1	at,$f10
    6d1c:	c5040004 	lwc1	$f4,4(t0)
    6d20:	460a2181 	sub.s	$f6,$f4,$f10
    6d24:	1000000e 	b	6d60 <Camera_Jump2+0x300>
    6d28:	e5260000 	swc1	$f6,0(t1)
    6d2c:	c5080004 	lwc1	$f8,4(t0)
    6d30:	c5320000 	lwc1	$f18,0(t1)
    6d34:	c7aa0048 	lwc1	$f10,72(sp)
    6d38:	240b0001 	li	t3,1
    6d3c:	46124101 	sub.s	$f4,$f8,$f18
    6d40:	2419ffff 	li	t9,-1
    6d44:	460a203c 	c.lt.s	$f4,$f10
    6d48:	00000000 	nop
    6d4c:	45020004 	bc1fl	6d60 <Camera_Jump2+0x300>
    6d50:	a539000a 	sh	t9,10(t1)
    6d54:	10000002 	b	6d60 <Camera_Jump2+0x300>
    6d58:	a52b000a 	sh	t3,10(t1)
    6d5c:	a539000a 	sh	t9,10(t1)
    6d60:	850c000e 	lh	t4,14(t0)
    6d64:	3c030000 	lui	v1,0x0
    6d68:	24630000 	addiu	v1,v1,0
    6d6c:	87b800aa 	lh	t8,170(sp)
    6d70:	8c6b0000 	lw	t3,0(v1)
    6d74:	258d8001 	addiu	t5,t4,-32767
    6d78:	000d7400 	sll	t6,t5,0x10
    6d7c:	000e7c03 	sra	t7,t6,0x10
    6d80:	857901c2 	lh	t9,450(t3)
    6d84:	01f81023 	subu	v0,t7,t8
    6d88:	00021400 	sll	v0,v0,0x10
    6d8c:	00021403 	sra	v0,v0,0x10
    6d90:	0059001a 	div	zero,v0,t9
    6d94:	17200002 	bnez	t9,6da0 <Camera_Jump2+0x340>
    6d98:	00000000 	nop
    6d9c:	0007000d 	break	0x7
    6da0:	2401ffff 	li	at,-1
    6da4:	17210004 	bne	t9,at,6db8 <Camera_Jump2+0x358>
    6da8:	3c018000 	lui	at,0x8000
    6dac:	14410002 	bne	v0,at,6db8 <Camera_Jump2+0x358>
    6db0:	00000000 	nop
    6db4:	0006000d 	break	0x6
    6db8:	00006012 	mflo	t4
    6dbc:	240b000a 	li	t3,10
    6dc0:	05810003 	bgez	t4,6dd0 <Camera_Jump2+0x370>
    6dc4:	000c6883 	sra	t5,t4,0x2
    6dc8:	25810003 	addiu	at,t4,3
    6dcc:	00016883 	sra	t5,at,0x2
    6dd0:	000d7080 	sll	t6,t5,0x2
    6dd4:	01cd7023 	subu	t6,t6,t5
    6dd8:	a52e0006 	sh	t6,6(t1)
    6ddc:	860f0020 	lh	t7,32(s0)
    6de0:	24192710 	li	t9,10000
    6de4:	31f80002 	andi	t8,t7,0x2
    6de8:	53000004 	beqzl	t8,6dfc <Camera_Jump2+0x39c>
