
build/src/code/z_scene_table.o:     file format elf32-tradbigmips


Disassembly of section .text:

00000000 <func_800994A0>:
       0:	3c020000 	lui	v0,0x0
       4:	24420000 	addiu	v0,v0,0
       8:	8c4e0010 	lw	t6,16(v0)
       c:	3c080000 	lui	t0,0x0
      10:	51c00013 	beqzl	t6,60 <func_800994A0+0x60>
      14:	8c580004 	lw	t8,4(v0)
      18:	8c4f0004 	lw	t7,4(v0)
      1c:	3c020001 	lui	v0,0x1
      20:	00441021 	addu	v0,v0,a0
      24:	51e00009 	beqzl	t7,4c <func_800994A0+0x4c>
      28:	84421e1a 	lh	v0,7706(v0)
      2c:	3c020001 	lui	v0,0x1
      30:	00441021 	addu	v0,v0,a0
      34:	84421e1a 	lh	v0,7706(v0)
      38:	24420001 	addiu	v0,v0,1
      3c:	00021400 	sll	v0,v0,0x10
      40:	10000013 	b	90 <func_800994A0+0x90>
      44:	00021403 	sra	v0,v0,0x10
      48:	84421e1a 	lh	v0,7706(v0)
      4c:	24420003 	addiu	v0,v0,3
      50:	00021400 	sll	v0,v0,0x10
      54:	1000000e 	b	90 <func_800994A0+0x90>
      58:	00021403 	sra	v0,v0,0x10
      5c:	8c580004 	lw	t8,4(v0)
      60:	3c020001 	lui	v0,0x1
      64:	00441021 	addu	v0,v0,a0
      68:	53000006 	beqzl	t8,84 <func_800994A0+0x84>
      6c:	84421e1a 	lh	v0,7706(v0)
      70:	3c020001 	lui	v0,0x1
      74:	00441021 	addu	v0,v0,a0
      78:	10000005 	b	90 <func_800994A0+0x90>
      7c:	84421e1a 	lh	v0,7706(v0)
      80:	84421e1a 	lh	v0,7706(v0)
      84:	24420002 	addiu	v0,v0,2
      88:	00021400 	sll	v0,v0,0x10
      8c:	00021403 	sra	v0,v0,0x10
      90:	0002c880 	sll	t9,v0,0x2
      94:	01194021 	addu	t0,t0,t9
      98:	95080002 	lhu	t0,2(t0)
      9c:	3c010001 	lui	at,0x1
      a0:	00240821 	addu	at,at,a0
      a4:	3109007f 	andi	t1,t0,0x7f
      a8:	03e00008 	jr	ra
      ac:	a0291e5e 	sb	t1,7774(at)

000000b0 <func_80099550>:
      b0:	27bdffc0 	addiu	sp,sp,-64
      b4:	afbf0014 	sw	ra,20(sp)
      b8:	afa40040 	sw	a0,64(sp)
      bc:	8c850000 	lw	a1,0(a0)
      c0:	3c060000 	lui	a2,0x0
      c4:	24c60000 	addiu	a2,a2,0
      c8:	27a4002c 	addiu	a0,sp,44
      cc:	24071275 	li	a3,4725
      d0:	0c000000 	jal	0 <func_800994A0>
      d4:	afa5003c 	sw	a1,60(sp)
      d8:	8fa8003c 	lw	t0,60(sp)
      dc:	3c040000 	lui	a0,0x0
      e0:	24840000 	addiu	a0,a0,0
      e4:	8d0302c0 	lw	v1,704(t0)
      e8:	3c05de00 	lui	a1,0xde00
      ec:	3c060000 	lui	a2,0x0
      f0:	246f0008 	addiu	t7,v1,8
      f4:	ad0f02c0 	sw	t7,704(t0)
      f8:	ac640004 	sw	a0,4(v1)
      fc:	ac650000 	sw	a1,0(v1)
     100:	8d0302d0 	lw	v1,720(t0)
     104:	24c60014 	addiu	a2,a2,20
     108:	2407127f 	li	a3,4735
     10c:	24780008 	addiu	t8,v1,8
     110:	ad1802d0 	sw	t8,720(t0)
     114:	ac640004 	sw	a0,4(v1)
     118:	ac650000 	sw	a1,0(v1)
     11c:	8fb90040 	lw	t9,64(sp)
     120:	27a4002c 	addiu	a0,sp,44
     124:	0c000000 	jal	0 <func_800994A0>
     128:	8f250000 	lw	a1,0(t9)
     12c:	8fbf0014 	lw	ra,20(sp)
     130:	27bd0040 	addiu	sp,sp,64
     134:	03e00008 	jr	ra
     138:	00000000 	nop

0000013c <func_800995DC>:
     13c:	27bdff90 	addiu	sp,sp,-112
     140:	afbf0034 	sw	ra,52(sp)
     144:	afa40070 	sw	a0,112(sp)
     148:	3c090001 	lui	t1,0x1
     14c:	01244821 	addu	t1,t1,a0
     150:	8d291de4 	lw	t1,7652(t1)
     154:	8c850000 	lw	a1,0(a0)
     158:	3c060000 	lui	a2,0x0
     15c:	24c60028 	addiu	a2,a2,40
     160:	27a40058 	addiu	a0,sp,88
     164:	2407129b 	li	a3,4763
     168:	afa9006c 	sw	t1,108(sp)
     16c:	0c000000 	jal	0 <func_800994A0>
     170:	afa50068 	sw	a1,104(sp)
     174:	8fa80068 	lw	t0,104(sp)
     178:	8fa9006c 	lw	t1,108(sp)
     17c:	3c18db06 	lui	t8,0xdb06
     180:	8d0202d0 	lw	v0,720(t0)
     184:	37180024 	ori	t8,t8,0x24
     188:	240b007f 	li	t3,127
     18c:	244f0008 	addiu	t7,v0,8
     190:	ad0f02d0 	sw	t7,720(t0)
     194:	ac580000 	sw	t8,0(v0)
     198:	8fb90070 	lw	t9,112(sp)
     19c:	24180020 	li	t8,32
     1a0:	240f0020 	li	t7,32
     1a4:	8f240000 	lw	a0,0(t9)
     1a8:	240c0020 	li	t4,32
     1ac:	240d0020 	li	t5,32
     1b0:	240e0001 	li	t6,1
     1b4:	3123007f 	andi	v1,t1,0x7f
     1b8:	3127007f 	andi	a3,t1,0x7f
     1bc:	afa70020 	sw	a3,32(sp)
     1c0:	01633023 	subu	a2,t3,v1
     1c4:	afa3001c 	sw	v1,28(sp)
     1c8:	afae0018 	sw	t6,24(sp)
     1cc:	afad0014 	sw	t5,20(sp)
     1d0:	afac0010 	sw	t4,16(sp)
     1d4:	afb80028 	sw	t8,40(sp)
     1d8:	afaf0024 	sw	t7,36(sp)
     1dc:	00002825 	move	a1,zero
     1e0:	afa80068 	sw	t0,104(sp)
     1e4:	0c000000 	jal	0 <func_800994A0>
     1e8:	afa20054 	sw	v0,84(sp)
     1ec:	8faa0054 	lw	t2,84(sp)
     1f0:	8fa80068 	lw	t0,104(sp)
     1f4:	3c0be700 	lui	t3,0xe700
     1f8:	ad420004 	sw	v0,4(t2)
     1fc:	8d0202d0 	lw	v0,720(t0)
     200:	3c0e8080 	lui	t6,0x8080
     204:	35ce8080 	ori	t6,t6,0x8080
     208:	24590008 	addiu	t9,v0,8
     20c:	ad1902d0 	sw	t9,720(t0)
     210:	ac400004 	sw	zero,4(v0)
     214:	ac4b0000 	sw	t3,0(v0)
     218:	8d0202d0 	lw	v0,720(t0)
     21c:	3c0dfb00 	lui	t5,0xfb00
     220:	3c18db06 	lui	t8,0xdb06
     224:	244c0008 	addiu	t4,v0,8
     228:	ad0c02d0 	sw	t4,720(t0)
     22c:	ac4e0004 	sw	t6,4(v0)
     230:	ac4d0000 	sw	t5,0(v0)
     234:	8d0302c0 	lw	v1,704(t0)
     238:	37180020 	ori	t8,t8,0x20
     23c:	3c190000 	lui	t9,0x0
     240:	246f0008 	addiu	t7,v1,8
     244:	ad0f02c0 	sw	t7,704(t0)
     248:	ac780000 	sw	t8,0(v1)
     24c:	8f390010 	lw	t9,16(t9)
     250:	3c040000 	lui	a0,0x0
     254:	3c180000 	lui	t8,0x0
     258:	00195880 	sll	t3,t9,0x2
     25c:	008b2021 	addu	a0,a0,t3
     260:	8c840000 	lw	a0,0(a0)
     264:	3c0100ff 	lui	at,0xff
     268:	3421ffff 	ori	at,at,0xffff
     26c:	00046900 	sll	t5,a0,0x4
     270:	000d7702 	srl	t6,t5,0x1c
     274:	000e7880 	sll	t7,t6,0x2
     278:	030fc021 	addu	t8,t8,t7
     27c:	8f180000 	lw	t8,0(t8)
     280:	00816024 	and	t4,a0,at
     284:	3c018000 	lui	at,0x8000
     288:	0198c821 	addu	t9,t4,t8
     28c:	03215821 	addu	t3,t9,at
     290:	ac6b0004 	sw	t3,4(v1)
     294:	8fad0070 	lw	t5,112(sp)
     298:	3c060000 	lui	a2,0x0
     29c:	24c6003c 	addiu	a2,a2,60
     2a0:	27a40058 	addiu	a0,sp,88
     2a4:	240712af 	li	a3,4783
     2a8:	0c000000 	jal	0 <func_800994A0>
     2ac:	8da50000 	lw	a1,0(t5)
     2b0:	8fbf0034 	lw	ra,52(sp)
     2b4:	27bd0070 	addiu	sp,sp,112
     2b8:	03e00008 	jr	ra
     2bc:	00000000 	nop

000002c0 <func_80099760>:
     2c0:	27bdffa0 	addiu	sp,sp,-96
     2c4:	afbf0034 	sw	ra,52(sp)
     2c8:	afa40060 	sw	a0,96(sp)
     2cc:	8c850000 	lw	a1,0(a0)
     2d0:	3c060000 	lui	a2,0x0
     2d4:	24c60050 	addiu	a2,a2,80
     2d8:	27a40048 	addiu	a0,sp,72
     2dc:	240712ed 	li	a3,4845
     2e0:	0c000000 	jal	0 <func_800994A0>
     2e4:	afa50058 	sw	a1,88(sp)
     2e8:	8fa80058 	lw	t0,88(sp)
     2ec:	8fab0060 	lw	t3,96(sp)
     2f0:	3c0a0001 	lui	t2,0x1
     2f4:	8d0202d0 	lw	v0,720(t0)
     2f8:	014b5021 	addu	t2,t2,t3
     2fc:	8d4a1de4 	lw	t2,7652(t2)
     300:	3c18db06 	lui	t8,0xdb06
     304:	244f0008 	addiu	t7,v0,8
     308:	37180020 	ori	t8,t8,0x20
     30c:	ad0f02d0 	sw	t7,720(t0)
     310:	ac580000 	sw	t8,0(v0)
     314:	8d640000 	lw	a0,0(t3)
     318:	000a1840 	sll	v1,t2,0x1
     31c:	306e007f 	andi	t6,v1,0x7f
     320:	24180020 	li	t8,32
     324:	240f0040 	li	t7,64
     328:	24190040 	li	t9,64
     32c:	240c0020 	li	t4,32
     330:	240d0001 	li	t5,1
     334:	afad0018 	sw	t5,24(sp)
     338:	afac0014 	sw	t4,20(sp)
     33c:	afb90010 	sw	t9,16(sp)
     340:	afaf0024 	sw	t7,36(sp)
     344:	afb80028 	sw	t8,40(sp)
     348:	afae0020 	sw	t6,32(sp)
     34c:	306600ff 	andi	a2,v1,0xff
     350:	afa0001c 	sw	zero,28(sp)
     354:	00002825 	move	a1,zero
     358:	00003825 	move	a3,zero
     35c:	afa80058 	sw	t0,88(sp)
     360:	0c000000 	jal	0 <func_800994A0>
     364:	afa20044 	sw	v0,68(sp)
     368:	8fa90044 	lw	t1,68(sp)
     36c:	8fa80058 	lw	t0,88(sp)
     370:	3c0ce700 	lui	t4,0xe700
     374:	ad220004 	sw	v0,4(t1)
     378:	8d0202d0 	lw	v0,720(t0)
     37c:	3c0f8080 	lui	t7,0x8080
     380:	35ef8080 	ori	t7,t7,0x8080
     384:	24590008 	addiu	t9,v0,8
     388:	ad1902d0 	sw	t9,720(t0)
     38c:	ac400004 	sw	zero,4(v0)
     390:	ac4c0000 	sw	t4,0(v0)
     394:	8d0202d0 	lw	v0,720(t0)
     398:	3c0efb00 	lui	t6,0xfb00
     39c:	3c060000 	lui	a2,0x0
     3a0:	244d0008 	addiu	t5,v0,8
     3a4:	ad0d02d0 	sw	t5,720(t0)
     3a8:	ac4f0004 	sw	t7,4(v0)
     3ac:	ac4e0000 	sw	t6,0(v0)
     3b0:	8fb80060 	lw	t8,96(sp)
     3b4:	24c60064 	addiu	a2,a2,100
     3b8:	27a40048 	addiu	a0,sp,72
     3bc:	240712fb 	li	a3,4859
     3c0:	0c000000 	jal	0 <func_800994A0>
     3c4:	8f050000 	lw	a1,0(t8)
     3c8:	8fbf0034 	lw	ra,52(sp)
     3cc:	27bd0060 	addiu	sp,sp,96
     3d0:	03e00008 	jr	ra
     3d4:	00000000 	nop

000003d8 <func_80099878>:
     3d8:	27bdff50 	addiu	sp,sp,-176
     3dc:	afbf0034 	sw	ra,52(sp)
     3e0:	afa400b0 	sw	a0,176(sp)
     3e4:	8c840000 	lw	a0,0(a0)
     3e8:	0c000000 	jal	0 <func_800994A0>
     3ec:	24050030 	li	a1,48
     3f0:	8faf00b0 	lw	t7,176(sp)
     3f4:	3c060000 	lui	a2,0x0
     3f8:	24c60078 	addiu	a2,a2,120
     3fc:	8de50000 	lw	a1,0(t7)
     400:	afa200a4 	sw	v0,164(sp)
     404:	27a40090 	addiu	a0,sp,144
     408:	24071329 	li	a3,4905
     40c:	0c000000 	jal	0 <func_800994A0>
     410:	afa500a0 	sw	a1,160(sp)
     414:	8fa800a0 	lw	t0,160(sp)
     418:	8fbf00b0 	lw	ra,176(sp)
     41c:	3c010001 	lui	at,0x1
     420:	8d0202c0 	lw	v0,704(t0)
     424:	03e1f821 	addu	ra,ra,at
     428:	8fa900a4 	lw	t1,164(sp)
     42c:	8fe31de4 	lw	v1,7652(ra)
     430:	3c19db06 	lui	t9,0xdb06
     434:	24580008 	addiu	t8,v0,8
     438:	37390020 	ori	t9,t9,0x20
     43c:	ad1802c0 	sw	t8,704(t0)
     440:	3c0e0000 	lui	t6,0x0
     444:	ac590000 	sw	t9,0(v0)
     448:	8dce0010 	lw	t6,16(t6)
     44c:	3c040000 	lui	a0,0x0
     450:	3c060000 	lui	a2,0x0
     454:	000e7880 	sll	t7,t6,0x2
     458:	008f2021 	addu	a0,a0,t7
     45c:	8c840000 	lw	a0,0(a0)
     460:	24c60000 	addiu	a2,a2,0
     464:	3c0500ff 	lui	a1,0xff
     468:	0004c900 	sll	t9,a0,0x4
     46c:	00197702 	srl	t6,t9,0x1c
     470:	000e7880 	sll	t7,t6,0x2
     474:	00cfc821 	addu	t9,a2,t7
     478:	8f2e0000 	lw	t6,0(t9)
     47c:	34a5ffff 	ori	a1,a1,0xffff
     480:	0085c024 	and	t8,a0,a1
     484:	3c078000 	lui	a3,0x8000
     488:	030e7821 	addu	t7,t8,t6
     48c:	01e7c821 	addu	t9,t7,a3
     490:	ac590004 	sw	t9,4(v0)
     494:	8d0202c0 	lw	v0,704(t0)
     498:	306e000e 	andi	t6,v1,0xe
     49c:	000e7843 	sra	t7,t6,0x1
     4a0:	3c0ddb06 	lui	t5,0xdb06
     4a4:	24580008 	addiu	t8,v0,8
     4a8:	35ad0024 	ori	t5,t5,0x24
     4ac:	000fc880 	sll	t9,t7,0x2
     4b0:	3c040000 	lui	a0,0x0
     4b4:	ad1802c0 	sw	t8,704(t0)
     4b8:	00992021 	addu	a0,a0,t9
     4bc:	ac4d0000 	sw	t5,0(v0)
     4c0:	8c840000 	lw	a0,0(a0)
     4c4:	306c007f 	andi	t4,v1,0x7f
     4c8:	00047100 	sll	t6,a0,0x4
     4cc:	000e7f02 	srl	t7,t6,0x1c
     4d0:	000fc880 	sll	t9,t7,0x2
     4d4:	00d97021 	addu	t6,a2,t9
     4d8:	8dcf0000 	lw	t7,0(t6)
     4dc:	0085c024 	and	t8,a0,a1
     4e0:	00002825 	move	a1,zero
     4e4:	030fc821 	addu	t9,t8,t7
     4e8:	03277021 	addu	t6,t9,a3
     4ec:	ac4e0004 	sw	t6,4(v0)
     4f0:	8d0202d0 	lw	v0,720(t0)
     4f4:	24190040 	li	t9,64
     4f8:	240e0020 	li	t6,32
     4fc:	24580008 	addiu	t8,v0,8
     500:	ad1802d0 	sw	t8,720(t0)
     504:	ac4d0000 	sw	t5,0(v0)
     508:	8faf00b0 	lw	t7,176(sp)
     50c:	24180001 	li	t8,1
     510:	00003825 	move	a3,zero
     514:	8de40000 	lw	a0,0(t7)
     518:	afb90010 	sw	t9,16(sp)
     51c:	24190020 	li	t9,32
     520:	afbf0044 	sw	ra,68(sp)
     524:	240f0040 	li	t7,64
     528:	afaf0024 	sw	t7,36(sp)
     52c:	afb90028 	sw	t9,40(sp)
     530:	afac0040 	sw	t4,64(sp)
     534:	afac0020 	sw	t4,32(sp)
     538:	afa0001c 	sw	zero,28(sp)
     53c:	afb80018 	sw	t8,24(sp)
     540:	afae0014 	sw	t6,20(sp)
     544:	afa800a0 	sw	t0,160(sp)
     548:	afa900a4 	sw	t1,164(sp)
     54c:	afa300ac 	sw	v1,172(sp)
     550:	306600ff 	andi	a2,v1,0xff
     554:	0c000000 	jal	0 <func_800994A0>
     558:	afa20084 	sw	v0,132(sp)
     55c:	8faa0084 	lw	t2,132(sp)
     560:	8fa800a0 	lw	t0,160(sp)
     564:	8fa900a4 	lw	t1,164(sp)
     568:	8fab00ac 	lw	t3,172(sp)
     56c:	8fbf0044 	lw	ra,68(sp)
     570:	ad420004 	sw	v0,4(t2)
     574:	8d0202c0 	lw	v0,704(t0)
     578:	3c18db06 	lui	t8,0xdb06
     57c:	37180028 	ori	t8,t8,0x28
     580:	244e0008 	addiu	t6,v0,8
     584:	ad0e02c0 	sw	t6,704(t0)
     588:	ac580000 	sw	t8,0(v0)
     58c:	8faf00b0 	lw	t7,176(sp)
     590:	24180001 	li	t8,1
     594:	24190020 	li	t9,32
     598:	8de40000 	lw	a0,0(t7)
     59c:	afb80018 	sw	t8,24(sp)
     5a0:	afb90010 	sw	t9,16(sp)
     5a4:	000b7840 	sll	t7,t3,0x1
     5a8:	31f9007f 	andi	t9,t7,0x7f
     5ac:	24180020 	li	t8,32
     5b0:	240e0020 	li	t6,32
     5b4:	afbf0044 	sw	ra,68(sp)
     5b8:	afae0014 	sw	t6,20(sp)
     5bc:	afae0024 	sw	t6,36(sp)
     5c0:	afb80028 	sw	t8,40(sp)
     5c4:	afb90020 	sw	t9,32(sp)
     5c8:	afa0001c 	sw	zero,28(sp)
     5cc:	8fa70040 	lw	a3,64(sp)
     5d0:	00002825 	move	a1,zero
     5d4:	00003025 	move	a2,zero
     5d8:	afa800a0 	sw	t0,160(sp)
     5dc:	afa900a4 	sw	t1,164(sp)
     5e0:	0c000000 	jal	0 <func_800994A0>
     5e4:	afa20080 	sw	v0,128(sp)
     5e8:	8fa30080 	lw	v1,128(sp)
     5ec:	8fa800a0 	lw	t0,160(sp)
     5f0:	8fa900a4 	lw	t1,164(sp)
     5f4:	8fbf0044 	lw	ra,68(sp)
     5f8:	ac620004 	sw	v0,4(v1)
     5fc:	8d0202c0 	lw	v0,704(t0)
     600:	3c04e700 	lui	a0,0xe700
     604:	3c068080 	lui	a2,0x8080
     608:	244f0008 	addiu	t7,v0,8
     60c:	ad0f02c0 	sw	t7,704(t0)
     610:	ac400004 	sw	zero,4(v0)
     614:	ac440000 	sw	a0,0(v0)
     618:	8d0202c0 	lw	v0,704(t0)
     61c:	34c68080 	ori	a2,a2,0x8080
     620:	3c05fb00 	lui	a1,0xfb00
     624:	24590008 	addiu	t9,v0,8
     628:	ad1902c0 	sw	t9,704(t0)
     62c:	ac460004 	sw	a2,4(v0)
     630:	ac450000 	sw	a1,0(v0)
     634:	8d0202d0 	lw	v0,720(t0)
     638:	3c19db06 	lui	t9,0xdb06
     63c:	3739002c 	ori	t9,t9,0x2c
     640:	244e0008 	addiu	t6,v0,8
     644:	ad0e02d0 	sw	t6,720(t0)
     648:	ac400004 	sw	zero,4(v0)
     64c:	ac440000 	sw	a0,0(v0)
     650:	8d0202d0 	lw	v0,720(t0)
     654:	3c07df00 	lui	a3,0xdf00
     658:	24580008 	addiu	t8,v0,8
     65c:	ad1802d0 	sw	t8,720(t0)
     660:	ac460004 	sw	a2,4(v0)
     664:	ac450000 	sw	a1,0(v0)
     668:	8d0202c0 	lw	v0,704(t0)
     66c:	2406ff00 	li	a2,-256
     670:	244f0008 	addiu	t7,v0,8
     674:	ad0f02c0 	sw	t7,704(t0)
     678:	ac490004 	sw	t1,4(v0)
     67c:	ac590000 	sw	t9,0(v0)
     680:	01201025 	move	v0,t1
     684:	ac440000 	sw	a0,0(v0)
     688:	ac400004 	sw	zero,4(v0)
     68c:	25290008 	addiu	t1,t1,8
     690:	01201025 	move	v0,t1
     694:	ac450000 	sw	a1,0(v0)
     698:	87ee1d30 	lh	t6,7472(ra)
     69c:	25290008 	addiu	t1,t1,8
     6a0:	31d800ff 	andi	t8,t6,0xff
     6a4:	03067825 	or	t7,t8,a2
     6a8:	ac4f0004 	sw	t7,4(v0)
     6ac:	01201025 	move	v0,t1
     6b0:	ac470000 	sw	a3,0(v0)
     6b4:	ac400004 	sw	zero,4(v0)
     6b8:	8d0202c0 	lw	v0,704(t0)
     6bc:	3c0edb06 	lui	t6,0xdb06
     6c0:	25290008 	addiu	t1,t1,8
     6c4:	24590008 	addiu	t9,v0,8
     6c8:	ad1902c0 	sw	t9,704(t0)
     6cc:	35ce0030 	ori	t6,t6,0x30
     6d0:	ac4e0000 	sw	t6,0(v0)
     6d4:	ac490004 	sw	t1,4(v0)
     6d8:	01201025 	move	v0,t1
     6dc:	ac440000 	sw	a0,0(v0)
     6e0:	ac400004 	sw	zero,4(v0)
     6e4:	25290008 	addiu	t1,t1,8
     6e8:	01201025 	move	v0,t1
     6ec:	ac450000 	sw	a1,0(v0)
     6f0:	87f81d32 	lh	t8,7474(ra)
     6f4:	25290008 	addiu	t1,t1,8
     6f8:	27a40090 	addiu	a0,sp,144
     6fc:	330f00ff 	andi	t7,t8,0xff
     700:	01e6c825 	or	t9,t7,a2
     704:	ac590004 	sw	t9,4(v0)
     708:	ad200004 	sw	zero,4(t1)
     70c:	ad270000 	sw	a3,0(t1)
     710:	8fae00b0 	lw	t6,176(sp)
     714:	3c060000 	lui	a2,0x0
     718:	24c6008c 	addiu	a2,a2,140
     71c:	2407135c 	li	a3,4956
     720:	0c000000 	jal	0 <func_800994A0>
     724:	8dc50000 	lw	a1,0(t6)
     728:	8fbf0034 	lw	ra,52(sp)
     72c:	27bd00b0 	addiu	sp,sp,176
     730:	03e00008 	jr	ra
     734:	00000000 	nop

00000738 <func_80099BD8>:
     738:	27bdff48 	addiu	sp,sp,-184
     73c:	afbf0014 	sw	ra,20(sp)
     740:	afa400b8 	sw	a0,184(sp)
     744:	8c840000 	lw	a0,0(a0)
     748:	0c000000 	jal	0 <func_800994A0>
     74c:	24050090 	li	a1,144
     750:	8faf00b8 	lw	t7,184(sp)
     754:	3c060000 	lui	a2,0x0
     758:	24c600a0 	addiu	a2,a2,160
     75c:	8de50000 	lw	a1,0(t7)
     760:	afa200b0 	sw	v0,176(sp)
     764:	27a4009c 	addiu	a0,sp,156
     768:	240713cd 	li	a3,5069
     76c:	0c000000 	jal	0 <func_800994A0>
     770:	afa500ac 	sw	a1,172(sp)
     774:	8fac00b8 	lw	t4,184(sp)
     778:	3c010001 	lui	at,0x1
     77c:	8fa800ac 	lw	t0,172(sp)
     780:	01813021 	addu	a2,t4,at
     784:	84d81d30 	lh	t8,7472(a2)
     788:	3c01437f 	lui	at,0x437f
     78c:	44814000 	mtc1	at,$f8
     790:	44982000 	mtc1	t8,$f4
     794:	3c014339 	lui	at,0x4339
     798:	44815000 	mtc1	at,$f10
     79c:	468021a0 	cvt.s.w	$f6,$f4
     7a0:	8d0202d0 	lw	v0,720(t0)
     7a4:	8fa300b0 	lw	v1,176(sp)
     7a8:	240f0001 	li	t7,1
     7ac:	24590008 	addiu	t9,v0,8
     7b0:	3c05db06 	lui	a1,0xdb06
     7b4:	46083003 	div.s	$f0,$f6,$f8
     7b8:	ad1902d0 	sw	t9,720(t0)
     7bc:	34a50020 	ori	a1,a1,0x20
     7c0:	ac450000 	sw	a1,0(v0)
     7c4:	ac430004 	sw	v1,4(v0)
     7c8:	8d0202c0 	lw	v0,704(t0)
     7cc:	3c0bfa00 	lui	t3,0xfa00
     7d0:	240400ff 	li	a0,255
     7d4:	244d0008 	addiu	t5,v0,8
     7d8:	ad0d02c0 	sw	t5,704(t0)
     7dc:	ac450000 	sw	a1,0(v0)
     7e0:	ac430004 	sw	v1,4(v0)
     7e4:	3c05db06 	lui	a1,0xdb06
     7e8:	00601025 	move	v0,v1
     7ec:	ac4b0000 	sw	t3,0(v0)
     7f0:	3c07df00 	lui	a3,0xdf00
     7f4:	34a50024 	ori	a1,a1,0x24
     7f8:	3c09e700 	lui	t1,0xe700
     7fc:	3c0afb00 	lui	t2,0xfb00
     800:	24630008 	addiu	v1,v1,8
     804:	46005402 	mul.s	$f16,$f10,$f0
     808:	444ef800 	cfc1	t6,$31
     80c:	44cff800 	ctc1	t7,$31
     810:	00000000 	nop
     814:	460084a4 	cvt.w.s	$f18,$f16
     818:	444ff800 	cfc1	t7,$31
     81c:	00000000 	nop
     820:	31ef0078 	andi	t7,t7,0x78
     824:	11e00012 	beqz	t7,870 <func_80099BD8+0x138>
     828:	3c014f00 	lui	at,0x4f00
     82c:	44819000 	mtc1	at,$f18
     830:	240f0001 	li	t7,1
     834:	46128481 	sub.s	$f18,$f16,$f18
     838:	44cff800 	ctc1	t7,$31
     83c:	00000000 	nop
     840:	460094a4 	cvt.w.s	$f18,$f18
     844:	444ff800 	cfc1	t7,$31
     848:	00000000 	nop
     84c:	31ef0078 	andi	t7,t7,0x78
     850:	15e00005 	bnez	t7,868 <func_80099BD8+0x130>
     854:	00000000 	nop
     858:	440f9000 	mfc1	t7,$f18
     85c:	3c018000 	lui	at,0x8000
     860:	10000007 	b	880 <func_80099BD8+0x148>
     864:	01e17825 	or	t7,t7,at
     868:	10000005 	b	880 <func_80099BD8+0x148>
     86c:	240fffff 	li	t7,-1
     870:	440f9000 	mfc1	t7,$f18
     874:	00000000 	nop
     878:	05e0fffb 	bltz	t7,868 <func_80099BD8+0x130>
     87c:	00000000 	nop
     880:	3c014311 	lui	at,0x4311
     884:	44cef800 	ctc1	t6,$31
     888:	44812000 	mtc1	at,$f4
     88c:	01e0c025 	move	t8,t7
     890:	00986823 	subu	t5,a0,t8
     894:	46002182 	mul.s	$f6,$f4,$f0
     898:	24180001 	li	t8,1
     89c:	000d7600 	sll	t6,t5,0x18
     8a0:	3c014f00 	lui	at,0x4f00
     8a4:	444ff800 	cfc1	t7,$31
     8a8:	44d8f800 	ctc1	t8,$31
     8ac:	00000000 	nop
     8b0:	46003224 	cvt.w.s	$f8,$f6
     8b4:	4458f800 	cfc1	t8,$31
     8b8:	00000000 	nop
     8bc:	33180078 	andi	t8,t8,0x78
     8c0:	53000013 	beqzl	t8,910 <func_80099BD8+0x1d8>
     8c4:	44184000 	mfc1	t8,$f8
     8c8:	44814000 	mtc1	at,$f8
     8cc:	24180001 	li	t8,1
     8d0:	46083201 	sub.s	$f8,$f6,$f8
     8d4:	44d8f800 	ctc1	t8,$31
     8d8:	00000000 	nop
     8dc:	46004224 	cvt.w.s	$f8,$f8
     8e0:	4458f800 	cfc1	t8,$31
     8e4:	00000000 	nop
     8e8:	33180078 	andi	t8,t8,0x78
     8ec:	17000005 	bnez	t8,904 <func_80099BD8+0x1cc>
     8f0:	00000000 	nop
     8f4:	44184000 	mfc1	t8,$f8
     8f8:	3c018000 	lui	at,0x8000
     8fc:	10000007 	b	91c <func_80099BD8+0x1e4>
     900:	0301c025 	or	t8,t8,at
     904:	10000005 	b	91c <func_80099BD8+0x1e4>
     908:	2418ffff 	li	t8,-1
     90c:	44184000 	mfc1	t8,$f8
     910:	00000000 	nop
     914:	0700fffb 	bltz	t8,904 <func_80099BD8+0x1cc>
     918:	00000000 	nop
     91c:	3c0142d2 	lui	at,0x42d2
     920:	44cff800 	ctc1	t7,$31
     924:	44815000 	mtc1	at,$f10
     928:	0300c825 	move	t9,t8
     92c:	00996823 	subu	t5,a0,t9
     930:	46005402 	mul.s	$f16,$f10,$f0
     934:	31af00ff 	andi	t7,t5,0xff
     938:	000fc400 	sll	t8,t7,0x10
     93c:	240f0001 	li	t7,1
     940:	01d8c825 	or	t9,t6,t8
     944:	3c014f00 	lui	at,0x4f00
     948:	444df800 	cfc1	t5,$31
     94c:	44cff800 	ctc1	t7,$31
     950:	00000000 	nop
     954:	460084a4 	cvt.w.s	$f18,$f16
     958:	444ff800 	cfc1	t7,$31
     95c:	00000000 	nop
     960:	31ef0078 	andi	t7,t7,0x78
     964:	51e00013 	beqzl	t7,9b4 <func_80099BD8+0x27c>
     968:	440f9000 	mfc1	t7,$f18
     96c:	44819000 	mtc1	at,$f18
     970:	240f0001 	li	t7,1
     974:	46128481 	sub.s	$f18,$f16,$f18
     978:	44cff800 	ctc1	t7,$31
     97c:	00000000 	nop
     980:	460094a4 	cvt.w.s	$f18,$f18
     984:	444ff800 	cfc1	t7,$31
     988:	00000000 	nop
     98c:	31ef0078 	andi	t7,t7,0x78
     990:	15e00005 	bnez	t7,9a8 <func_80099BD8+0x270>
     994:	00000000 	nop
     998:	440f9000 	mfc1	t7,$f18
     99c:	3c018000 	lui	at,0x8000
     9a0:	10000007 	b	9c0 <func_80099BD8+0x288>
     9a4:	01e17825 	or	t7,t7,at
     9a8:	10000005 	b	9c0 <func_80099BD8+0x288>
     9ac:	240fffff 	li	t7,-1
     9b0:	440f9000 	mfc1	t7,$f18
     9b4:	00000000 	nop
     9b8:	05e0fffb 	bltz	t7,9a8 <func_80099BD8+0x270>
     9bc:	00000000 	nop
     9c0:	01e07025 	move	t6,t7
     9c4:	44cdf800 	ctc1	t5,$31
     9c8:	008ec023 	subu	t8,a0,t6
     9cc:	330d00ff 	andi	t5,t8,0xff
     9d0:	3c0140c0 	lui	at,0x40c0
     9d4:	44812000 	mtc1	at,$f4
     9d8:	000d7a00 	sll	t7,t5,0x8
     9dc:	032f7025 	or	t6,t9,t7
     9e0:	35d800ff 	ori	t8,t6,0xff
     9e4:	46002182 	mul.s	$f6,$f4,$f0
     9e8:	ac580004 	sw	t8,4(v0)
     9ec:	00601025 	move	v0,v1
     9f0:	ac470000 	sw	a3,0(v0)
     9f4:	ac400004 	sw	zero,4(v0)
     9f8:	8d0202d0 	lw	v0,720(t0)
     9fc:	240e0001 	li	t6,1
     a00:	444ff800 	cfc1	t7,$31
     a04:	244d0008 	addiu	t5,v0,8
     a08:	44cef800 	ctc1	t6,$31
     a0c:	ad0d02d0 	sw	t5,720(t0)
     a10:	24630008 	addiu	v1,v1,8
     a14:	ac430004 	sw	v1,4(v0)
     a18:	ac450000 	sw	a1,0(v0)
     a1c:	46003224 	cvt.w.s	$f8,$f6
     a20:	8d0202c0 	lw	v0,704(t0)
     a24:	3c014f00 	lui	at,0x4f00
     a28:	24590008 	addiu	t9,v0,8
     a2c:	444ef800 	cfc1	t6,$31
     a30:	ad1902c0 	sw	t9,704(t0)
     a34:	ac450000 	sw	a1,0(v0)
     a38:	ac430004 	sw	v1,4(v0)
     a3c:	00601025 	move	v0,v1
     a40:	31ce0078 	andi	t6,t6,0x78
     a44:	ac4b0000 	sw	t3,0(v0)
     a48:	11c00012 	beqz	t6,a94 <func_80099BD8+0x35c>
     a4c:	24630008 	addiu	v1,v1,8
     a50:	44814000 	mtc1	at,$f8
     a54:	240e0001 	li	t6,1
     a58:	46083201 	sub.s	$f8,$f6,$f8
     a5c:	44cef800 	ctc1	t6,$31
     a60:	00000000 	nop
     a64:	46004224 	cvt.w.s	$f8,$f8
     a68:	444ef800 	cfc1	t6,$31
     a6c:	00000000 	nop
     a70:	31ce0078 	andi	t6,t6,0x78
     a74:	15c00005 	bnez	t6,a8c <func_80099BD8+0x354>
     a78:	00000000 	nop
     a7c:	440e4000 	mfc1	t6,$f8
     a80:	3c018000 	lui	at,0x8000
     a84:	10000007 	b	aa4 <func_80099BD8+0x36c>
     a88:	01c17025 	or	t6,t6,at
     a8c:	10000005 	b	aa4 <func_80099BD8+0x36c>
     a90:	240effff 	li	t6,-1
     a94:	440e4000 	mfc1	t6,$f8
     a98:	00000000 	nop
     a9c:	05c0fffb 	bltz	t6,a8c <func_80099BD8+0x354>
     aa0:	00000000 	nop
     aa4:	3c014208 	lui	at,0x4208
     aa8:	44cff800 	ctc1	t7,$31
     aac:	44815000 	mtc1	at,$f10
     ab0:	01c0c025 	move	t8,t6
     ab4:	2719004c 	addiu	t9,t8,76
     ab8:	46005402 	mul.s	$f16,$f10,$f0
     abc:	24180001 	li	t8,1
     ac0:	00197e00 	sll	t7,t9,0x18
     ac4:	3c014f00 	lui	at,0x4f00
     ac8:	3c05db06 	lui	a1,0xdb06
     acc:	444ef800 	cfc1	t6,$31
     ad0:	44d8f800 	ctc1	t8,$31
     ad4:	00000000 	nop
     ad8:	460084a4 	cvt.w.s	$f18,$f16
     adc:	4458f800 	cfc1	t8,$31
     ae0:	00000000 	nop
     ae4:	33180078 	andi	t8,t8,0x78
     ae8:	53000013 	beqzl	t8,b38 <func_80099BD8+0x400>
     aec:	44189000 	mfc1	t8,$f18
     af0:	44819000 	mtc1	at,$f18
     af4:	24180001 	li	t8,1
     af8:	46128481 	sub.s	$f18,$f16,$f18
     afc:	44d8f800 	ctc1	t8,$31
     b00:	00000000 	nop
     b04:	460094a4 	cvt.w.s	$f18,$f18
     b08:	4458f800 	cfc1	t8,$31
     b0c:	00000000 	nop
     b10:	33180078 	andi	t8,t8,0x78
     b14:	17000005 	bnez	t8,b2c <func_80099BD8+0x3f4>
     b18:	00000000 	nop
     b1c:	44189000 	mfc1	t8,$f18
     b20:	3c018000 	lui	at,0x8000
     b24:	10000007 	b	b44 <func_80099BD8+0x40c>
     b28:	0301c025 	or	t8,t8,at
     b2c:	10000005 	b	b44 <func_80099BD8+0x40c>
     b30:	2418ffff 	li	t8,-1
     b34:	44189000 	mfc1	t8,$f18
     b38:	00000000 	nop
     b3c:	0700fffb 	bltz	t8,b2c <func_80099BD8+0x3f4>
     b40:	00000000 	nop
     b44:	3c014294 	lui	at,0x4294
     b48:	44cef800 	ctc1	t6,$31
     b4c:	44812000 	mtc1	at,$f4
     b50:	03006825 	move	t5,t8
     b54:	25b9004c 	addiu	t9,t5,76
     b58:	46002182 	mul.s	$f6,$f4,$f0
     b5c:	332e00ff 	andi	t6,t9,0xff
     b60:	000ec400 	sll	t8,t6,0x10
     b64:	240e0001 	li	t6,1
     b68:	01f86825 	or	t5,t7,t8
     b6c:	3c014f00 	lui	at,0x4f00
     b70:	4459f800 	cfc1	t9,$31
     b74:	44cef800 	ctc1	t6,$31
     b78:	00000000 	nop
     b7c:	46003224 	cvt.w.s	$f8,$f6
     b80:	444ef800 	cfc1	t6,$31
     b84:	00000000 	nop
     b88:	31ce0078 	andi	t6,t6,0x78
     b8c:	51c00013 	beqzl	t6,bdc <func_80099BD8+0x4a4>
     b90:	440e4000 	mfc1	t6,$f8
     b94:	44814000 	mtc1	at,$f8
     b98:	240e0001 	li	t6,1
     b9c:	46083201 	sub.s	$f8,$f6,$f8
     ba0:	44cef800 	ctc1	t6,$31
     ba4:	00000000 	nop
     ba8:	46004224 	cvt.w.s	$f8,$f8
     bac:	444ef800 	cfc1	t6,$31
     bb0:	00000000 	nop
     bb4:	31ce0078 	andi	t6,t6,0x78
     bb8:	15c00005 	bnez	t6,bd0 <func_80099BD8+0x498>
     bbc:	00000000 	nop
     bc0:	440e4000 	mfc1	t6,$f8
     bc4:	3c018000 	lui	at,0x8000
     bc8:	10000007 	b	be8 <func_80099BD8+0x4b0>
     bcc:	01c17025 	or	t6,t6,at
     bd0:	10000005 	b	be8 <func_80099BD8+0x4b0>
     bd4:	240effff 	li	t6,-1
     bd8:	440e4000 	mfc1	t6,$f8
     bdc:	00000000 	nop
     be0:	05c0fffb 	bltz	t6,bd0 <func_80099BD8+0x498>
     be4:	00000000 	nop
     be8:	01c07825 	move	t7,t6
     bec:	44d9f800 	ctc1	t9,$31
     bf0:	25f8004c 	addiu	t8,t7,76
     bf4:	331900ff 	andi	t9,t8,0xff
     bf8:	00197200 	sll	t6,t9,0x8
     bfc:	01ae7825 	or	t7,t5,t6
     c00:	35f800ff 	ori	t8,t7,0xff
     c04:	ac580004 	sw	t8,4(v0)
     c08:	00601025 	move	v0,v1
     c0c:	ac470000 	sw	a3,0(v0)
     c10:	ac400004 	sw	zero,4(v0)
     c14:	8d0202c0 	lw	v0,704(t0)
     c18:	24630008 	addiu	v1,v1,8
     c1c:	34a50028 	ori	a1,a1,0x28
     c20:	24590008 	addiu	t9,v0,8
     c24:	ad1902c0 	sw	t9,704(t0)
     c28:	ac430004 	sw	v1,4(v0)
     c2c:	ac450000 	sw	a1,0(v0)
     c30:	8d0202d0 	lw	v0,720(t0)
     c34:	3c014326 	lui	at,0x4326
     c38:	44815000 	mtc1	at,$f10
     c3c:	244d0008 	addiu	t5,v0,8
     c40:	ad0d02d0 	sw	t5,720(t0)
     c44:	ac430004 	sw	v1,4(v0)
     c48:	ac450000 	sw	a1,0(v0)
     c4c:	00601025 	move	v0,v1
     c50:	ac490000 	sw	t1,0(v0)
     c54:	ac400004 	sw	zero,4(v0)
     c58:	24630008 	addiu	v1,v1,8
     c5c:	00601025 	move	v0,v1
     c60:	ac4a0000 	sw	t2,0(v0)
     c64:	84ce1d30 	lh	t6,7472(a2)
     c68:	24630008 	addiu	v1,v1,8
     c6c:	3c05db06 	lui	a1,0xdb06
     c70:	31cf00ff 	andi	t7,t6,0xff
     c74:	ac4f0004 	sw	t7,4(v0)
     c78:	00601025 	move	v0,v1
     c7c:	ac470000 	sw	a3,0(v0)
     c80:	ac400004 	sw	zero,4(v0)
     c84:	8d0202c0 	lw	v0,704(t0)
     c88:	24630008 	addiu	v1,v1,8
     c8c:	34a5002c 	ori	a1,a1,0x2c
     c90:	24580008 	addiu	t8,v0,8
     c94:	ad1802c0 	sw	t8,704(t0)
     c98:	ac430004 	sw	v1,4(v0)
     c9c:	ac450000 	sw	a1,0(v0)
     ca0:	46005402 	mul.s	$f16,$f10,$f0
     ca4:	8d0202d0 	lw	v0,720(t0)
     ca8:	00602025 	move	a0,v1
     cac:	3c014f00 	lui	at,0x4f00
     cb0:	24590008 	addiu	t9,v0,8
     cb4:	ad1902d0 	sw	t9,720(t0)
     cb8:	ac430004 	sw	v1,4(v0)
     cbc:	ac450000 	sw	a1,0(v0)
     cc0:	24020001 	li	v0,1
     cc4:	444df800 	cfc1	t5,$31
     cc8:	44c2f800 	ctc1	v0,$31
     ccc:	3c05db06 	lui	a1,0xdb06
     cd0:	ac8b0000 	sw	t3,0(a0)
     cd4:	460084a4 	cvt.w.s	$f18,$f16
     cd8:	24630008 	addiu	v1,v1,8
     cdc:	34a50030 	ori	a1,a1,0x30
     ce0:	4442f800 	cfc1	v0,$31
     ce4:	00000000 	nop
     ce8:	30420078 	andi	v0,v0,0x78
     cec:	50400013 	beqzl	v0,d3c <func_80099BD8+0x604>
     cf0:	44029000 	mfc1	v0,$f18
     cf4:	44819000 	mtc1	at,$f18
     cf8:	24020001 	li	v0,1
     cfc:	46128481 	sub.s	$f18,$f16,$f18
     d00:	44c2f800 	ctc1	v0,$31
     d04:	00000000 	nop
     d08:	460094a4 	cvt.w.s	$f18,$f18
     d0c:	4442f800 	cfc1	v0,$31
     d10:	00000000 	nop
     d14:	30420078 	andi	v0,v0,0x78
     d18:	14400005 	bnez	v0,d30 <func_80099BD8+0x5f8>
     d1c:	00000000 	nop
     d20:	44029000 	mfc1	v0,$f18
     d24:	3c018000 	lui	at,0x8000
     d28:	10000007 	b	d48 <func_80099BD8+0x610>
     d2c:	00411025 	or	v0,v0,at
     d30:	10000005 	b	d48 <func_80099BD8+0x610>
     d34:	2402ffff 	li	v0,-1
     d38:	44029000 	mfc1	v0,$f18
     d3c:	00000000 	nop
     d40:	0440fffb 	bltz	v0,d30 <func_80099BD8+0x5f8>
     d44:	00000000 	nop
     d48:	24420059 	addiu	v0,v0,89
     d4c:	304200ff 	andi	v0,v0,0xff
     d50:	00027600 	sll	t6,v0,0x18
     d54:	00027c00 	sll	t7,v0,0x10
     d58:	44cdf800 	ctc1	t5,$31
     d5c:	01cfc025 	or	t8,t6,t7
     d60:	0002ca00 	sll	t9,v0,0x8
     d64:	03196825 	or	t5,t8,t9
     d68:	35ae00ff 	ori	t6,t5,0xff
     d6c:	00601025 	move	v0,v1
     d70:	ac8e0004 	sw	t6,4(a0)
     d74:	ac400004 	sw	zero,4(v0)
     d78:	ac490000 	sw	t1,0(v0)
     d7c:	24630008 	addiu	v1,v1,8
     d80:	00601025 	move	v0,v1
     d84:	ac4a0000 	sw	t2,0(v0)
     d88:	84cf1d30 	lh	t7,7472(a2)
     d8c:	24630008 	addiu	v1,v1,8
     d90:	3c014333 	lui	at,0x4333
     d94:	31f800ff 	andi	t8,t7,0xff
     d98:	ac580004 	sw	t8,4(v0)
     d9c:	00601025 	move	v0,v1
     da0:	ac470000 	sw	a3,0(v0)
     da4:	ac400004 	sw	zero,4(v0)
     da8:	8d0202c0 	lw	v0,704(t0)
     dac:	44812000 	mtc1	at,$f4
     db0:	24630008 	addiu	v1,v1,8
     db4:	24590008 	addiu	t9,v0,8
     db8:	ad1902c0 	sw	t9,704(t0)
     dbc:	ac430004 	sw	v1,4(v0)
     dc0:	ac450000 	sw	a1,0(v0)
     dc4:	46002182 	mul.s	$f6,$f4,$f0
     dc8:	8d0202d0 	lw	v0,720(t0)
     dcc:	00602025 	move	a0,v1
     dd0:	3c014f00 	lui	at,0x4f00
     dd4:	244d0008 	addiu	t5,v0,8
     dd8:	ad0d02d0 	sw	t5,720(t0)
     ddc:	ac430004 	sw	v1,4(v0)
     de0:	ac450000 	sw	a1,0(v0)
     de4:	24020001 	li	v0,1
     de8:	444ef800 	cfc1	t6,$31
     dec:	44c2f800 	ctc1	v0,$31
     df0:	ac8b0000 	sw	t3,0(a0)
     df4:	24630008 	addiu	v1,v1,8
     df8:	46003224 	cvt.w.s	$f8,$f6
     dfc:	4442f800 	cfc1	v0,$31
     e00:	00000000 	nop
     e04:	30420078 	andi	v0,v0,0x78
     e08:	50400013 	beqzl	v0,e58 <func_80099BD8+0x720>
     e0c:	44024000 	mfc1	v0,$f8
     e10:	44814000 	mtc1	at,$f8
     e14:	24020001 	li	v0,1
     e18:	46083201 	sub.s	$f8,$f6,$f8
     e1c:	44c2f800 	ctc1	v0,$31
     e20:	00000000 	nop
     e24:	46004224 	cvt.w.s	$f8,$f8
     e28:	4442f800 	cfc1	v0,$31
     e2c:	00000000 	nop
     e30:	30420078 	andi	v0,v0,0x78
     e34:	14400005 	bnez	v0,e4c <func_80099BD8+0x714>
     e38:	00000000 	nop
     e3c:	44024000 	mfc1	v0,$f8
     e40:	3c018000 	lui	at,0x8000
     e44:	10000007 	b	e64 <func_80099BD8+0x72c>
     e48:	00411025 	or	v0,v0,at
     e4c:	10000005 	b	e64 <func_80099BD8+0x72c>
     e50:	2402ffff 	li	v0,-1
     e54:	44024000 	mfc1	v0,$f8
     e58:	00000000 	nop
     e5c:	0440fffb 	bltz	v0,e4c <func_80099BD8+0x714>
     e60:	00000000 	nop
     e64:	244200ff 	addiu	v0,v0,255
     e68:	304200ff 	andi	v0,v0,0xff
     e6c:	00027e00 	sll	t7,v0,0x18
     e70:	0002c400 	sll	t8,v0,0x10
     e74:	01f8c825 	or	t9,t7,t8
     e78:	00026a00 	sll	t5,v0,0x8
     e7c:	44cef800 	ctc1	t6,$31
     e80:	032d7025 	or	t6,t9,t5
     e84:	35cf00ff 	ori	t7,t6,0xff
     e88:	00601025 	move	v0,v1
     e8c:	ac8f0004 	sw	t7,4(a0)
     e90:	ac400004 	sw	zero,4(v0)
     e94:	ac490000 	sw	t1,0(v0)
     e98:	24630008 	addiu	v1,v1,8
     e9c:	00601025 	move	v0,v1
     ea0:	ac4a0000 	sw	t2,0(v0)
     ea4:	84d81d30 	lh	t8,7472(a2)
     ea8:	24630008 	addiu	v1,v1,8
     eac:	3c05db06 	lui	a1,0xdb06
     eb0:	331900ff 	andi	t9,t8,0xff
     eb4:	ac590004 	sw	t9,4(v0)
     eb8:	00601025 	move	v0,v1
     ebc:	ac470000 	sw	a3,0(v0)
     ec0:	ac400004 	sw	zero,4(v0)
     ec4:	8d0202c0 	lw	v0,704(t0)
     ec8:	24630008 	addiu	v1,v1,8
     ecc:	34a50034 	ori	a1,a1,0x34
     ed0:	244d0008 	addiu	t5,v0,8
     ed4:	ad0d02c0 	sw	t5,704(t0)
     ed8:	ac430004 	sw	v1,4(v0)
     edc:	ac450000 	sw	a1,0(v0)
     ee0:	8d0202d0 	lw	v0,720(t0)
     ee4:	27a4009c 	addiu	a0,sp,156
     ee8:	244e0008 	addiu	t6,v0,8
     eec:	ad0e02d0 	sw	t6,720(t0)
     ef0:	ac430004 	sw	v1,4(v0)
     ef4:	ac450000 	sw	a1,0(v0)
     ef8:	00601025 	move	v0,v1
     efc:	ac490000 	sw	t1,0(v0)
     f00:	ac400004 	sw	zero,4(v0)
     f04:	24630008 	addiu	v1,v1,8
     f08:	00601025 	move	v0,v1
     f0c:	ac4a0000 	sw	t2,0(v0)
     f10:	84cf1d32 	lh	t7,7474(a2)
     f14:	3c060000 	lui	a2,0x0
     f18:	24630008 	addiu	v1,v1,8
     f1c:	31f800ff 	andi	t8,t7,0xff
     f20:	ac580004 	sw	t8,4(v0)
     f24:	ac600004 	sw	zero,4(v1)
     f28:	ac670000 	sw	a3,0(v1)
     f2c:	8d850000 	lw	a1,0(t4)
     f30:	24071419 	li	a3,5145
     f34:	0c000000 	jal	0 <func_800994A0>
     f38:	24c600b4 	addiu	a2,a2,180
     f3c:	3c190000 	lui	t9,0x0
     f40:	8f391360 	lw	t9,4960(t9)
     f44:	24010005 	li	at,5
     f48:	3c020000 	lui	v0,0x0
     f4c:	17210017 	bne	t9,at,fac <func_80099BD8+0x874>
     f50:	24420000 	addiu	v0,v0,0
     f54:	240d0001 	li	t5,1
     f58:	3c010000 	lui	at,0x0
     f5c:	a02d0000 	sb	t5,0(at)
     f60:	3c01c1a0 	lui	at,0xc1a0
     f64:	44815000 	mtc1	at,$f10
     f68:	3c010000 	lui	at,0x0
     f6c:	240e000a 	li	t6,10
     f70:	e44a0000 	swc1	$f10,0(v0)
     f74:	c4300834 	lwc1	$f16,2100(at)
     f78:	3c01c42b 	lui	at,0xc42b
     f7c:	44819000 	mtc1	at,$f18
     f80:	3c010000 	lui	at,0x0
     f84:	e4500004 	swc1	$f16,4(v0)
     f88:	e4520008 	swc1	$f18,8(v0)
     f8c:	a42e0000 	sh	t6,0(at)
     f90:	3c014100 	lui	at,0x4100
     f94:	44812000 	mtc1	at,$f4
     f98:	3c010000 	lui	at,0x0
     f9c:	240f00c8 	li	t7,200
     fa0:	e4240000 	swc1	$f4,0(at)
     fa4:	3c010000 	lui	at,0x0
     fa8:	a42f0000 	sh	t7,0(at)
     fac:	8fbf0014 	lw	ra,20(sp)
     fb0:	27bd00b8 	addiu	sp,sp,184
     fb4:	03e00008 	jr	ra
     fb8:	00000000 	nop

00000fbc <func_8009A45C>:
     fbc:	27bdff70 	addiu	sp,sp,-144
     fc0:	afbf003c 	sw	ra,60(sp)
     fc4:	afb10038 	sw	s1,56(sp)
     fc8:	afb00034 	sw	s0,52(sp)
     fcc:	8c850000 	lw	a1,0(a0)
     fd0:	00808825 	move	s1,a0
     fd4:	3c060000 	lui	a2,0x0
     fd8:	24c600c8 	addiu	a2,a2,200
     fdc:	27a40078 	addiu	a0,sp,120
     fe0:	24071433 	li	a3,5171
     fe4:	0c000000 	jal	0 <func_800994A0>
     fe8:	00a08025 	move	s0,a1
     fec:	8e0202d0 	lw	v0,720(s0)
     ff0:	3c090001 	lui	t1,0x1
     ff4:	01314821 	addu	t1,t1,s1
     ff8:	8d281de4 	lw	t0,7652(t1)
     ffc:	3c0fdb06 	lui	t7,0xdb06
    1000:	244e0008 	addiu	t6,v0,8
    1004:	ae0e02d0 	sw	t6,720(s0)
    1008:	35ef0020 	ori	t7,t7,0x20
    100c:	ac4f0000 	sw	t7,0(v0)
    1010:	8e240000 	lw	a0,0(s1)
    1014:	24180010 	li	t8,16
    1018:	afb80010 	sw	t8,16(sp)
    101c:	00002825 	move	a1,zero
    1020:	24070100 	li	a3,256
    1024:	afa20074 	sw	v0,116(sp)
    1028:	afa8008c 	sw	t0,140(sp)
    102c:	afa8004c 	sw	t0,76(sp)
    1030:	0c000000 	jal	0 <func_800994A0>
    1034:	3106003f 	andi	a2,t0,0x3f
    1038:	8fa30074 	lw	v1,116(sp)
    103c:	8fa8004c 	lw	t0,76(sp)
    1040:	3c0adb06 	lui	t2,0xdb06
    1044:	ac620004 	sw	v0,4(v1)
    1048:	8e0202d0 	lw	v0,720(s0)
    104c:	354a0024 	ori	t2,t2,0x24
    1050:	240b007f 	li	t3,127
    1054:	24590008 	addiu	t9,v0,8
    1058:	ae1902d0 	sw	t9,720(s0)
    105c:	ac4a0000 	sw	t2,0(v0)
    1060:	8e240000 	lw	a0,0(s1)
    1064:	8fa3008c 	lw	v1,140(sp)
    1068:	240c0020 	li	t4,32
    106c:	240d0020 	li	t5,32
    1070:	240e0001 	li	t6,1
    1074:	240f0020 	li	t7,32
    1078:	24180020 	li	t8,32
    107c:	3107007f 	andi	a3,t0,0x7f
    1080:	3063007f 	andi	v1,v1,0x7f
    1084:	01633023 	subu	a2,t3,v1
    1088:	afa3001c 	sw	v1,28(sp)
    108c:	afa70020 	sw	a3,32(sp)
    1090:	afa70048 	sw	a3,72(sp)
    1094:	afb80028 	sw	t8,40(sp)
    1098:	afaf0024 	sw	t7,36(sp)
    109c:	afae0018 	sw	t6,24(sp)
    10a0:	afad0014 	sw	t5,20(sp)
    10a4:	afac0010 	sw	t4,16(sp)
    10a8:	00002825 	move	a1,zero
    10ac:	0c000000 	jal	0 <func_800994A0>
    10b0:	afa20070 	sw	v0,112(sp)
    10b4:	8fa90070 	lw	t1,112(sp)
    10b8:	3c0adb06 	lui	t2,0xdb06
    10bc:	354a0028 	ori	t2,t2,0x28
    10c0:	ad220004 	sw	v0,4(t1)
    10c4:	8e0202c0 	lw	v0,704(s0)
    10c8:	240f007f 	li	t7,127
    10cc:	240b0020 	li	t3,32
    10d0:	24590008 	addiu	t9,v0,8
    10d4:	ae1902c0 	sw	t9,704(s0)
    10d8:	ac4a0000 	sw	t2,0(v0)
    10dc:	8e240000 	lw	a0,0(s1)
    10e0:	8fae0048 	lw	t6,72(sp)
    10e4:	240a0020 	li	t2,32
    10e8:	24190020 	li	t9,32
    10ec:	240c0020 	li	t4,32
    10f0:	240d0001 	li	t5,1
    10f4:	01eec023 	subu	t8,t7,t6
    10f8:	afb80020 	sw	t8,32(sp)
    10fc:	afad0018 	sw	t5,24(sp)
    1100:	afac0014 	sw	t4,20(sp)
    1104:	afb90024 	sw	t9,36(sp)
    1108:	afaa0028 	sw	t2,40(sp)
    110c:	afa0001c 	sw	zero,28(sp)
    1110:	afab0010 	sw	t3,16(sp)
    1114:	00002825 	move	a1,zero
    1118:	00003025 	move	a2,zero
    111c:	00003825 	move	a3,zero
    1120:	0c000000 	jal	0 <func_800994A0>
    1124:	afa2006c 	sw	v0,108(sp)
    1128:	8fa3006c 	lw	v1,108(sp)
    112c:	3c0cdb06 	lui	t4,0xdb06
    1130:	358c002c 	ori	t4,t4,0x2c
    1134:	ac620004 	sw	v0,4(v1)
    1138:	8e0202c0 	lw	v0,704(s0)
    113c:	240d0020 	li	t5,32
    1140:	00002825 	move	a1,zero
    1144:	244b0008 	addiu	t3,v0,8
    1148:	ae0b02c0 	sw	t3,704(s0)
    114c:	ac4c0000 	sw	t4,0(v0)
    1150:	8e240000 	lw	a0,0(s1)
    1154:	afad0010 	sw	t5,16(sp)
    1158:	8fa60048 	lw	a2,72(sp)
    115c:	24070020 	li	a3,32
    1160:	0c000000 	jal	0 <func_800994A0>
    1164:	afa20068 	sw	v0,104(sp)
    1168:	8fa30068 	lw	v1,104(sp)
    116c:	3c0edb06 	lui	t6,0xdb06
    1170:	35ce0030 	ori	t6,t6,0x30
    1174:	ac620004 	sw	v0,4(v1)
    1178:	8e0202d0 	lw	v0,720(s0)
    117c:	24190008 	li	t9,8
    1180:	240a0200 	li	t2,512
    1184:	244f0008 	addiu	t7,v0,8
    1188:	ae0f02d0 	sw	t7,720(s0)
    118c:	ac4e0000 	sw	t6,0(v0)
    1190:	8fb8008c 	lw	t8,140(sp)
    1194:	8e240000 	lw	a0,0(s1)
    1198:	240e0200 	li	t6,512
    119c:	00183880 	sll	a3,t8,0x2
    11a0:	00f83823 	subu	a3,a3,t8
    11a4:	00186100 	sll	t4,t8,0x4
    11a8:	000738c0 	sll	a3,a3,0x3
    11ac:	01986023 	subu	t4,t4,t8
    11b0:	000c6080 	sll	t4,t4,0x2
    11b4:	00f83821 	addu	a3,a3,t8
    11b8:	00073840 	sll	a3,a3,0x1
    11bc:	318d07ff 	andi	t5,t4,0x7ff
    11c0:	240f0008 	li	t7,8
    11c4:	240b0001 	li	t3,1
    11c8:	afab0018 	sw	t3,24(sp)
    11cc:	afaf0024 	sw	t7,36(sp)
    11d0:	afad0020 	sw	t5,32(sp)
    11d4:	30e707ff 	andi	a3,a3,0x7ff
    11d8:	afae0028 	sw	t6,40(sp)
    11dc:	afa0001c 	sw	zero,28(sp)
    11e0:	afaa0014 	sw	t2,20(sp)
    11e4:	afb90010 	sw	t9,16(sp)
    11e8:	00002825 	move	a1,zero
    11ec:	00003025 	move	a2,zero
    11f0:	0c000000 	jal	0 <func_800994A0>
    11f4:	afa20064 	sw	v0,100(sp)
    11f8:	8fa30064 	lw	v1,100(sp)
    11fc:	3c0adb06 	lui	t2,0xdb06
    1200:	354a0034 	ori	t2,t2,0x34
    1204:	ac620004 	sw	v0,4(v1)
    1208:	8e0202c0 	lw	v0,704(s0)
    120c:	240b0020 	li	t3,32
    1210:	24180040 	li	t8,64
    1214:	24590008 	addiu	t9,v0,8
    1218:	ae1902c0 	sw	t9,704(s0)
    121c:	ac4a0000 	sw	t2,0(v0)
    1220:	8e240000 	lw	a0,0(s1)
    1224:	8fad0048 	lw	t5,72(sp)
    1228:	240c0001 	li	t4,1
    122c:	240f0020 	li	t7,32
    1230:	240e0020 	li	t6,32
    1234:	afae0028 	sw	t6,40(sp)
    1238:	afaf0024 	sw	t7,36(sp)
    123c:	afac0018 	sw	t4,24(sp)
    1240:	afa0001c 	sw	zero,28(sp)
    1244:	afb80014 	sw	t8,20(sp)
    1248:	afab0010 	sw	t3,16(sp)
    124c:	00002825 	move	a1,zero
    1250:	00003025 	move	a2,zero
    1254:	00003825 	move	a3,zero
    1258:	afa20060 	sw	v0,96(sp)
    125c:	0c000000 	jal	0 <func_800994A0>
    1260:	afad0020 	sw	t5,32(sp)
    1264:	8fa30060 	lw	v1,96(sp)
    1268:	3c04e700 	lui	a0,0xe700
    126c:	3c068080 	lui	a2,0x8080
    1270:	ac620004 	sw	v0,4(v1)
    1274:	8e0202d0 	lw	v0,720(s0)
    1278:	34c68080 	ori	a2,a2,0x8080
    127c:	3c05fb00 	lui	a1,0xfb00
    1280:	24590008 	addiu	t9,v0,8
    1284:	ae1902d0 	sw	t9,720(s0)
    1288:	ac400004 	sw	zero,4(v0)
    128c:	ac440000 	sw	a0,0(v0)
    1290:	8e0202d0 	lw	v0,720(s0)
    1294:	2407145c 	li	a3,5212
    1298:	244a0008 	addiu	t2,v0,8
    129c:	ae0a02d0 	sw	t2,720(s0)
    12a0:	ac460004 	sw	a2,4(v0)
    12a4:	ac450000 	sw	a1,0(v0)
    12a8:	8e0202c0 	lw	v0,704(s0)
    12ac:	244b0008 	addiu	t3,v0,8
    12b0:	ae0b02c0 	sw	t3,704(s0)
    12b4:	ac400004 	sw	zero,4(v0)
    12b8:	ac440000 	sw	a0,0(v0)
    12bc:	8e0202c0 	lw	v0,704(s0)
    12c0:	27a40078 	addiu	a0,sp,120
    12c4:	24580008 	addiu	t8,v0,8
    12c8:	ae1802c0 	sw	t8,704(s0)
    12cc:	ac460004 	sw	a2,4(v0)
    12d0:	3c060000 	lui	a2,0x0
    12d4:	ac450000 	sw	a1,0(v0)
    12d8:	8e250000 	lw	a1,0(s1)
    12dc:	0c000000 	jal	0 <func_800994A0>
    12e0:	24c600dc 	addiu	a2,a2,220
    12e4:	8fbf003c 	lw	ra,60(sp)
    12e8:	8fb00034 	lw	s0,52(sp)
    12ec:	8fb10038 	lw	s1,56(sp)
    12f0:	03e00008 	jr	ra
    12f4:	27bd0090 	addiu	sp,sp,144

000012f8 <func_8009A798>:
    12f8:	27bdff78 	addiu	sp,sp,-136
    12fc:	afbf003c 	sw	ra,60(sp)
    1300:	afb00038 	sw	s0,56(sp)
    1304:	afa40088 	sw	a0,136(sp)
    1308:	8c850000 	lw	a1,0(a0)
    130c:	3c060000 	lui	a2,0x0
    1310:	24c600f0 	addiu	a2,a2,240
    1314:	27a40070 	addiu	a0,sp,112
    1318:	2407146a 	li	a3,5226
    131c:	0c000000 	jal	0 <func_800994A0>
    1320:	00a08025 	move	s0,a1
    1324:	8fa80088 	lw	t0,136(sp)
    1328:	8e0202d0 	lw	v0,720(s0)
    132c:	3c0a0001 	lui	t2,0x1
    1330:	01485021 	addu	t2,t2,t0
    1334:	8d4a1de4 	lw	t2,7652(t2)
    1338:	3c18db06 	lui	t8,0xdb06
    133c:	244f0008 	addiu	t7,v0,8
    1340:	ae0f02d0 	sw	t7,720(s0)
    1344:	37180020 	ori	t8,t8,0x20
    1348:	ac580000 	sw	t8,0(v0)
    134c:	8d040000 	lw	a0,0(t0)
    1350:	24190040 	li	t9,64
    1354:	000a3040 	sll	a2,t2,0x1
    1358:	30c600ff 	andi	a2,a2,0xff
    135c:	afb90010 	sw	t9,16(sp)
    1360:	00002825 	move	a1,zero
    1364:	24070040 	li	a3,64
    1368:	afa2006c 	sw	v0,108(sp)
    136c:	0c000000 	jal	0 <func_800994A0>
    1370:	afaa0084 	sw	t2,132(sp)
    1374:	8fa3006c 	lw	v1,108(sp)
    1378:	8fa90084 	lw	t1,132(sp)
    137c:	3c0ce700 	lui	t4,0xe700
    1380:	ac620004 	sw	v0,4(v1)
    1384:	8e0202c0 	lw	v0,704(s0)
    1388:	3c0f8080 	lui	t7,0x8080
    138c:	35ef8080 	ori	t7,t7,0x8080
    1390:	244b0008 	addiu	t3,v0,8
    1394:	ae0b02c0 	sw	t3,704(s0)
    1398:	ac4c0000 	sw	t4,0(v0)
    139c:	ac400004 	sw	zero,4(v0)
    13a0:	8e0202c0 	lw	v0,704(s0)
    13a4:	3c0efb00 	lui	t6,0xfb00
    13a8:	3c19db06 	lui	t9,0xdb06
    13ac:	244d0008 	addiu	t5,v0,8
    13b0:	ae0d02c0 	sw	t5,704(s0)
    13b4:	ac4e0000 	sw	t6,0(v0)
    13b8:	ac4f0004 	sw	t7,4(v0)
    13bc:	8e0202c0 	lw	v0,704(s0)
    13c0:	37390028 	ori	t9,t9,0x28
    13c4:	240f0001 	li	t7,1
    13c8:	24580008 	addiu	t8,v0,8
    13cc:	ae1802c0 	sw	t8,704(s0)
    13d0:	ac590000 	sw	t9,0(v0)
    13d4:	8fab0088 	lw	t3,136(sp)
    13d8:	24190020 	li	t9,32
    13dc:	24180020 	li	t8,32
    13e0:	8d640000 	lw	a0,0(t3)
    13e4:	240e0020 	li	t6,32
    13e8:	240d0020 	li	t5,32
    13ec:	240c007f 	li	t4,127
    13f0:	3123007f 	andi	v1,t1,0x7f
    13f4:	3127007f 	andi	a3,t1,0x7f
    13f8:	afa70020 	sw	a3,32(sp)
    13fc:	afa70044 	sw	a3,68(sp)
    1400:	01833023 	subu	a2,t4,v1
    1404:	afa3001c 	sw	v1,28(sp)
    1408:	afad0010 	sw	t5,16(sp)
    140c:	afae0014 	sw	t6,20(sp)
    1410:	afb90028 	sw	t9,40(sp)
    1414:	afb80024 	sw	t8,36(sp)
    1418:	afaf0018 	sw	t7,24(sp)
    141c:	00002825 	move	a1,zero
    1420:	afa90048 	sw	t1,72(sp)
    1424:	0c000000 	jal	0 <func_800994A0>
    1428:	afa20060 	sw	v0,96(sp)
    142c:	8fa80060 	lw	t0,96(sp)
    1430:	8fa90048 	lw	t1,72(sp)
    1434:	3c0cdb06 	lui	t4,0xdb06
    1438:	ad020004 	sw	v0,4(t0)
    143c:	8e0202d0 	lw	v0,720(s0)
    1440:	358c0024 	ori	t4,t4,0x24
    1444:	240f007f 	li	t7,127
    1448:	244b0008 	addiu	t3,v0,8
    144c:	ae0b02d0 	sw	t3,720(s0)
    1450:	ac4c0000 	sw	t4,0(v0)
    1454:	8fad0088 	lw	t5,136(sp)
    1458:	8fae0044 	lw	t6,68(sp)
    145c:	240c0020 	li	t4,32
    1460:	8da40000 	lw	a0,0(t5)
    1464:	240d0080 	li	t5,128
    1468:	240b0001 	li	t3,1
    146c:	24180020 	li	t8,32
    1470:	24190040 	li	t9,64
    1474:	afb90014 	sw	t9,20(sp)
    1478:	afb80010 	sw	t8,16(sp)
    147c:	afab0018 	sw	t3,24(sp)
    1480:	afad0028 	sw	t5,40(sp)
    1484:	afac0024 	sw	t4,36(sp)
    1488:	afa00020 	sw	zero,32(sp)
    148c:	afa0001c 	sw	zero,28(sp)
    1490:	00002825 	move	a1,zero
    1494:	312700ff 	andi	a3,t1,0xff
    1498:	afa2005c 	sw	v0,92(sp)
    149c:	0c000000 	jal	0 <func_800994A0>
    14a0:	01ee3023 	subu	a2,t7,t6
    14a4:	8fa3005c 	lw	v1,92(sp)
    14a8:	3c04e700 	lui	a0,0xe700
    14ac:	3c068080 	lui	a2,0x8080
    14b0:	ac620004 	sw	v0,4(v1)
    14b4:	8e0202c0 	lw	v0,704(s0)
    14b8:	34c68080 	ori	a2,a2,0x8080
    14bc:	3c05fb00 	lui	a1,0xfb00
    14c0:	244f0008 	addiu	t7,v0,8
    14c4:	ae0f02c0 	sw	t7,704(s0)
    14c8:	ac400004 	sw	zero,4(v0)
    14cc:	ac440000 	sw	a0,0(v0)
    14d0:	8e0202c0 	lw	v0,704(s0)
    14d4:	24071490 	li	a3,5264
    14d8:	244e0008 	addiu	t6,v0,8
    14dc:	ae0e02c0 	sw	t6,704(s0)
    14e0:	ac460004 	sw	a2,4(v0)
    14e4:	ac450000 	sw	a1,0(v0)
    14e8:	8e0202d0 	lw	v0,720(s0)
    14ec:	24580008 	addiu	t8,v0,8
    14f0:	ae1802d0 	sw	t8,720(s0)
    14f4:	ac400004 	sw	zero,4(v0)
    14f8:	ac440000 	sw	a0,0(v0)
    14fc:	8e0202d0 	lw	v0,720(s0)
    1500:	27a40070 	addiu	a0,sp,112
    1504:	24590008 	addiu	t9,v0,8
    1508:	ae1902d0 	sw	t9,720(s0)
    150c:	ac460004 	sw	a2,4(v0)
    1510:	ac450000 	sw	a1,0(v0)
    1514:	8fab0088 	lw	t3,136(sp)
    1518:	3c060000 	lui	a2,0x0
    151c:	24c60104 	addiu	a2,a2,260
    1520:	0c000000 	jal	0 <func_800994A0>
    1524:	8d650000 	lw	a1,0(t3)
    1528:	8fbf003c 	lw	ra,60(sp)
    152c:	8fb00038 	lw	s0,56(sp)
    1530:	27bd0088 	addiu	sp,sp,136
    1534:	03e00008 	jr	ra
    1538:	00000000 	nop

0000153c <func_8009A9DC>:
    153c:	27bdff80 	addiu	sp,sp,-128
    1540:	afbf003c 	sw	ra,60(sp)
    1544:	afb10038 	sw	s1,56(sp)
    1548:	afb00034 	sw	s0,52(sp)
    154c:	8c850000 	lw	a1,0(a0)
    1550:	00808825 	move	s1,a0
    1554:	3c060000 	lui	a2,0x0
    1558:	24c60118 	addiu	a2,a2,280
    155c:	27a40068 	addiu	a0,sp,104
    1560:	2407149e 	li	a3,5278
    1564:	0c000000 	jal	0 <func_800994A0>
    1568:	00a08025 	move	s0,a1
    156c:	8e0202d0 	lw	v0,720(s0)
    1570:	3c080001 	lui	t0,0x1
    1574:	01114021 	addu	t0,t0,s1
    1578:	8d081de4 	lw	t0,7652(t0)
    157c:	244e0008 	addiu	t6,v0,8
    1580:	ae0e02d0 	sw	t6,720(s0)
    1584:	3c0fdb06 	lui	t7,0xdb06
    1588:	35ef0020 	ori	t7,t7,0x20
    158c:	ac4f0000 	sw	t7,0(v0)
    1590:	8e240000 	lw	a0,0(s1)
    1594:	00085080 	sll	t2,t0,0x2
    1598:	2418007f 	li	t8,127
    159c:	01485023 	subu	t2,t2,t0
    15a0:	3103007f 	andi	v1,t0,0x7f
    15a4:	03033023 	subu	a2,t8,v1
    15a8:	314700ff 	andi	a3,t2,0xff
    15ac:	240e0040 	li	t6,64
    15b0:	24190020 	li	t9,32
    15b4:	240b0040 	li	t3,64
    15b8:	240c0001 	li	t4,1
    15bc:	240d0020 	li	t5,32
    15c0:	afad0024 	sw	t5,36(sp)
    15c4:	afac0018 	sw	t4,24(sp)
    15c8:	afab0014 	sw	t3,20(sp)
    15cc:	afb90010 	sw	t9,16(sp)
    15d0:	afae0028 	sw	t6,40(sp)
    15d4:	afa70020 	sw	a3,32(sp)
    15d8:	afa60048 	sw	a2,72(sp)
    15dc:	afa3001c 	sw	v1,28(sp)
    15e0:	afa3004c 	sw	v1,76(sp)
    15e4:	afaa0044 	sw	t2,68(sp)
    15e8:	00002825 	move	a1,zero
    15ec:	0c000000 	jal	0 <func_800994A0>
    15f0:	afa20064 	sw	v0,100(sp)
    15f4:	8fa90064 	lw	t1,100(sp)
    15f8:	8fa3004c 	lw	v1,76(sp)
    15fc:	8faa0044 	lw	t2,68(sp)
    1600:	8fa60048 	lw	a2,72(sp)
    1604:	ad220004 	sw	v0,4(t1)
    1608:	8e0202d0 	lw	v0,720(s0)
    160c:	3c18db06 	lui	t8,0xdb06
    1610:	37180024 	ori	t8,t8,0x24
    1614:	244f0008 	addiu	t7,v0,8
    1618:	ae0f02d0 	sw	t7,720(s0)
    161c:	ac580000 	sw	t8,0(v0)
    1620:	8e240000 	lw	a0,0(s1)
    1624:	24190020 	li	t9,32
    1628:	240b0020 	li	t3,32
    162c:	240c0001 	li	t4,1
    1630:	240d0020 	li	t5,32
    1634:	240e0020 	li	t6,32
    1638:	3147007f 	andi	a3,t2,0x7f
    163c:	afa70020 	sw	a3,32(sp)
    1640:	afae0028 	sw	t6,40(sp)
    1644:	afad0024 	sw	t5,36(sp)
    1648:	afac0018 	sw	t4,24(sp)
    164c:	afab0014 	sw	t3,20(sp)
    1650:	afb90010 	sw	t9,16(sp)
    1654:	00002825 	move	a1,zero
    1658:	afa3001c 	sw	v1,28(sp)
    165c:	0c000000 	jal	0 <func_800994A0>
    1660:	afa20060 	sw	v0,96(sp)
    1664:	8fa80060 	lw	t0,96(sp)
    1668:	3c04e700 	lui	a0,0xe700
    166c:	3c068080 	lui	a2,0x8080
    1670:	ad020004 	sw	v0,4(t0)
    1674:	8e0302c0 	lw	v1,704(s0)
    1678:	34c68080 	ori	a2,a2,0x8080
    167c:	3c05fb00 	lui	a1,0xfb00
    1680:	246f0008 	addiu	t7,v1,8
    1684:	ae0f02c0 	sw	t7,704(s0)
    1688:	ac600004 	sw	zero,4(v1)
    168c:	ac640000 	sw	a0,0(v1)
    1690:	8e0302c0 	lw	v1,704(s0)
    1694:	240714b5 	li	a3,5301
    1698:	24780008 	addiu	t8,v1,8
    169c:	ae1802c0 	sw	t8,704(s0)
    16a0:	ac660004 	sw	a2,4(v1)
    16a4:	ac650000 	sw	a1,0(v1)
    16a8:	8e0202d0 	lw	v0,720(s0)
    16ac:	24590008 	addiu	t9,v0,8
    16b0:	ae1902d0 	sw	t9,720(s0)
    16b4:	ac400004 	sw	zero,4(v0)
    16b8:	ac440000 	sw	a0,0(v0)
    16bc:	8e0202d0 	lw	v0,720(s0)
    16c0:	27a40068 	addiu	a0,sp,104
    16c4:	244b0008 	addiu	t3,v0,8
    16c8:	ae0b02d0 	sw	t3,720(s0)
    16cc:	ac460004 	sw	a2,4(v0)
    16d0:	3c060000 	lui	a2,0x0
    16d4:	ac450000 	sw	a1,0(v0)
    16d8:	8e250000 	lw	a1,0(s1)
    16dc:	0c000000 	jal	0 <func_800994A0>
    16e0:	24c6012c 	addiu	a2,a2,300
    16e4:	8fbf003c 	lw	ra,60(sp)
    16e8:	8fb00034 	lw	s0,52(sp)
    16ec:	8fb10038 	lw	s1,56(sp)
    16f0:	03e00008 	jr	ra
    16f4:	27bd0080 	addiu	sp,sp,128

000016f8 <func_8009AB98>:
    16f8:	27bdffb0 	addiu	sp,sp,-80
    16fc:	afbf001c 	sw	ra,28(sp)
    1700:	afa40050 	sw	a0,80(sp)
    1704:	8c850000 	lw	a1,0(a0)
    1708:	3c060000 	lui	a2,0x0
    170c:	24c60140 	addiu	a2,a2,320
    1710:	27a40038 	addiu	a0,sp,56
    1714:	240714c5 	li	a3,5317
    1718:	0c000000 	jal	0 <func_800994A0>
    171c:	afa50048 	sw	a1,72(sp)
    1720:	8fa80048 	lw	t0,72(sp)
    1724:	8faa0050 	lw	t2,80(sp)
    1728:	3c090001 	lui	t1,0x1
    172c:	8d0202d0 	lw	v0,720(t0)
    1730:	012a4821 	addu	t1,t1,t2
    1734:	8d291de4 	lw	t1,7652(t1)
    1738:	3c18db06 	lui	t8,0xdb06
    173c:	244f0008 	addiu	t7,v0,8
    1740:	37180020 	ori	t8,t8,0x20
    1744:	ad0f02d0 	sw	t7,720(t0)
    1748:	ac580000 	sw	t8,0(v0)
    174c:	8d440000 	lw	a0,0(t2)
    1750:	24190010 	li	t9,16
    1754:	afb90010 	sw	t9,16(sp)
    1758:	00002825 	move	a1,zero
    175c:	24070100 	li	a3,256
    1760:	afa80048 	sw	t0,72(sp)
    1764:	afa20034 	sw	v0,52(sp)
    1768:	0c000000 	jal	0 <func_800994A0>
    176c:	3126003f 	andi	a2,t1,0x3f
    1770:	8fa30034 	lw	v1,52(sp)
    1774:	8fa80048 	lw	t0,72(sp)
    1778:	3c04e700 	lui	a0,0xe700
    177c:	ac620004 	sw	v0,4(v1)
    1780:	8d0202d0 	lw	v0,720(t0)
    1784:	3c068080 	lui	a2,0x8080
    1788:	34c68080 	ori	a2,a2,0x8080
    178c:	244b0008 	addiu	t3,v0,8
    1790:	ad0b02d0 	sw	t3,720(t0)
    1794:	ac400004 	sw	zero,4(v0)
    1798:	ac440000 	sw	a0,0(v0)
    179c:	8d0202d0 	lw	v0,720(t0)
    17a0:	3c05fb00 	lui	a1,0xfb00
    17a4:	240714d2 	li	a3,5330
    17a8:	244c0008 	addiu	t4,v0,8
    17ac:	ad0c02d0 	sw	t4,720(t0)
    17b0:	ac460004 	sw	a2,4(v0)
    17b4:	ac450000 	sw	a1,0(v0)
    17b8:	8d0302c0 	lw	v1,704(t0)
    17bc:	246d0008 	addiu	t5,v1,8
    17c0:	ad0d02c0 	sw	t5,704(t0)
    17c4:	ac600004 	sw	zero,4(v1)
    17c8:	ac640000 	sw	a0,0(v1)
    17cc:	8d0302c0 	lw	v1,704(t0)
    17d0:	27a40038 	addiu	a0,sp,56
    17d4:	246e0008 	addiu	t6,v1,8
    17d8:	ad0e02c0 	sw	t6,704(t0)
    17dc:	ac660004 	sw	a2,4(v1)
    17e0:	ac650000 	sw	a1,0(v1)
    17e4:	8faf0050 	lw	t7,80(sp)
    17e8:	3c060000 	lui	a2,0x0
    17ec:	24c60154 	addiu	a2,a2,340
    17f0:	0c000000 	jal	0 <func_800994A0>
    17f4:	8de50000 	lw	a1,0(t7)
    17f8:	8fbf001c 	lw	ra,28(sp)
    17fc:	27bd0050 	addiu	sp,sp,80
    1800:	03e00008 	jr	ra
    1804:	00000000 	nop

00001808 <func_8009ACA8>:
    1808:	27bdff88 	addiu	sp,sp,-120
    180c:	afbf003c 	sw	ra,60(sp)
    1810:	afb10038 	sw	s1,56(sp)
    1814:	afb00034 	sw	s0,52(sp)
    1818:	8c850000 	lw	a1,0(a0)
    181c:	00808825 	move	s1,a0
    1820:	3c060000 	lui	a2,0x0
    1824:	24c60168 	addiu	a2,a2,360
    1828:	27a40060 	addiu	a0,sp,96
    182c:	240714e2 	li	a3,5346
    1830:	0c000000 	jal	0 <func_800994A0>
    1834:	00a08025 	move	s0,a1
    1838:	3c080001 	lui	t0,0x1
    183c:	8e0202d0 	lw	v0,720(s0)
    1840:	01114021 	addu	t0,t0,s1
    1844:	8d081de4 	lw	t0,7652(t0)
    1848:	3c0fdb06 	lui	t7,0xdb06
    184c:	244e0008 	addiu	t6,v0,8
    1850:	ae0e02d0 	sw	t6,720(s0)
    1854:	35ef0020 	ori	t7,t7,0x20
    1858:	ac4f0000 	sw	t7,0(v0)
    185c:	8e240000 	lw	a0,0(s1)
    1860:	00083880 	sll	a3,t0,0x2
    1864:	00e83823 	subu	a3,a3,t0
    1868:	30e7007f 	andi	a3,a3,0x7f
    186c:	2418007f 	li	t8,127
    1870:	24190020 	li	t9,32
    1874:	240a0020 	li	t2,32
    1878:	240b0001 	li	t3,1
    187c:	240c0020 	li	t4,32
    1880:	240d0020 	li	t5,32
    1884:	3103007f 	andi	v1,t0,0x7f
    1888:	03033023 	subu	a2,t8,v1
    188c:	afa3001c 	sw	v1,28(sp)
    1890:	afad0028 	sw	t5,40(sp)
    1894:	afac0024 	sw	t4,36(sp)
    1898:	afab0018 	sw	t3,24(sp)
    189c:	afaa0014 	sw	t2,20(sp)
    18a0:	afb90010 	sw	t9,16(sp)
    18a4:	afa70020 	sw	a3,32(sp)
    18a8:	00002825 	move	a1,zero
    18ac:	afa2005c 	sw	v0,92(sp)
    18b0:	0c000000 	jal	0 <func_800994A0>
    18b4:	afa80074 	sw	t0,116(sp)
    18b8:	8fa9005c 	lw	t1,92(sp)
    18bc:	8fa80074 	lw	t0,116(sp)
    18c0:	3c0fdb06 	lui	t7,0xdb06
    18c4:	ad220004 	sw	v0,4(t1)
    18c8:	8e0202d0 	lw	v0,720(s0)
    18cc:	35ef0024 	ori	t7,t7,0x24
    18d0:	24180010 	li	t8,16
    18d4:	244e0008 	addiu	t6,v0,8
    18d8:	ae0e02d0 	sw	t6,720(s0)
    18dc:	ac4f0000 	sw	t7,0(v0)
    18e0:	8e240000 	lw	a0,0(s1)
    18e4:	afb80010 	sw	t8,16(sp)
    18e8:	00002825 	move	a1,zero
    18ec:	24070100 	li	a3,256
    18f0:	3106003f 	andi	a2,t0,0x3f
    18f4:	0c000000 	jal	0 <func_800994A0>
    18f8:	afa20058 	sw	v0,88(sp)
    18fc:	8fa30058 	lw	v1,88(sp)
    1900:	3c04e700 	lui	a0,0xe700
    1904:	3c068080 	lui	a2,0x8080
    1908:	ac620004 	sw	v0,4(v1)
    190c:	8e0302c0 	lw	v1,704(s0)
    1910:	34c68080 	ori	a2,a2,0x8080
    1914:	3c05fb00 	lui	a1,0xfb00
    1918:	24790008 	addiu	t9,v1,8
    191c:	ae1902c0 	sw	t9,704(s0)
    1920:	ac600004 	sw	zero,4(v1)
    1924:	ac640000 	sw	a0,0(v1)
    1928:	8e0302c0 	lw	v1,704(s0)
    192c:	240714f7 	li	a3,5367
    1930:	246a0008 	addiu	t2,v1,8
    1934:	ae0a02c0 	sw	t2,704(s0)
    1938:	ac660004 	sw	a2,4(v1)
    193c:	ac650000 	sw	a1,0(v1)
    1940:	8e0202d0 	lw	v0,720(s0)
    1944:	244b0008 	addiu	t3,v0,8
    1948:	ae0b02d0 	sw	t3,720(s0)
    194c:	ac400004 	sw	zero,4(v0)
    1950:	ac440000 	sw	a0,0(v0)
    1954:	8e0202d0 	lw	v0,720(s0)
    1958:	27a40060 	addiu	a0,sp,96
    195c:	244c0008 	addiu	t4,v0,8
    1960:	ae0c02d0 	sw	t4,720(s0)
    1964:	ac460004 	sw	a2,4(v0)
    1968:	3c060000 	lui	a2,0x0
    196c:	ac450000 	sw	a1,0(v0)
    1970:	8e250000 	lw	a1,0(s1)
    1974:	0c000000 	jal	0 <func_800994A0>
    1978:	24c6017c 	addiu	a2,a2,380
    197c:	8fbf003c 	lw	ra,60(sp)
    1980:	8fb00034 	lw	s0,52(sp)
    1984:	8fb10038 	lw	s1,56(sp)
    1988:	03e00008 	jr	ra
    198c:	27bd0078 	addiu	sp,sp,120

00001990 <func_8009AE30>:
    1990:	27bdff88 	addiu	sp,sp,-120
    1994:	afbf003c 	sw	ra,60(sp)
    1998:	afb10038 	sw	s1,56(sp)
    199c:	afb00034 	sw	s0,52(sp)
    19a0:	8c850000 	lw	a1,0(a0)
    19a4:	00808825 	move	s1,a0
    19a8:	3c060000 	lui	a2,0x0
    19ac:	24c60190 	addiu	a2,a2,400
    19b0:	27a40060 	addiu	a0,sp,96
    19b4:	24071508 	li	a3,5384
    19b8:	0c000000 	jal	0 <func_800994A0>
    19bc:	00a08025 	move	s0,a1
    19c0:	862e00a4 	lh	t6,164(s1)
    19c4:	3c030001 	lui	v1,0x1
    19c8:	00711821 	addu	v1,v1,s1
    19cc:	24010018 	li	at,24
    19d0:	15c1001d 	bne	t6,at,1a48 <func_8009AE30+0xb8>
    19d4:	8c631de4 	lw	v1,7652(v1)
    19d8:	8e0202c0 	lw	v0,704(s0)
    19dc:	3c18db06 	lui	t8,0xdb06
    19e0:	37180020 	ori	t8,t8,0x20
    19e4:	244f0008 	addiu	t7,v0,8
    19e8:	ae0f02c0 	sw	t7,704(s0)
    19ec:	ac580000 	sw	t8,0(v0)
    19f0:	8e240000 	lw	a0,0(s1)
    19f4:	00033040 	sll	a2,v1,0x1
    19f8:	30c6007f 	andi	a2,a2,0x7f
    19fc:	24190020 	li	t9,32
    1a00:	24090020 	li	t1,32
    1a04:	240a0001 	li	t2,1
    1a08:	240b0020 	li	t3,32
    1a0c:	240c0020 	li	t4,32
    1a10:	afac0028 	sw	t4,40(sp)
    1a14:	afab0024 	sw	t3,36(sp)
    1a18:	afaa0018 	sw	t2,24(sp)
    1a1c:	afa90014 	sw	t1,20(sp)
    1a20:	afb90010 	sw	t9,16(sp)
    1a24:	afa6001c 	sw	a2,28(sp)
    1a28:	afa00020 	sw	zero,32(sp)
    1a2c:	00002825 	move	a1,zero
    1a30:	00003825 	move	a3,zero
    1a34:	0c000000 	jal	0 <func_800994A0>
    1a38:	afa2005c 	sw	v0,92(sp)
    1a3c:	8fa8005c 	lw	t0,92(sp)
    1a40:	1000001c 	b	1ab4 <func_8009AE30+0x124>
    1a44:	ad020004 	sw	v0,4(t0)
    1a48:	8e0202d0 	lw	v0,720(s0)
    1a4c:	3c0edb06 	lui	t6,0xdb06
    1a50:	35ce0020 	ori	t6,t6,0x20
    1a54:	244d0008 	addiu	t5,v0,8
    1a58:	ae0d02d0 	sw	t5,720(s0)
    1a5c:	ac4e0000 	sw	t6,0(v0)
    1a60:	8e240000 	lw	a0,0(s1)
    1a64:	00033040 	sll	a2,v1,0x1
    1a68:	30c6007f 	andi	a2,a2,0x7f
    1a6c:	240f0020 	li	t7,32
    1a70:	24180020 	li	t8,32
    1a74:	24190001 	li	t9,1
    1a78:	24090020 	li	t1,32
    1a7c:	240a0020 	li	t2,32
    1a80:	afaa0028 	sw	t2,40(sp)
    1a84:	afa90024 	sw	t1,36(sp)
    1a88:	afb90018 	sw	t9,24(sp)
    1a8c:	afb80014 	sw	t8,20(sp)
    1a90:	afaf0010 	sw	t7,16(sp)
    1a94:	afa6001c 	sw	a2,28(sp)
    1a98:	afa00020 	sw	zero,32(sp)
    1a9c:	00002825 	move	a1,zero
    1aa0:	00003825 	move	a3,zero
    1aa4:	0c000000 	jal	0 <func_800994A0>
    1aa8:	afa20058 	sw	v0,88(sp)
    1aac:	8fa80058 	lw	t0,88(sp)
    1ab0:	ad020004 	sw	v0,4(t0)
    1ab4:	8e0202c0 	lw	v0,704(s0)
    1ab8:	3c04e700 	lui	a0,0xe700
    1abc:	3c068080 	lui	a2,0x8080
    1ac0:	244b0008 	addiu	t3,v0,8
    1ac4:	ae0b02c0 	sw	t3,704(s0)
    1ac8:	ac400004 	sw	zero,4(v0)
    1acc:	ac440000 	sw	a0,0(v0)
    1ad0:	8e0202c0 	lw	v0,704(s0)
    1ad4:	34c68080 	ori	a2,a2,0x8080
    1ad8:	3c05fb00 	lui	a1,0xfb00
    1adc:	244c0008 	addiu	t4,v0,8
    1ae0:	ae0c02c0 	sw	t4,704(s0)
    1ae4:	ac460004 	sw	a2,4(v0)
    1ae8:	ac450000 	sw	a1,0(v0)
    1aec:	8e0202d0 	lw	v0,720(s0)
    1af0:	24071528 	li	a3,5416
    1af4:	244d0008 	addiu	t5,v0,8
    1af8:	ae0d02d0 	sw	t5,720(s0)
    1afc:	ac400004 	sw	zero,4(v0)
    1b00:	ac440000 	sw	a0,0(v0)
    1b04:	8e0202d0 	lw	v0,720(s0)
    1b08:	27a40060 	addiu	a0,sp,96
    1b0c:	244e0008 	addiu	t6,v0,8
    1b10:	ae0e02d0 	sw	t6,720(s0)
    1b14:	ac460004 	sw	a2,4(v0)
    1b18:	3c060000 	lui	a2,0x0
    1b1c:	ac450000 	sw	a1,0(v0)
    1b20:	8e250000 	lw	a1,0(s1)
    1b24:	0c000000 	jal	0 <func_800994A0>
    1b28:	24c601a4 	addiu	a2,a2,420
    1b2c:	8fbf003c 	lw	ra,60(sp)
    1b30:	8fb00034 	lw	s0,52(sp)
    1b34:	8fb10038 	lw	s1,56(sp)
    1b38:	03e00008 	jr	ra
    1b3c:	27bd0078 	addiu	sp,sp,120

00001b40 <func_8009AFE0>:
    1b40:	27bdffb0 	addiu	sp,sp,-80
    1b44:	afbf001c 	sw	ra,28(sp)
    1b48:	afa40050 	sw	a0,80(sp)
    1b4c:	8c850000 	lw	a1,0(a0)
    1b50:	3c060000 	lui	a2,0x0
    1b54:	24c601b8 	addiu	a2,a2,440
    1b58:	27a40038 	addiu	a0,sp,56
    1b5c:	24071572 	li	a3,5490
    1b60:	0c000000 	jal	0 <func_800994A0>
    1b64:	afa50048 	sw	a1,72(sp)
    1b68:	8fa80048 	lw	t0,72(sp)
    1b6c:	8faa0050 	lw	t2,80(sp)
    1b70:	3c090001 	lui	t1,0x1
    1b74:	8d0202c0 	lw	v0,704(t0)
    1b78:	012a4821 	addu	t1,t1,t2
    1b7c:	8d291de4 	lw	t1,7652(t1)
    1b80:	3c18db06 	lui	t8,0xdb06
    1b84:	244f0008 	addiu	t7,v0,8
    1b88:	37180024 	ori	t8,t8,0x24
    1b8c:	ad0f02c0 	sw	t7,704(t0)
    1b90:	ac580000 	sw	t8,0(v0)
    1b94:	8d440000 	lw	a0,0(t2)
    1b98:	00093080 	sll	a2,t1,0x2
    1b9c:	24190020 	li	t9,32
    1ba0:	00c93023 	subu	a2,a2,t1
    1ba4:	30c6007f 	andi	a2,a2,0x7f
    1ba8:	afb90010 	sw	t9,16(sp)
    1bac:	00002825 	move	a1,zero
    1bb0:	24070020 	li	a3,32
    1bb4:	afa80048 	sw	t0,72(sp)
    1bb8:	0c000000 	jal	0 <func_800994A0>
    1bbc:	afa20034 	sw	v0,52(sp)
    1bc0:	8fa30034 	lw	v1,52(sp)
    1bc4:	8fa80048 	lw	t0,72(sp)
    1bc8:	3c0cdb06 	lui	t4,0xdb06
    1bcc:	ac620004 	sw	v0,4(v1)
    1bd0:	8d0302d0 	lw	v1,720(t0)
    1bd4:	358c0020 	ori	t4,t4,0x20
    1bd8:	3c0d0000 	lui	t5,0x0
    1bdc:	246b0008 	addiu	t3,v1,8
    1be0:	ad0b02d0 	sw	t3,720(t0)
    1be4:	ac6c0000 	sw	t4,0(v1)
    1be8:	8dad0010 	lw	t5,16(t5)
    1bec:	3c040000 	lui	a0,0x0
    1bf0:	3c0c0000 	lui	t4,0x0
    1bf4:	000d7080 	sll	t6,t5,0x2
    1bf8:	008e2021 	addu	a0,a0,t6
    1bfc:	8c840000 	lw	a0,0(a0)
    1c00:	3c0100ff 	lui	at,0xff
    1c04:	3421ffff 	ori	at,at,0xffff
    1c08:	0004c100 	sll	t8,a0,0x4
    1c0c:	0018cf02 	srl	t9,t8,0x1c
    1c10:	00195880 	sll	t3,t9,0x2
    1c14:	018b6021 	addu	t4,t4,t3
    1c18:	8d8c0000 	lw	t4,0(t4)
    1c1c:	00817824 	and	t7,a0,at
    1c20:	3c018000 	lui	at,0x8000
    1c24:	01ec6821 	addu	t5,t7,t4
    1c28:	01a17021 	addu	t6,t5,at
    1c2c:	ac6e0004 	sw	t6,4(v1)
    1c30:	8fb80050 	lw	t8,80(sp)
    1c34:	3c060000 	lui	a2,0x0
    1c38:	24c601cc 	addiu	a2,a2,460
    1c3c:	27a40038 	addiu	a0,sp,56
    1c40:	24071583 	li	a3,5507
    1c44:	0c000000 	jal	0 <func_800994A0>
    1c48:	8f050000 	lw	a1,0(t8)
    1c4c:	8fbf001c 	lw	ra,28(sp)
    1c50:	27bd0050 	addiu	sp,sp,80
    1c54:	03e00008 	jr	ra
    1c58:	00000000 	nop

00001c5c <func_8009B0FC>:
    1c5c:	27bdff48 	addiu	sp,sp,-184
    1c60:	afbf004c 	sw	ra,76(sp)
    1c64:	afb10048 	sw	s1,72(sp)
    1c68:	afb00044 	sw	s0,68(sp)
    1c6c:	8c850000 	lw	a1,0(a0)
    1c70:	00808825 	move	s1,a0
    1c74:	3c060000 	lui	a2,0x0
    1c78:	24c601e0 	addiu	a2,a2,480
    1c7c:	27a40098 	addiu	a0,sp,152
    1c80:	2407159f 	li	a3,5535
    1c84:	0c000000 	jal	0 <func_800994A0>
    1c88:	00a08025 	move	s0,a1
    1c8c:	3c010001 	lui	at,0x1
    1c90:	02211021 	addu	v0,s1,at
    1c94:	84431d32 	lh	v1,7474(v0)
    1c98:	3c08db06 	lui	t0,0xdb06
    1c9c:	35080020 	ori	t0,t0,0x20
    1ca0:	00037203 	sra	t6,v1,0x8
    1ca4:	31cf00ff 	andi	t7,t6,0xff
    1ca8:	307800ff 	andi	t8,v1,0xff
    1cac:	afaf00b0 	sw	t7,176(sp)
    1cb0:	afb800ac 	sw	t8,172(sp)
    1cb4:	8c491de4 	lw	t1,7652(v0)
    1cb8:	8e0202d0 	lw	v0,720(s0)
    1cbc:	3c0a0000 	lui	t2,0x0
    1cc0:	3c040000 	lui	a0,0x0
    1cc4:	24590008 	addiu	t9,v0,8
    1cc8:	ae1902d0 	sw	t9,720(s0)
    1ccc:	ac480000 	sw	t0,0(v0)
    1cd0:	8d4a0010 	lw	t2,16(t2)
    1cd4:	3c180000 	lui	t8,0x0
    1cd8:	3c0100ff 	lui	at,0xff
    1cdc:	000a5880 	sll	t3,t2,0x2
    1ce0:	008b2021 	addu	a0,a0,t3
    1ce4:	8c840000 	lw	a0,0(a0)
    1ce8:	3421ffff 	ori	at,at,0xffff
    1cec:	00002825 	move	a1,zero
    1cf0:	00046900 	sll	t5,a0,0x4
    1cf4:	000d7702 	srl	t6,t5,0x1c
    1cf8:	000e7880 	sll	t7,t6,0x2
    1cfc:	030fc021 	addu	t8,t8,t7
    1d00:	8f180000 	lw	t8,0(t8)
    1d04:	00816024 	and	t4,a0,at
    1d08:	3c018000 	lui	at,0x8000
    1d0c:	0198c821 	addu	t9,t4,t8
    1d10:	03215021 	addu	t2,t9,at
    1d14:	ac4a0004 	sw	t2,4(v0)
    1d18:	8fab00b0 	lw	t3,176(sp)
    1d1c:	24010001 	li	at,1
    1d20:	00003825 	move	a3,zero
    1d24:	1561001e 	bne	t3,at,1da0 <func_8009B0FC+0x144>
    1d28:	01203025 	move	a2,t1
    1d2c:	8e0202c0 	lw	v0,704(s0)
    1d30:	240e0020 	li	t6,32
    1d34:	240f0020 	li	t7,32
    1d38:	244d0008 	addiu	t5,v0,8
    1d3c:	ae0d02c0 	sw	t5,704(s0)
    1d40:	ac480000 	sw	t0,0(v0)
    1d44:	8e240000 	lw	a0,0(s1)
    1d48:	8faa00ac 	lw	t2,172(sp)
    1d4c:	240c0001 	li	t4,1
    1d50:	24180020 	li	t8,32
    1d54:	24190020 	li	t9,32
    1d58:	afb90028 	sw	t9,40(sp)
    1d5c:	afb80024 	sw	t8,36(sp)
    1d60:	afac0018 	sw	t4,24(sp)
    1d64:	afa900b4 	sw	t1,180(sp)
    1d68:	afa90058 	sw	t1,88(sp)
    1d6c:	afa00034 	sw	zero,52(sp)
    1d70:	afa00030 	sw	zero,48(sp)
    1d74:	afa0002c 	sw	zero,44(sp)
    1d78:	afa00020 	sw	zero,32(sp)
    1d7c:	afa0001c 	sw	zero,28(sp)
    1d80:	afaf0014 	sw	t7,20(sp)
    1d84:	afae0010 	sw	t6,16(sp)
    1d88:	afa20090 	sw	v0,144(sp)
    1d8c:	0c000000 	jal	0 <func_800994A0>
    1d90:	afaa0038 	sw	t2,56(sp)
    1d94:	8fa30090 	lw	v1,144(sp)
    1d98:	10000042 	b	1ea4 <func_8009B0FC+0x248>
    1d9c:	ac620004 	sw	v0,4(v1)
    1da0:	8fab00b0 	lw	t3,176(sp)
    1da4:	00002825 	move	a1,zero
    1da8:	01203025 	move	a2,t1
    1dac:	1d600021 	bgtz	t3,1e34 <func_8009B0FC+0x1d8>
    1db0:	00003825 	move	a3,zero
    1db4:	8e0202c0 	lw	v0,704(s0)
    1db8:	240e0020 	li	t6,32
    1dbc:	240f0020 	li	t7,32
    1dc0:	244d0008 	addiu	t5,v0,8
    1dc4:	ae0d02c0 	sw	t5,704(s0)
    1dc8:	ac480000 	sw	t0,0(v0)
    1dcc:	8e240000 	lw	a0,0(s1)
    1dd0:	240c0001 	li	t4,1
    1dd4:	24180020 	li	t8,32
    1dd8:	24190020 	li	t9,32
    1ddc:	240a00ff 	li	t2,255
    1de0:	afaa0038 	sw	t2,56(sp)
    1de4:	afb90028 	sw	t9,40(sp)
    1de8:	afb80024 	sw	t8,36(sp)
    1dec:	afac0018 	sw	t4,24(sp)
    1df0:	afa900b4 	sw	t1,180(sp)
    1df4:	afa90058 	sw	t1,88(sp)
    1df8:	afa00034 	sw	zero,52(sp)
    1dfc:	afa00030 	sw	zero,48(sp)
    1e00:	afa0002c 	sw	zero,44(sp)
    1e04:	afa00020 	sw	zero,32(sp)
    1e08:	afa0001c 	sw	zero,28(sp)
    1e0c:	afaf0014 	sw	t7,20(sp)
    1e10:	afae0010 	sw	t6,16(sp)
    1e14:	00002825 	move	a1,zero
    1e18:	01203025 	move	a2,t1
    1e1c:	00003825 	move	a3,zero
    1e20:	0c000000 	jal	0 <func_800994A0>
    1e24:	afa2008c 	sw	v0,140(sp)
    1e28:	8fa3008c 	lw	v1,140(sp)
    1e2c:	1000001d 	b	1ea4 <func_8009B0FC+0x248>
    1e30:	ac620004 	sw	v0,4(v1)
    1e34:	8e0202c0 	lw	v0,704(s0)
    1e38:	240d0020 	li	t5,32
    1e3c:	240e0020 	li	t6,32
    1e40:	244b0008 	addiu	t3,v0,8
    1e44:	ae0b02c0 	sw	t3,704(s0)
    1e48:	ac480000 	sw	t0,0(v0)
    1e4c:	8e240000 	lw	a0,0(s1)
    1e50:	240f0001 	li	t7,1
    1e54:	240c0020 	li	t4,32
    1e58:	24180020 	li	t8,32
    1e5c:	241900a0 	li	t9,160
    1e60:	afb90038 	sw	t9,56(sp)
    1e64:	afb80028 	sw	t8,40(sp)
    1e68:	afac0024 	sw	t4,36(sp)
    1e6c:	afaf0018 	sw	t7,24(sp)
    1e70:	afa900b4 	sw	t1,180(sp)
    1e74:	afa90058 	sw	t1,88(sp)
    1e78:	afa00034 	sw	zero,52(sp)
    1e7c:	afa00030 	sw	zero,48(sp)
    1e80:	afa0002c 	sw	zero,44(sp)
    1e84:	afa00020 	sw	zero,32(sp)
    1e88:	afa0001c 	sw	zero,28(sp)
    1e8c:	afae0014 	sw	t6,20(sp)
    1e90:	afad0010 	sw	t5,16(sp)
    1e94:	0c000000 	jal	0 <func_800994A0>
    1e98:	afa20088 	sw	v0,136(sp)
    1e9c:	8fa30088 	lw	v1,136(sp)
    1ea0:	ac620004 	sw	v0,4(v1)
    1ea4:	8faa00b0 	lw	t2,176(sp)
    1ea8:	24010002 	li	at,2
    1eac:	3c0ddb06 	lui	t5,0xdb06
    1eb0:	15410020 	bne	t2,at,1f34 <func_8009B0FC+0x2d8>
    1eb4:	8fab00b0 	lw	t3,176(sp)
    1eb8:	8e0202c0 	lw	v0,704(s0)
    1ebc:	35ad0024 	ori	t5,t5,0x24
    1ec0:	240e0020 	li	t6,32
    1ec4:	244b0008 	addiu	t3,v0,8
    1ec8:	ae0b02c0 	sw	t3,704(s0)
    1ecc:	ac4d0000 	sw	t5,0(v0)
    1ed0:	8e240000 	lw	a0,0(s1)
    1ed4:	8faa00ac 	lw	t2,172(sp)
    1ed8:	240f0020 	li	t7,32
    1edc:	240c0001 	li	t4,1
    1ee0:	24180020 	li	t8,32
    1ee4:	24190020 	li	t9,32
    1ee8:	afb90028 	sw	t9,40(sp)
    1eec:	afb80024 	sw	t8,36(sp)
    1ef0:	afac0018 	sw	t4,24(sp)
    1ef4:	afaf0014 	sw	t7,20(sp)
    1ef8:	afa00034 	sw	zero,52(sp)
    1efc:	afa00030 	sw	zero,48(sp)
    1f00:	afa0002c 	sw	zero,44(sp)
    1f04:	afa00020 	sw	zero,32(sp)
    1f08:	afa0001c 	sw	zero,28(sp)
    1f0c:	afae0010 	sw	t6,16(sp)
    1f10:	8fa60058 	lw	a2,88(sp)
    1f14:	00002825 	move	a1,zero
    1f18:	00003825 	move	a3,zero
    1f1c:	afa20084 	sw	v0,132(sp)
    1f20:	0c000000 	jal	0 <func_800994A0>
    1f24:	afaa0038 	sw	t2,56(sp)
    1f28:	8fa30084 	lw	v1,132(sp)
    1f2c:	10000042 	b	2038 <func_8009B0FC+0x3dc>
    1f30:	ac620004 	sw	v0,4(v1)
    1f34:	29610002 	slti	at,t3,2
    1f38:	10200021 	beqz	at,1fc0 <func_8009B0FC+0x364>
    1f3c:	3c0edb06 	lui	t6,0xdb06
    1f40:	8e0202c0 	lw	v0,704(s0)
    1f44:	3c0edb06 	lui	t6,0xdb06
    1f48:	35ce0024 	ori	t6,t6,0x24
    1f4c:	244d0008 	addiu	t5,v0,8
    1f50:	ae0d02c0 	sw	t5,704(s0)
    1f54:	ac4e0000 	sw	t6,0(v0)
    1f58:	8e240000 	lw	a0,0(s1)
    1f5c:	240f0020 	li	t7,32
    1f60:	240c0020 	li	t4,32
    1f64:	24180001 	li	t8,1
    1f68:	24190020 	li	t9,32
    1f6c:	240a0020 	li	t2,32
    1f70:	240b00ff 	li	t3,255
    1f74:	afab0038 	sw	t3,56(sp)
    1f78:	afaa0028 	sw	t2,40(sp)
    1f7c:	afb90024 	sw	t9,36(sp)
    1f80:	afb80018 	sw	t8,24(sp)
    1f84:	afac0014 	sw	t4,20(sp)
    1f88:	afaf0010 	sw	t7,16(sp)
    1f8c:	afa00034 	sw	zero,52(sp)
    1f90:	afa00030 	sw	zero,48(sp)
    1f94:	afa0002c 	sw	zero,44(sp)
    1f98:	afa00020 	sw	zero,32(sp)
    1f9c:	afa0001c 	sw	zero,28(sp)
    1fa0:	8fa60058 	lw	a2,88(sp)
    1fa4:	00002825 	move	a1,zero
    1fa8:	00003825 	move	a3,zero
    1fac:	0c000000 	jal	0 <func_800994A0>
    1fb0:	afa20080 	sw	v0,128(sp)
    1fb4:	8fa30080 	lw	v1,128(sp)
    1fb8:	1000001f 	b	2038 <func_8009B0FC+0x3dc>
    1fbc:	ac620004 	sw	v0,4(v1)
    1fc0:	8e0202c0 	lw	v0,704(s0)
    1fc4:	35ce0024 	ori	t6,t6,0x24
    1fc8:	240f0020 	li	t7,32
    1fcc:	244d0008 	addiu	t5,v0,8
    1fd0:	ae0d02c0 	sw	t5,704(s0)
    1fd4:	ac4e0000 	sw	t6,0(v0)
    1fd8:	8e240000 	lw	a0,0(s1)
    1fdc:	240c0020 	li	t4,32
    1fe0:	24180001 	li	t8,1
    1fe4:	24190020 	li	t9,32
    1fe8:	240a0020 	li	t2,32
    1fec:	240b00a0 	li	t3,160
    1ff0:	afab0038 	sw	t3,56(sp)
    1ff4:	afaa0028 	sw	t2,40(sp)
    1ff8:	afb90024 	sw	t9,36(sp)
    1ffc:	afb80018 	sw	t8,24(sp)
    2000:	afac0014 	sw	t4,20(sp)
    2004:	afa00034 	sw	zero,52(sp)
    2008:	afa00030 	sw	zero,48(sp)
    200c:	afa0002c 	sw	zero,44(sp)
    2010:	afa00020 	sw	zero,32(sp)
    2014:	afa0001c 	sw	zero,28(sp)
    2018:	afaf0010 	sw	t7,16(sp)
    201c:	8fa60058 	lw	a2,88(sp)
    2020:	00002825 	move	a1,zero
    2024:	00003825 	move	a3,zero
    2028:	0c000000 	jal	0 <func_800994A0>
    202c:	afa2007c 	sw	v0,124(sp)
    2030:	8fa3007c 	lw	v1,124(sp)
    2034:	ac620004 	sw	v0,4(v1)
    2038:	8fad00b0 	lw	t5,176(sp)
    203c:	3c0fdb06 	lui	t7,0xdb06
    2040:	35ef0028 	ori	t7,t7,0x28
    2044:	11a00040 	beqz	t5,2148 <func_8009B0FC+0x4ec>
    2048:	00002825 	move	a1,zero
    204c:	8e0202c0 	lw	v0,704(s0)
    2050:	240c0020 	li	t4,32
    2054:	24180020 	li	t8,32
    2058:	244e0008 	addiu	t6,v0,8
    205c:	ae0e02c0 	sw	t6,704(s0)
    2060:	ac4f0000 	sw	t7,0(v0)
    2064:	8e240000 	lw	a0,0(s1)
    2068:	24190001 	li	t9,1
    206c:	240a0020 	li	t2,32
    2070:	240b0020 	li	t3,32
    2074:	240d00a0 	li	t5,160
    2078:	afad0038 	sw	t5,56(sp)
    207c:	afab0028 	sw	t3,40(sp)
    2080:	afaa0024 	sw	t2,36(sp)
    2084:	afb90018 	sw	t9,24(sp)
    2088:	afa00034 	sw	zero,52(sp)
    208c:	afa00030 	sw	zero,48(sp)
    2090:	afa0002c 	sw	zero,44(sp)
    2094:	afa00020 	sw	zero,32(sp)
    2098:	afa0001c 	sw	zero,28(sp)
    209c:	afb80014 	sw	t8,20(sp)
    20a0:	afac0010 	sw	t4,16(sp)
    20a4:	8fa60058 	lw	a2,88(sp)
    20a8:	00003825 	move	a3,zero
    20ac:	0c000000 	jal	0 <func_800994A0>
    20b0:	afa20078 	sw	v0,120(sp)
    20b4:	8fa30078 	lw	v1,120(sp)
    20b8:	3c0fdb06 	lui	t7,0xdb06
    20bc:	35ef002c 	ori	t7,t7,0x2c
    20c0:	ac620004 	sw	v0,4(v1)
    20c4:	8e0202c0 	lw	v0,704(s0)
    20c8:	240c0020 	li	t4,32
    20cc:	24180020 	li	t8,32
    20d0:	244e0008 	addiu	t6,v0,8
    20d4:	ae0e02c0 	sw	t6,704(s0)
    20d8:	ac4f0000 	sw	t7,0(v0)
    20dc:	8e240000 	lw	a0,0(s1)
    20e0:	8fa600b4 	lw	a2,180(sp)
    20e4:	24190001 	li	t9,1
    20e8:	240a0020 	li	t2,32
    20ec:	00c00821 	move	at,a2
    20f0:	240b0020 	li	t3,32
    20f4:	240d00b4 	li	t5,180
    20f8:	00063080 	sll	a2,a2,0x2
    20fc:	00c13023 	subu	a2,a2,at
    2100:	afad0038 	sw	t5,56(sp)
    2104:	afab0028 	sw	t3,40(sp)
    2108:	afaa0024 	sw	t2,36(sp)
    210c:	afb90018 	sw	t9,24(sp)
    2110:	afa00034 	sw	zero,52(sp)
    2114:	afa00030 	sw	zero,48(sp)
    2118:	afa0002c 	sw	zero,44(sp)
    211c:	afa00020 	sw	zero,32(sp)
    2120:	afa0001c 	sw	zero,28(sp)
    2124:	afb80014 	sw	t8,20(sp)
    2128:	afac0010 	sw	t4,16(sp)
    212c:	00002825 	move	a1,zero
    2130:	00003825 	move	a3,zero
    2134:	0c000000 	jal	0 <func_800994A0>
    2138:	afa20074 	sw	v0,116(sp)
    213c:	8fa30074 	lw	v1,116(sp)
    2140:	10000056 	b	229c <func_8009B0FC+0x640>
    2144:	ac620004 	sw	v0,4(v1)
    2148:	8e0202c0 	lw	v0,704(s0)
    214c:	3c0fdb06 	lui	t7,0xdb06
    2150:	35ef0028 	ori	t7,t7,0x28
    2154:	244e0008 	addiu	t6,v0,8
    2158:	ae0e02c0 	sw	t6,704(s0)
    215c:	ac4f0000 	sw	t7,0(v0)
    2160:	8fad00ac 	lw	t5,172(sp)
    2164:	3c014348 	lui	at,0x4348
    2168:	44814000 	mtc1	at,$f8
    216c:	448d2000 	mtc1	t5,$f4
    2170:	3c0142be 	lui	at,0x42be
    2174:	44815000 	mtc1	at,$f10
    2178:	468021a0 	cvt.s.w	$f6,$f4
    217c:	8e240000 	lw	a0,0(s1)
    2180:	240c0020 	li	t4,32
    2184:	8fa60058 	lw	a2,88(sp)
    2188:	afac0010 	sw	t4,16(sp)
    218c:	24180020 	li	t8,32
    2190:	46083003 	div.s	$f0,$f6,$f8
    2194:	24190001 	li	t9,1
    2198:	240a0020 	li	t2,32
    219c:	240b0020 	li	t3,32
    21a0:	afab0028 	sw	t3,40(sp)
    21a4:	afaa0024 	sw	t2,36(sp)
    21a8:	afb90018 	sw	t9,24(sp)
    21ac:	afb80014 	sw	t8,20(sp)
    21b0:	afa00034 	sw	zero,52(sp)
    21b4:	afa00030 	sw	zero,48(sp)
    21b8:	afa0002c 	sw	zero,44(sp)
    21bc:	afa00020 	sw	zero,32(sp)
    21c0:	afa0001c 	sw	zero,28(sp)
    21c4:	00002825 	move	a1,zero
    21c8:	00003825 	move	a3,zero
    21cc:	afa20070 	sw	v0,112(sp)
    21d0:	30c6007f 	andi	a2,a2,0x7f
    21d4:	460a0402 	mul.s	$f16,$f0,$f10
    21d8:	e7a00054 	swc1	$f0,84(sp)
    21dc:	4600848d 	trunc.w.s	$f18,$f16
    21e0:	440f9000 	mfc1	t7,$f18
    21e4:	00000000 	nop
    21e8:	25ec00a0 	addiu	t4,t7,160
    21ec:	0c000000 	jal	0 <func_800994A0>
    21f0:	afac0038 	sw	t4,56(sp)
    21f4:	8fa30070 	lw	v1,112(sp)
    21f8:	c7a00054 	lwc1	$f0,84(sp)
    21fc:	3c19db06 	lui	t9,0xdb06
    2200:	ac620004 	sw	v0,4(v1)
    2204:	8e0202c0 	lw	v0,704(s0)
    2208:	3739002c 	ori	t9,t9,0x2c
    220c:	240a0020 	li	t2,32
    2210:	24580008 	addiu	t8,v0,8
    2214:	ae1802c0 	sw	t8,704(s0)
    2218:	ac590000 	sw	t9,0(v0)
    221c:	8fa600b4 	lw	a2,180(sp)
    2220:	8e240000 	lw	a0,0(s1)
    2224:	240b0020 	li	t3,32
    2228:	00c00821 	move	at,a2
    222c:	00063080 	sll	a2,a2,0x2
    2230:	00c13023 	subu	a2,a2,at
    2234:	3c01428c 	lui	at,0x428c
    2238:	44812000 	mtc1	at,$f4
    223c:	240d0001 	li	t5,1
    2240:	240e0020 	li	t6,32
    2244:	46040182 	mul.s	$f6,$f0,$f4
    2248:	240f0020 	li	t7,32
    224c:	afaf0028 	sw	t7,40(sp)
    2250:	afae0024 	sw	t6,36(sp)
    2254:	afad0018 	sw	t5,24(sp)
    2258:	afab0014 	sw	t3,20(sp)
    225c:	afa00034 	sw	zero,52(sp)
    2260:	4600320d 	trunc.w.s	$f8,$f6
    2264:	afa00030 	sw	zero,48(sp)
    2268:	afa0002c 	sw	zero,44(sp)
    226c:	afa00020 	sw	zero,32(sp)
    2270:	44184000 	mfc1	t8,$f8
    2274:	afa0001c 	sw	zero,28(sp)
    2278:	afaa0010 	sw	t2,16(sp)
    227c:	271900b9 	addiu	t9,t8,185
    2280:	afb90038 	sw	t9,56(sp)
    2284:	00002825 	move	a1,zero
    2288:	00003825 	move	a3,zero
    228c:	0c000000 	jal	0 <func_800994A0>
    2290:	afa2006c 	sw	v0,108(sp)
    2294:	8fa3006c 	lw	v1,108(sp)
    2298:	ac620004 	sw	v0,4(v1)
    229c:	8e0202d0 	lw	v0,720(s0)
    22a0:	8fa60058 	lw	a2,88(sp)
    22a4:	3c0bdb06 	lui	t3,0xdb06
    22a8:	244a0008 	addiu	t2,v0,8
    22ac:	ae0a02d0 	sw	t2,720(s0)
    22b0:	356b0030 	ori	t3,t3,0x30
    22b4:	ac4b0000 	sw	t3,0(v0)
    22b8:	8e240000 	lw	a0,0(s1)
    22bc:	240c007f 	li	t4,127
    22c0:	240b0080 	li	t3,128
    22c4:	240a0020 	li	t2,32
    22c8:	240d0020 	li	t5,32
    22cc:	240e0020 	li	t6,32
    22d0:	240f0001 	li	t7,1
    22d4:	24190020 	li	t9,32
    22d8:	0186c023 	subu	t8,t4,a2
    22dc:	afb80020 	sw	t8,32(sp)
    22e0:	afb90024 	sw	t9,36(sp)
    22e4:	afaf0018 	sw	t7,24(sp)
    22e8:	afae0014 	sw	t6,20(sp)
    22ec:	afad0010 	sw	t5,16(sp)
    22f0:	afaa0028 	sw	t2,40(sp)
    22f4:	afab0038 	sw	t3,56(sp)
    22f8:	afa00034 	sw	zero,52(sp)
    22fc:	afa00030 	sw	zero,48(sp)
    2300:	afa0002c 	sw	zero,44(sp)
    2304:	afa0001c 	sw	zero,28(sp)
    2308:	00002825 	move	a1,zero
    230c:	afa20068 	sw	v0,104(sp)
    2310:	0c000000 	jal	0 <func_800994A0>
    2314:	00c03825 	move	a3,a2
    2318:	8fa30068 	lw	v1,104(sp)
    231c:	3c0edb06 	lui	t6,0xdb06
    2320:	35ce0034 	ori	t6,t6,0x34
    2324:	ac620004 	sw	v0,4(v1)
    2328:	8e0202d0 	lw	v0,720(s0)
    232c:	240f0020 	li	t7,32
    2330:	240c0020 	li	t4,32
    2334:	244d0008 	addiu	t5,v0,8
    2338:	ae0d02d0 	sw	t5,720(s0)
    233c:	ac4e0000 	sw	t6,0(v0)
    2340:	8e240000 	lw	a0,0(s1)
    2344:	8fa600b4 	lw	a2,180(sp)
    2348:	24180001 	li	t8,1
    234c:	24190020 	li	t9,32
    2350:	240a0020 	li	t2,32
    2354:	240b0080 	li	t3,128
    2358:	00063080 	sll	a2,a2,0x2
    235c:	afa6001c 	sw	a2,28(sp)
    2360:	afab0038 	sw	t3,56(sp)
    2364:	afaa0028 	sw	t2,40(sp)
    2368:	afb90024 	sw	t9,36(sp)
    236c:	afb80018 	sw	t8,24(sp)
    2370:	afa00034 	sw	zero,52(sp)
    2374:	afa00030 	sw	zero,48(sp)
    2378:	afa0002c 	sw	zero,44(sp)
    237c:	afa00020 	sw	zero,32(sp)
    2380:	afac0014 	sw	t4,20(sp)
    2384:	afaf0010 	sw	t7,16(sp)
    2388:	00002825 	move	a1,zero
    238c:	00003825 	move	a3,zero
    2390:	0c000000 	jal	0 <func_800994A0>
    2394:	afa20064 	sw	v0,100(sp)
    2398:	8fa30064 	lw	v1,100(sp)
    239c:	3c060000 	lui	a2,0x0
    23a0:	24c601f4 	addiu	a2,a2,500
    23a4:	ac620004 	sw	v0,4(v1)
    23a8:	8e250000 	lw	a1,0(s1)
    23ac:	27a40098 	addiu	a0,sp,152
    23b0:	0c000000 	jal	0 <func_800994A0>
    23b4:	2407160c 	li	a3,5644
    23b8:	8fbf004c 	lw	ra,76(sp)
    23bc:	8fb00044 	lw	s0,68(sp)
    23c0:	8fb10048 	lw	s1,72(sp)
    23c4:	03e00008 	jr	ra
    23c8:	27bd00b8 	addiu	sp,sp,184

000023cc <func_8009B86C>:
    23cc:	27bdff90 	addiu	sp,sp,-112
    23d0:	afbf0034 	sw	ra,52(sp)
    23d4:	afa40070 	sw	a0,112(sp)
    23d8:	8c850000 	lw	a1,0(a0)
    23dc:	3c060000 	lui	a2,0x0
    23e0:	24c60208 	addiu	a2,a2,520
    23e4:	27a40058 	addiu	a0,sp,88
    23e8:	2407169f 	li	a3,5791
    23ec:	0c000000 	jal	0 <func_800994A0>
    23f0:	afa50068 	sw	a1,104(sp)
    23f4:	8fa80068 	lw	t0,104(sp)
    23f8:	8fab0070 	lw	t3,112(sp)
    23fc:	3c010001 	lui	at,0x1
    2400:	8d0202c0 	lw	v0,704(t0)
    2404:	01615021 	addu	t2,t3,at
    2408:	8d461de4 	lw	a2,7652(t2)
    240c:	244f0008 	addiu	t7,v0,8
    2410:	3c18db06 	lui	t8,0xdb06
    2414:	ad0f02c0 	sw	t7,704(t0)
    2418:	37180020 	ori	t8,t8,0x20
    241c:	ac580000 	sw	t8,0(v0)
    2420:	8d640000 	lw	a0,0(t3)
    2424:	240f0020 	li	t7,32
    2428:	24190020 	li	t9,32
    242c:	240c0020 	li	t4,32
    2430:	240d0001 	li	t5,1
    2434:	240e0020 	li	t6,32
    2438:	afae0024 	sw	t6,36(sp)
    243c:	afad0018 	sw	t5,24(sp)
    2440:	afac0014 	sw	t4,20(sp)
    2444:	afb90010 	sw	t9,16(sp)
    2448:	afaf0028 	sw	t7,40(sp)
    244c:	afaa0040 	sw	t2,64(sp)
    2450:	afa00020 	sw	zero,32(sp)
    2454:	afa0001c 	sw	zero,28(sp)
    2458:	00002825 	move	a1,zero
    245c:	00003825 	move	a3,zero
    2460:	afa80068 	sw	t0,104(sp)
    2464:	0c000000 	jal	0 <func_800994A0>
    2468:	afa20054 	sw	v0,84(sp)
    246c:	8fa30054 	lw	v1,84(sp)
    2470:	8fa80068 	lw	t0,104(sp)
    2474:	8faa0040 	lw	t2,64(sp)
    2478:	ac620004 	sw	v0,4(v1)
    247c:	8d0202c0 	lw	v0,704(t0)
    2480:	3c04e700 	lui	a0,0xe700
    2484:	3c05fb00 	lui	a1,0xfb00
    2488:	24580008 	addiu	t8,v0,8
    248c:	ad1802c0 	sw	t8,704(t0)
    2490:	ac400004 	sw	zero,4(v0)
    2494:	ac440000 	sw	a0,0(v0)
    2498:	8d0202c0 	lw	v0,704(t0)
    249c:	3c018080 	lui	at,0x8080
    24a0:	34218000 	ori	at,at,0x8000
    24a4:	24590008 	addiu	t9,v0,8
    24a8:	ad1902c0 	sw	t9,704(t0)
    24ac:	ac450000 	sw	a1,0(v0)
    24b0:	854c1d30 	lh	t4,7472(t2)
    24b4:	3c198080 	lui	t9,0x8080
    24b8:	37398091 	ori	t9,t9,0x8091
    24bc:	318d00ff 	andi	t5,t4,0xff
    24c0:	01a17025 	or	t6,t5,at
    24c4:	ac4e0004 	sw	t6,4(v0)
    24c8:	8d0302d0 	lw	v1,720(t0)
    24cc:	3c060000 	lui	a2,0x0
    24d0:	24c6021c 	addiu	a2,a2,540
    24d4:	246f0008 	addiu	t7,v1,8
    24d8:	ad0f02d0 	sw	t7,720(t0)
    24dc:	ac600004 	sw	zero,4(v1)
    24e0:	ac640000 	sw	a0,0(v1)
    24e4:	8d0302d0 	lw	v1,720(t0)
    24e8:	27a40058 	addiu	a0,sp,88
    24ec:	240716b0 	li	a3,5808
    24f0:	24780008 	addiu	t8,v1,8
    24f4:	ad1802d0 	sw	t8,720(t0)
    24f8:	ac790004 	sw	t9,4(v1)
    24fc:	ac650000 	sw	a1,0(v1)
    2500:	8fac0070 	lw	t4,112(sp)
    2504:	0c000000 	jal	0 <func_800994A0>
    2508:	8d850000 	lw	a1,0(t4)
    250c:	8fbf0034 	lw	ra,52(sp)
    2510:	27bd0070 	addiu	sp,sp,112
    2514:	03e00008 	jr	ra
    2518:	00000000 	nop

0000251c <func_8009B9BC>:
    251c:	27bdffb8 	addiu	sp,sp,-72
    2520:	afbf001c 	sw	ra,28(sp)
    2524:	afa40048 	sw	a0,72(sp)
    2528:	8c850000 	lw	a1,0(a0)
    252c:	3c060000 	lui	a2,0x0
    2530:	24c60230 	addiu	a2,a2,560
    2534:	27a40030 	addiu	a0,sp,48
    2538:	240716be 	li	a3,5822
    253c:	0c000000 	jal	0 <func_800994A0>
    2540:	afa50040 	sw	a1,64(sp)
    2544:	8fa80040 	lw	t0,64(sp)
    2548:	8faa0048 	lw	t2,72(sp)
    254c:	3c090001 	lui	t1,0x1
    2550:	8d0202c0 	lw	v0,704(t0)
    2554:	012a4821 	addu	t1,t1,t2
    2558:	8d291de4 	lw	t1,7652(t1)
    255c:	3c18db06 	lui	t8,0xdb06
    2560:	244f0008 	addiu	t7,v0,8
    2564:	37180020 	ori	t8,t8,0x20
    2568:	ad0f02c0 	sw	t7,704(t0)
    256c:	ac580000 	sw	t8,0(v0)
    2570:	8d440000 	lw	a0,0(t2)
    2574:	24190010 	li	t9,16
    2578:	afb90010 	sw	t9,16(sp)
    257c:	00002825 	move	a1,zero
    2580:	24070004 	li	a3,4
    2584:	afa80040 	sw	t0,64(sp)
    2588:	afa2002c 	sw	v0,44(sp)
    258c:	0c000000 	jal	0 <func_800994A0>
    2590:	3126003f 	andi	a2,t1,0x3f
    2594:	8fa3002c 	lw	v1,44(sp)
    2598:	8fa80040 	lw	t0,64(sp)
    259c:	3c0ce700 	lui	t4,0xe700
    25a0:	ac620004 	sw	v0,4(v1)
    25a4:	8d0202c0 	lw	v0,704(t0)
    25a8:	3c0f8080 	lui	t7,0x8080
    25ac:	35ef8080 	ori	t7,t7,0x8080
    25b0:	244b0008 	addiu	t3,v0,8
    25b4:	ad0b02c0 	sw	t3,704(t0)
    25b8:	ac400004 	sw	zero,4(v0)
    25bc:	ac4c0000 	sw	t4,0(v0)
    25c0:	8d0202c0 	lw	v0,704(t0)
    25c4:	3c0efb00 	lui	t6,0xfb00
    25c8:	3c060000 	lui	a2,0x0
    25cc:	244d0008 	addiu	t5,v0,8
    25d0:	ad0d02c0 	sw	t5,704(t0)
    25d4:	ac4f0004 	sw	t7,4(v0)
    25d8:	ac4e0000 	sw	t6,0(v0)
    25dc:	8fb80048 	lw	t8,72(sp)
    25e0:	24c60244 	addiu	a2,a2,580
    25e4:	27a40030 	addiu	a0,sp,48
    25e8:	240716cc 	li	a3,5836
    25ec:	0c000000 	jal	0 <func_800994A0>
    25f0:	8f050000 	lw	a1,0(t8)
    25f4:	8fbf001c 	lw	ra,28(sp)
    25f8:	27bd0048 	addiu	sp,sp,72
    25fc:	03e00008 	jr	ra
    2600:	00000000 	nop

00002604 <func_8009BAA4>:
    2604:	27bdff88 	addiu	sp,sp,-120
    2608:	afbf003c 	sw	ra,60(sp)
    260c:	afb10038 	sw	s1,56(sp)
    2610:	afb00034 	sw	s0,52(sp)
    2614:	8c850000 	lw	a1,0(a0)
    2618:	00808825 	move	s1,a0
    261c:	3c060000 	lui	a2,0x0
    2620:	24c60258 	addiu	a2,a2,600
    2624:	27a40060 	addiu	a0,sp,96
    2628:	240716da 	li	a3,5850
    262c:	0c000000 	jal	0 <func_800994A0>
    2630:	00a08025 	move	s0,a1
    2634:	3c090001 	lui	t1,0x1
    2638:	8e0202d0 	lw	v0,720(s0)
    263c:	01314821 	addu	t1,t1,s1
    2640:	8d291de4 	lw	t1,7652(t1)
    2644:	3c0fdb06 	lui	t7,0xdb06
    2648:	244e0008 	addiu	t6,v0,8
    264c:	ae0e02d0 	sw	t6,720(s0)
    2650:	35ef0020 	ori	t7,t7,0x20
    2654:	ac4f0000 	sw	t7,0(v0)
    2658:	8e240000 	lw	a0,0(s1)
    265c:	00093880 	sll	a3,t1,0x2
    2660:	00e93823 	subu	a3,a3,t1
    2664:	30e7007f 	andi	a3,a3,0x7f
    2668:	2418007f 	li	t8,127
    266c:	24190020 	li	t9,32
    2670:	240a0020 	li	t2,32
    2674:	240b0001 	li	t3,1
    2678:	240c0020 	li	t4,32
    267c:	240d0020 	li	t5,32
    2680:	3123007f 	andi	v1,t1,0x7f
    2684:	03033023 	subu	a2,t8,v1
    2688:	afa3001c 	sw	v1,28(sp)
    268c:	afad0028 	sw	t5,40(sp)
    2690:	afac0024 	sw	t4,36(sp)
    2694:	afab0018 	sw	t3,24(sp)
    2698:	afaa0014 	sw	t2,20(sp)
    269c:	afb90010 	sw	t9,16(sp)
    26a0:	afa70020 	sw	a3,32(sp)
    26a4:	00002825 	move	a1,zero
    26a8:	afa2005c 	sw	v0,92(sp)
    26ac:	0c000000 	jal	0 <func_800994A0>
    26b0:	afa90074 	sw	t1,116(sp)
    26b4:	8fa8005c 	lw	t0,92(sp)
    26b8:	8fa90074 	lw	t1,116(sp)
    26bc:	24010045 	li	at,69
    26c0:	ad020004 	sw	v0,4(t0)
    26c4:	862e00a4 	lh	t6,164(s1)
    26c8:	3c18db06 	lui	t8,0xdb06
    26cc:	37180024 	ori	t8,t8,0x24
    26d0:	15c10011 	bne	t6,at,2718 <func_8009BAA4+0x114>
    26d4:	00002825 	move	a1,zero
    26d8:	8e0202d0 	lw	v0,720(s0)
    26dc:	00093080 	sll	a2,t1,0x2
    26e0:	00c93021 	addu	a2,a2,t1
    26e4:	244f0008 	addiu	t7,v0,8
    26e8:	ae0f02d0 	sw	t7,720(s0)
    26ec:	ac580000 	sw	t8,0(v0)
    26f0:	8e240000 	lw	a0,0(s1)
    26f4:	00063040 	sll	a2,a2,0x1
    26f8:	24190040 	li	t9,64
    26fc:	afb90010 	sw	t9,16(sp)
    2700:	30c600ff 	andi	a2,a2,0xff
    2704:	24070020 	li	a3,32
    2708:	0c000000 	jal	0 <func_800994A0>
    270c:	afa20058 	sw	v0,88(sp)
    2710:	8fa30058 	lw	v1,88(sp)
    2714:	ac620004 	sw	v0,4(v1)
    2718:	8e0302c0 	lw	v1,704(s0)
    271c:	3c04e700 	lui	a0,0xe700
    2720:	3c068080 	lui	a2,0x8080
    2724:	246a0008 	addiu	t2,v1,8
    2728:	ae0a02c0 	sw	t2,704(s0)
    272c:	ac600004 	sw	zero,4(v1)
    2730:	ac640000 	sw	a0,0(v1)
    2734:	8e0302c0 	lw	v1,704(s0)
    2738:	34c68080 	ori	a2,a2,0x8080
    273c:	3c05fb00 	lui	a1,0xfb00
    2740:	246b0008 	addiu	t3,v1,8
    2744:	ae0b02c0 	sw	t3,704(s0)
    2748:	ac660004 	sw	a2,4(v1)
    274c:	ac650000 	sw	a1,0(v1)
    2750:	8e0202d0 	lw	v0,720(s0)
    2754:	240716f4 	li	a3,5876
    2758:	244c0008 	addiu	t4,v0,8
    275c:	ae0c02d0 	sw	t4,720(s0)
    2760:	ac400004 	sw	zero,4(v0)
    2764:	ac440000 	sw	a0,0(v0)
    2768:	8e0202d0 	lw	v0,720(s0)
    276c:	27a40060 	addiu	a0,sp,96
    2770:	244d0008 	addiu	t5,v0,8
    2774:	ae0d02d0 	sw	t5,720(s0)
    2778:	ac460004 	sw	a2,4(v0)
    277c:	3c060000 	lui	a2,0x0
    2780:	ac450000 	sw	a1,0(v0)
    2784:	8e250000 	lw	a1,0(s1)
    2788:	0c000000 	jal	0 <func_800994A0>
    278c:	24c6026c 	addiu	a2,a2,620
    2790:	8fbf003c 	lw	ra,60(sp)
    2794:	8fb00034 	lw	s0,52(sp)
    2798:	8fb10038 	lw	s1,56(sp)
    279c:	03e00008 	jr	ra
    27a0:	27bd0078 	addiu	sp,sp,120

000027a4 <func_8009BC44>:
    27a4:	27bdff78 	addiu	sp,sp,-136
    27a8:	3c010001 	lui	at,0x1
    27ac:	afbf003c 	sw	ra,60(sp)
    27b0:	afb00038 	sw	s0,56(sp)
    27b4:	afa40088 	sw	a0,136(sp)
    27b8:	00811021 	addu	v0,a0,at
    27bc:	8c441de4 	lw	a0,7652(v0)
    27c0:	afa20044 	sw	v0,68(sp)
    27c4:	00800821 	move	at,a0
    27c8:	00042080 	sll	a0,a0,0x2
    27cc:	00812023 	subu	a0,a0,at
    27d0:	00042100 	sll	a0,a0,0x4
    27d4:	00812023 	subu	a0,a0,at
    27d8:	000420c0 	sll	a0,a0,0x3
    27dc:	00812023 	subu	a0,a0,at
    27e0:	00042080 	sll	a0,a0,0x2
    27e4:	0c000000 	jal	0 <func_800994A0>
    27e8:	3084ffff 	andi	a0,a0,0xffff
    27ec:	8faf0088 	lw	t7,136(sp)
    27f0:	00027203 	sra	t6,v0,0x8
    27f4:	a3ae0083 	sb	t6,131(sp)
    27f8:	8de50000 	lw	a1,0(t7)
    27fc:	3c060000 	lui	a2,0x0
    2800:	24c60280 	addiu	a2,a2,640
    2804:	27a4006c 	addiu	a0,sp,108
    2808:	24071706 	li	a3,5894
    280c:	0c000000 	jal	0 <func_800994A0>
    2810:	00a08025 	move	s0,a1
    2814:	8fb80044 	lw	t8,68(sp)
    2818:	8fa90088 	lw	t1,136(sp)
    281c:	24010064 	li	at,100
    2820:	8f191de4 	lw	t9,7652(t8)
    2824:	3c0cdb06 	lui	t4,0xdb06
    2828:	358c0024 	ori	t4,t4,0x24
    282c:	afb90084 	sw	t9,132(sp)
    2830:	852a00a4 	lh	t2,164(t1)
    2834:	00002825 	move	a1,zero
    2838:	5541002f 	bnel	t2,at,28f8 <func_8009BC44+0x154>
    283c:	8e0202c0 	lw	v0,704(s0)
    2840:	8e0202d0 	lw	v0,720(s0)
    2844:	240d0040 	li	t5,64
    2848:	24070040 	li	a3,64
    284c:	244b0008 	addiu	t3,v0,8
    2850:	ae0b02d0 	sw	t3,720(s0)
    2854:	ac4c0000 	sw	t4,0(v0)
    2858:	8fa60084 	lw	a2,132(sp)
    285c:	8d240000 	lw	a0,0(t1)
    2860:	afad0010 	sw	t5,16(sp)
    2864:	30c600ff 	andi	a2,a2,0xff
    2868:	afa60044 	sw	a2,68(sp)
    286c:	0c000000 	jal	0 <func_800994A0>
    2870:	afa20068 	sw	v0,104(sp)
    2874:	8fa30068 	lw	v1,104(sp)
    2878:	8fa80044 	lw	t0,68(sp)
    287c:	3c0fdb06 	lui	t7,0xdb06
    2880:	ac620004 	sw	v0,4(v1)
    2884:	8e0202d0 	lw	v0,720(s0)
    2888:	35ef0020 	ori	t7,t7,0x20
    288c:	241900ff 	li	t9,255
    2890:	244e0008 	addiu	t6,v0,8
    2894:	ae0e02d0 	sw	t6,720(s0)
    2898:	ac4f0000 	sw	t7,0(v0)
    289c:	8fb80088 	lw	t8,136(sp)
    28a0:	240e0040 	li	t6,64
    28a4:	240a0040 	li	t2,64
    28a8:	8f040000 	lw	a0,0(t8)
    28ac:	240b0040 	li	t3,64
    28b0:	240c0001 	li	t4,1
    28b4:	240d0040 	li	t5,64
    28b8:	afad0024 	sw	t5,36(sp)
    28bc:	afac0018 	sw	t4,24(sp)
    28c0:	afab0014 	sw	t3,20(sp)
    28c4:	afae0028 	sw	t6,40(sp)
    28c8:	afa0001c 	sw	zero,28(sp)
    28cc:	afaa0010 	sw	t2,16(sp)
    28d0:	00002825 	move	a1,zero
    28d4:	00003025 	move	a2,zero
    28d8:	afa80020 	sw	t0,32(sp)
    28dc:	03283823 	subu	a3,t9,t0
    28e0:	0c000000 	jal	0 <func_800994A0>
    28e4:	afa20064 	sw	v0,100(sp)
    28e8:	8fa30064 	lw	v1,100(sp)
    28ec:	ac620004 	sw	v0,4(v1)
    28f0:	8fa90088 	lw	t1,136(sp)
    28f4:	8e0202c0 	lw	v0,704(s0)
    28f8:	8fa80084 	lw	t0,132(sp)
    28fc:	3c18db06 	lui	t8,0xdb06
    2900:	244f0008 	addiu	t7,v0,8
    2904:	ae0f02c0 	sw	t7,704(s0)
    2908:	3718002c 	ori	t8,t8,0x2c
    290c:	ac580000 	sw	t8,0(v0)
    2910:	8d240000 	lw	a0,0(t1)
    2914:	3107007f 	andi	a3,t0,0x7f
    2918:	241900ff 	li	t9,255
    291c:	240a0020 	li	t2,32
    2920:	240b0020 	li	t3,32
    2924:	240c0001 	li	t4,1
    2928:	240d0020 	li	t5,32
    292c:	240e0020 	li	t6,32
    2930:	afae0028 	sw	t6,40(sp)
    2934:	afad0024 	sw	t5,36(sp)
    2938:	afac0018 	sw	t4,24(sp)
    293c:	afab0014 	sw	t3,20(sp)
    2940:	afaa0010 	sw	t2,16(sp)
    2944:	03273023 	subu	a2,t9,a3
    2948:	afa7001c 	sw	a3,28(sp)
    294c:	afa70020 	sw	a3,32(sp)
    2950:	00002825 	move	a1,zero
    2954:	0c000000 	jal	0 <func_800994A0>
    2958:	afa20060 	sw	v0,96(sp)
    295c:	8fa30060 	lw	v1,96(sp)
    2960:	3c04e700 	lui	a0,0xe700
    2964:	3c068080 	lui	a2,0x8080
    2968:	ac620004 	sw	v0,4(v1)
    296c:	8e0202c0 	lw	v0,704(s0)
    2970:	34c68080 	ori	a2,a2,0x8080
    2974:	3c05fb00 	lui	a1,0xfb00
    2978:	244f0008 	addiu	t7,v0,8
    297c:	ae0f02c0 	sw	t7,704(s0)
    2980:	ac400004 	sw	zero,4(v0)
    2984:	ac440000 	sw	a0,0(v0)
    2988:	8e0202c0 	lw	v0,704(s0)
    298c:	2407172a 	li	a3,5930
    2990:	24580008 	addiu	t8,v0,8
    2994:	ae1802c0 	sw	t8,704(s0)
    2998:	ac460004 	sw	a2,4(v0)
    299c:	ac450000 	sw	a1,0(v0)
    29a0:	8e0202d0 	lw	v0,720(s0)
    29a4:	24590008 	addiu	t9,v0,8
    29a8:	ae1902d0 	sw	t9,720(s0)
    29ac:	ac400004 	sw	zero,4(v0)
    29b0:	ac440000 	sw	a0,0(v0)
    29b4:	8e0202d0 	lw	v0,720(s0)
    29b8:	244a0008 	addiu	t2,v0,8
    29bc:	ae0a02d0 	sw	t2,720(s0)
    29c0:	ac460004 	sw	a2,4(v0)
    29c4:	ac450000 	sw	a1,0(v0)
    29c8:	83a60083 	lb	a2,131(sp)
    29cc:	8e0202c0 	lw	v0,704(s0)
    29d0:	00063043 	sra	a2,a2,0x1
    29d4:	244b0008 	addiu	t3,v0,8
    29d8:	24c600c0 	addiu	a2,a2,192
    29dc:	ae0b02c0 	sw	t3,704(s0)
    29e0:	00063600 	sll	a2,a2,0x18
    29e4:	00063603 	sra	a2,a2,0x18
    29e8:	ac400004 	sw	zero,4(v0)
    29ec:	ac440000 	sw	a0,0(v0)
    29f0:	8e0202c0 	lw	v0,704(s0)
    29f4:	30c300ff 	andi	v1,a2,0xff
    29f8:	00036e00 	sll	t5,v1,0x18
    29fc:	00037400 	sll	t6,v1,0x10
    2a00:	01ae7825 	or	t7,t5,t6
    2a04:	0003c200 	sll	t8,v1,0x8
    2a08:	244c0008 	addiu	t4,v0,8
    2a0c:	ae0c02c0 	sw	t4,704(s0)
    2a10:	01f8c825 	or	t9,t7,t8
    2a14:	372a0080 	ori	t2,t9,0x80
    2a18:	ac4a0004 	sw	t2,4(v0)
    2a1c:	ac450000 	sw	a1,0(v0)
    2a20:	8fab0088 	lw	t3,136(sp)
    2a24:	3c060000 	lui	a2,0x0
    2a28:	24c60294 	addiu	a2,a2,660
    2a2c:	27a4006c 	addiu	a0,sp,108
    2a30:	0c000000 	jal	0 <func_800994A0>
    2a34:	8d650000 	lw	a1,0(t3)
    2a38:	8fbf003c 	lw	ra,60(sp)
    2a3c:	8fb00038 	lw	s0,56(sp)
    2a40:	27bd0088 	addiu	sp,sp,136
    2a44:	03e00008 	jr	ra
    2a48:	00000000 	nop

00002a4c <func_8009BEEC>:
    2a4c:	27bdffc8 	addiu	sp,sp,-56
    2a50:	3c010001 	lui	at,0x1
    2a54:	afbf0024 	sw	ra,36(sp)
    2a58:	afb10020 	sw	s1,32(sp)
    2a5c:	afb0001c 	sw	s0,28(sp)
    2a60:	00811021 	addu	v0,a0,at
    2a64:	8c431de4 	lw	v1,7652(v0)
    2a68:	2401000d 	li	at,13
    2a6c:	00808825 	move	s1,a0
    2a70:	306e007f 	andi	t6,v1,0x7f
    2a74:	55c1001c 	bnel	t6,at,2ae8 <func_8009BEEC+0x9c>
    2a78:	3069003f 	andi	t1,v1,0x3f
    2a7c:	848f07a0 	lh	t7,1952(a0)
    2a80:	24050002 	li	a1,2
    2a84:	000fc080 	sll	t8,t7,0x2
    2a88:	0098c821 	addu	t9,a0,t8
    2a8c:	8f240790 	lw	a0,1936(t9)
    2a90:	0c000000 	jal	0 <func_800994A0>
    2a94:	afa2002c 	sw	v0,44(sp)
    2a98:	00022400 	sll	a0,v0,0x10
    2a9c:	afa20034 	sw	v0,52(sp)
    2aa0:	00042403 	sra	a0,a0,0x10
    2aa4:	0c000000 	jal	0 <func_800994A0>
    2aa8:	24052710 	li	a1,10000
    2aac:	87b00036 	lh	s0,54(sp)
    2ab0:	24050004 	li	a1,4
    2ab4:	00003025 	move	a2,zero
    2ab8:	00102400 	sll	a0,s0,0x10
    2abc:	00042403 	sra	a0,a0,0x10
    2ac0:	00003825 	move	a3,zero
    2ac4:	0c000000 	jal	0 <func_800994A0>
    2ac8:	afa00010 	sw	zero,16(sp)
    2acc:	00102400 	sll	a0,s0,0x10
    2ad0:	00042403 	sra	a0,a0,0x10
    2ad4:	0c000000 	jal	0 <func_800994A0>
    2ad8:	2405007f 	li	a1,127
    2adc:	8fa8002c 	lw	t0,44(sp)
    2ae0:	8d031de4 	lw	v1,7652(t0)
    2ae4:	3069003f 	andi	t1,v1,0x3f
    2ae8:	55200044 	bnezl	t1,2bfc <func_8009BEEC+0x1b0>
    2aec:	8fbf0024 	lw	ra,36(sp)
    2af0:	0c000000 	jal	0 <func_800994A0>
    2af4:	00000000 	nop
    2af8:	3c010000 	lui	at,0x0
    2afc:	c4240838 	lwc1	$f4,2104(at)
    2b00:	4600203c 	c.lt.s	$f4,$f0
    2b04:	00000000 	nop
    2b08:	4502003c 	bc1fl	2bfc <func_8009BEEC+0x1b0>
    2b0c:	8fbf0024 	lw	ra,36(sp)
    2b10:	862a07a0 	lh	t2,1952(s1)
    2b14:	24050003 	li	a1,3
    2b18:	000a5880 	sll	t3,t2,0x2
    2b1c:	022b6021 	addu	t4,s1,t3
    2b20:	0c000000 	jal	0 <func_800994A0>
    2b24:	8d840790 	lw	a0,1936(t4)
    2b28:	0c000000 	jal	0 <func_800994A0>
    2b2c:	afa20034 	sw	v0,52(sp)
    2b30:	3c010000 	lui	at,0x0
    2b34:	c426083c 	lwc1	$f6,2108(at)
    2b38:	3c0146fa 	lui	at,0x46fa
    2b3c:	44815000 	mtc1	at,$f10
    2b40:	46060202 	mul.s	$f8,$f0,$f6
    2b44:	87b00036 	lh	s0,54(sp)
    2b48:	00102400 	sll	a0,s0,0x10
    2b4c:	00042403 	sra	a0,a0,0x10
    2b50:	460a4400 	add.s	$f16,$f8,$f10
    2b54:	4600848d 	trunc.w.s	$f18,$f16
    2b58:	44059000 	mfc1	a1,$f18
    2b5c:	00000000 	nop
    2b60:	00052c00 	sll	a1,a1,0x10
    2b64:	0c000000 	jal	0 <func_800994A0>
    2b68:	00052c03 	sra	a1,a1,0x10
    2b6c:	0c000000 	jal	0 <func_800994A0>
    2b70:	00000000 	nop
    2b74:	3c014120 	lui	at,0x4120
    2b78:	44812000 	mtc1	at,$f4
    2b7c:	3c014110 	lui	at,0x4110
    2b80:	44813000 	mtc1	at,$f6
    2b84:	00102400 	sll	a0,s0,0x10
    2b88:	00042403 	sra	a0,a0,0x10
    2b8c:	46060202 	mul.s	$f8,$f0,$f6
    2b90:	00003025 	move	a2,zero
    2b94:	00003825 	move	a3,zero
    2b98:	afa00010 	sw	zero,16(sp)
    2b9c:	46082281 	sub.s	$f10,$f4,$f8
    2ba0:	4600540d 	trunc.w.s	$f16,$f10
    2ba4:	44058000 	mfc1	a1,$f16
    2ba8:	00000000 	nop
    2bac:	00052c00 	sll	a1,a1,0x10
    2bb0:	0c000000 	jal	0 <func_800994A0>
    2bb4:	00052c03 	sra	a1,a1,0x10
    2bb8:	0c000000 	jal	0 <func_800994A0>
    2bbc:	00000000 	nop
    2bc0:	3c014240 	lui	at,0x4240
    2bc4:	44819000 	mtc1	at,$f18
    2bc8:	3c014170 	lui	at,0x4170
    2bcc:	44813000 	mtc1	at,$f6
    2bd0:	00102400 	sll	a0,s0,0x10
    2bd4:	00042403 	sra	a0,a0,0x10
    2bd8:	46060102 	mul.s	$f4,$f0,$f6
    2bdc:	46049201 	sub.s	$f8,$f18,$f4
    2be0:	4600428d 	trunc.w.s	$f10,$f8
    2be4:	44055000 	mfc1	a1,$f10
    2be8:	00000000 	nop
    2bec:	00052c00 	sll	a1,a1,0x10
    2bf0:	0c000000 	jal	0 <func_800994A0>
    2bf4:	00052c03 	sra	a1,a1,0x10
    2bf8:	8fbf0024 	lw	ra,36(sp)
    2bfc:	8fb0001c 	lw	s0,28(sp)
    2c00:	8fb10020 	lw	s1,32(sp)
    2c04:	03e00008 	jr	ra
    2c08:	27bd0038 	addiu	sp,sp,56

00002c0c <func_8009C0AC>:
    2c0c:	27bdff80 	addiu	sp,sp,-128
    2c10:	3c010001 	lui	at,0x1
    2c14:	afbf0034 	sw	ra,52(sp)
    2c18:	afa40080 	sw	a0,128(sp)
    2c1c:	00811021 	addu	v0,a0,at
    2c20:	8c441de4 	lw	a0,7652(v0)
    2c24:	afa2003c 	sw	v0,60(sp)
    2c28:	00800821 	move	at,a0
    2c2c:	00042080 	sll	a0,a0,0x2
    2c30:	00812023 	subu	a0,a0,at
    2c34:	00042100 	sll	a0,a0,0x4
    2c38:	00812023 	subu	a0,a0,at
    2c3c:	000420c0 	sll	a0,a0,0x3
    2c40:	00812023 	subu	a0,a0,at
    2c44:	00042080 	sll	a0,a0,0x2
    2c48:	0c000000 	jal	0 <func_800994A0>
    2c4c:	3084ffff 	andi	a0,a0,0xffff
    2c50:	8faf0080 	lw	t7,128(sp)
    2c54:	00027203 	sra	t6,v0,0x8
    2c58:	a3ae007b 	sb	t6,123(sp)
    2c5c:	8de50000 	lw	a1,0(t7)
    2c60:	3c060000 	lui	a2,0x0
    2c64:	24c602a8 	addiu	a2,a2,680
    2c68:	27a40064 	addiu	a0,sp,100
    2c6c:	24071750 	li	a3,5968
    2c70:	0c000000 	jal	0 <func_800994A0>
    2c74:	afa50074 	sw	a1,116(sp)
    2c78:	8fa80074 	lw	t0,116(sp)
    2c7c:	8fb8003c 	lw	t8,60(sp)
    2c80:	3c0bdb06 	lui	t3,0xdb06
    2c84:	8d0202c0 	lw	v0,704(t0)
    2c88:	8f091de4 	lw	t1,7652(t8)
    2c8c:	356b0020 	ori	t3,t3,0x20
    2c90:	24590008 	addiu	t9,v0,8
    2c94:	ad1902c0 	sw	t9,704(t0)
    2c98:	ac4b0000 	sw	t3,0(v0)
    2c9c:	8fac0080 	lw	t4,128(sp)
    2ca0:	241801ff 	li	t8,511
    2ca4:	312701ff 	andi	a3,t1,0x1ff
    2ca8:	8d840000 	lw	a0,0(t4)
    2cac:	240c0080 	li	t4,128
    2cb0:	0307c823 	subu	t9,t8,a3
    2cb4:	240b0040 	li	t3,64
    2cb8:	240d0040 	li	t5,64
    2cbc:	240e0080 	li	t6,128
    2cc0:	240f0001 	li	t7,1
    2cc4:	afaf0018 	sw	t7,24(sp)
    2cc8:	afae0014 	sw	t6,20(sp)
    2ccc:	afad0010 	sw	t5,16(sp)
    2cd0:	afab0024 	sw	t3,36(sp)
    2cd4:	afb90020 	sw	t9,32(sp)
    2cd8:	afac0028 	sw	t4,40(sp)
    2cdc:	afa0001c 	sw	zero,28(sp)
    2ce0:	00002825 	move	a1,zero
    2ce4:	00003025 	move	a2,zero
    2ce8:	afa80074 	sw	t0,116(sp)
    2cec:	afa20060 	sw	v0,96(sp)
    2cf0:	afa9007c 	sw	t1,124(sp)
    2cf4:	0c000000 	jal	0 <func_800994A0>
    2cf8:	afa9003c 	sw	t1,60(sp)
    2cfc:	8fa30060 	lw	v1,96(sp)
    2d00:	8fa80074 	lw	t0,116(sp)
    2d04:	8fa9003c 	lw	t1,60(sp)
    2d08:	8faa007c 	lw	t2,124(sp)
    2d0c:	ac620004 	sw	v0,4(v1)
    2d10:	8d0202c0 	lw	v0,704(t0)
    2d14:	3c0edb06 	lui	t6,0xdb06
    2d18:	35ce0024 	ori	t6,t6,0x24
    2d1c:	244d0008 	addiu	t5,v0,8
    2d20:	ad0d02c0 	sw	t5,704(t0)
    2d24:	ac4e0000 	sw	t6,0(v0)
    2d28:	8faf0080 	lw	t7,128(sp)
    2d2c:	240c00ff 	li	t4,255
    2d30:	312700ff 	andi	a3,t1,0xff
    2d34:	8de40000 	lw	a0,0(t7)
    2d38:	240f0040 	li	t7,64
    2d3c:	01876823 	subu	t5,t4,a3
    2d40:	240e0020 	li	t6,32
    2d44:	24180020 	li	t8,32
    2d48:	24190040 	li	t9,64
    2d4c:	240b0001 	li	t3,1
    2d50:	afab0018 	sw	t3,24(sp)
    2d54:	afb90014 	sw	t9,20(sp)
    2d58:	afb80010 	sw	t8,16(sp)
    2d5c:	afae0024 	sw	t6,36(sp)
    2d60:	afad0020 	sw	t5,32(sp)
    2d64:	afaf0028 	sw	t7,40(sp)
    2d68:	afa0001c 	sw	zero,28(sp)
    2d6c:	00002825 	move	a1,zero
    2d70:	00003025 	move	a2,zero
    2d74:	afa80074 	sw	t0,116(sp)
    2d78:	afaa007c 	sw	t2,124(sp)
    2d7c:	0c000000 	jal	0 <func_800994A0>
    2d80:	afa2005c 	sw	v0,92(sp)
    2d84:	8fa3005c 	lw	v1,92(sp)
    2d88:	8fa80074 	lw	t0,116(sp)
    2d8c:	8faa007c 	lw	t2,124(sp)
    2d90:	ac620004 	sw	v0,4(v1)
    2d94:	8d0202d0 	lw	v0,720(t0)
    2d98:	3c19db06 	lui	t9,0xdb06
    2d9c:	37390028 	ori	t9,t9,0x28
    2da0:	24580008 	addiu	t8,v0,8
    2da4:	ad1802d0 	sw	t8,720(t0)
    2da8:	ac590000 	sw	t9,0(v0)
    2dac:	8fab0080 	lw	t3,128(sp)
    2db0:	000a7900 	sll	t7,t2,0x4
    2db4:	01ea7823 	subu	t7,t7,t2
    2db8:	8d640000 	lw	a0,0(t3)
    2dbc:	000a3880 	sll	a3,t2,0x2
    2dc0:	000f7840 	sll	t7,t7,0x1
    2dc4:	00ea3821 	addu	a3,a3,t2
    2dc8:	00073880 	sll	a3,a3,0x2
    2dcc:	31f807ff 	andi	t8,t7,0x7ff
    2dd0:	240b0200 	li	t3,512
    2dd4:	24190010 	li	t9,16
    2dd8:	240c0010 	li	t4,16
    2ddc:	240d0200 	li	t5,512
    2de0:	240e0001 	li	t6,1
    2de4:	afae0018 	sw	t6,24(sp)
    2de8:	afad0014 	sw	t5,20(sp)
    2dec:	afac0010 	sw	t4,16(sp)
    2df0:	afb90024 	sw	t9,36(sp)
    2df4:	afab0028 	sw	t3,40(sp)
    2df8:	afb80020 	sw	t8,32(sp)
    2dfc:	30e707ff 	andi	a3,a3,0x7ff
    2e00:	afa0001c 	sw	zero,28(sp)
    2e04:	00002825 	move	a1,zero
    2e08:	00003025 	move	a2,zero
    2e0c:	afa80074 	sw	t0,116(sp)
    2e10:	0c000000 	jal	0 <func_800994A0>
    2e14:	afa20058 	sw	v0,88(sp)
    2e18:	8fa30058 	lw	v1,88(sp)
    2e1c:	8fa80074 	lw	t0,116(sp)
    2e20:	3c04e700 	lui	a0,0xe700
    2e24:	ac620004 	sw	v0,4(v1)
    2e28:	8d0202c0 	lw	v0,704(t0)
    2e2c:	3c068080 	lui	a2,0x8080
    2e30:	34c68080 	ori	a2,a2,0x8080
    2e34:	244c0008 	addiu	t4,v0,8
    2e38:	ad0c02c0 	sw	t4,704(t0)
    2e3c:	ac400004 	sw	zero,4(v0)
    2e40:	ac440000 	sw	a0,0(v0)
    2e44:	8d0202c0 	lw	v0,704(t0)
    2e48:	3c05fb00 	lui	a1,0xfb00
    2e4c:	24071774 	li	a3,6004
    2e50:	244d0008 	addiu	t5,v0,8
    2e54:	ad0d02c0 	sw	t5,704(t0)
    2e58:	ac460004 	sw	a2,4(v0)
    2e5c:	ac450000 	sw	a1,0(v0)
    2e60:	8d0202d0 	lw	v0,720(t0)
    2e64:	244e0008 	addiu	t6,v0,8
    2e68:	ad0e02d0 	sw	t6,720(t0)
    2e6c:	ac400004 	sw	zero,4(v0)
    2e70:	ac440000 	sw	a0,0(v0)
    2e74:	8d0202d0 	lw	v0,720(t0)
    2e78:	244f0008 	addiu	t7,v0,8
    2e7c:	ad0f02d0 	sw	t7,720(t0)
    2e80:	ac460004 	sw	a2,4(v0)
    2e84:	ac450000 	sw	a1,0(v0)
    2e88:	83a6007b 	lb	a2,123(sp)
    2e8c:	8d0202c0 	lw	v0,704(t0)
    2e90:	00063043 	sra	a2,a2,0x1
    2e94:	24580008 	addiu	t8,v0,8
    2e98:	24c600c0 	addiu	a2,a2,192
    2e9c:	ad1802c0 	sw	t8,704(t0)
    2ea0:	00063600 	sll	a2,a2,0x18
    2ea4:	00063603 	sra	a2,a2,0x18
    2ea8:	ac400004 	sw	zero,4(v0)
    2eac:	ac440000 	sw	a0,0(v0)
    2eb0:	8d0202c0 	lw	v0,704(t0)
    2eb4:	30c300ff 	andi	v1,a2,0xff
    2eb8:	00035e00 	sll	t3,v1,0x18
    2ebc:	00036400 	sll	t4,v1,0x10
    2ec0:	016c6825 	or	t5,t3,t4
    2ec4:	00037200 	sll	t6,v1,0x8
    2ec8:	24590008 	addiu	t9,v0,8
    2ecc:	01ae7825 	or	t7,t5,t6
    2ed0:	ad1902c0 	sw	t9,704(t0)
    2ed4:	35f80080 	ori	t8,t7,0x80
    2ed8:	ac580004 	sw	t8,4(v0)
    2edc:	ac450000 	sw	a1,0(v0)
    2ee0:	8fb90080 	lw	t9,128(sp)
    2ee4:	3c060000 	lui	a2,0x0
    2ee8:	24c602bc 	addiu	a2,a2,700
    2eec:	27a40064 	addiu	a0,sp,100
    2ef0:	0c000000 	jal	0 <func_800994A0>
    2ef4:	8f250000 	lw	a1,0(t9)
    2ef8:	8fa40080 	lw	a0,128(sp)
    2efc:	0c000000 	jal	0 <func_800994A0>
    2f00:	24050037 	li	a1,55
    2f04:	1040000d 	beqz	v0,2f3c <func_8009C0AC+0x330>
    2f08:	8fab0080 	lw	t3,128(sp)
    2f0c:	856200a4 	lh	v0,164(t3)
    2f10:	2401004f 	li	at,79
    2f14:	10410007 	beq	v0,at,2f34 <func_8009C0AC+0x328>
    2f18:	2401001a 	li	at,26
    2f1c:	10410005 	beq	v0,at,2f34 <func_8009C0AC+0x328>
    2f20:	2401000e 	li	at,14
    2f24:	10410003 	beq	v0,at,2f34 <func_8009C0AC+0x328>
    2f28:	2401000f 	li	at,15
    2f2c:	54410004 	bnel	v0,at,2f40 <func_8009C0AC+0x334>
    2f30:	8fbf0034 	lw	ra,52(sp)
    2f34:	0c000000 	jal	0 <func_800994A0>
    2f38:	8fa40080 	lw	a0,128(sp)
    2f3c:	8fbf0034 	lw	ra,52(sp)
    2f40:	27bd0080 	addiu	sp,sp,128
    2f44:	03e00008 	jr	ra
    2f48:	00000000 	nop

00002f4c <func_8009C3EC>:
    2f4c:	27bdff70 	addiu	sp,sp,-144
    2f50:	afbf003c 	sw	ra,60(sp)
    2f54:	afb00038 	sw	s0,56(sp)
    2f58:	afa40090 	sw	a0,144(sp)
    2f5c:	8c850000 	lw	a1,0(a0)
    2f60:	3c060000 	lui	a2,0x0
    2f64:	24c602d0 	addiu	a2,a2,720
    2f68:	27a40078 	addiu	a0,sp,120
    2f6c:	2407179a 	li	a3,6042
    2f70:	0c000000 	jal	0 <func_800994A0>
    2f74:	00a08025 	move	s0,a1
    2f78:	8faa0090 	lw	t2,144(sp)
    2f7c:	8e0202d0 	lw	v0,720(s0)
    2f80:	3c080001 	lui	t0,0x1
    2f84:	010a4021 	addu	t0,t0,t2
    2f88:	8d081de4 	lw	t0,7652(t0)
    2f8c:	3c18db06 	lui	t8,0xdb06
    2f90:	244f0008 	addiu	t7,v0,8
    2f94:	ae0f02d0 	sw	t7,720(s0)
    2f98:	37180020 	ori	t8,t8,0x20
    2f9c:	3c190000 	lui	t9,0x0
    2fa0:	ac580000 	sw	t8,0(v0)
    2fa4:	8f390010 	lw	t9,16(t9)
    2fa8:	3c040000 	lui	a0,0x0
    2fac:	3c180000 	lui	t8,0x0
    2fb0:	00195880 	sll	t3,t9,0x2
    2fb4:	008b2021 	addu	a0,a0,t3
    2fb8:	8c840000 	lw	a0,0(a0)
    2fbc:	3c0100ff 	lui	at,0xff
    2fc0:	3421ffff 	ori	at,at,0xffff
    2fc4:	00046900 	sll	t5,a0,0x4
    2fc8:	000d7702 	srl	t6,t5,0x1c
    2fcc:	000e7880 	sll	t7,t6,0x2
    2fd0:	030fc021 	addu	t8,t8,t7
    2fd4:	8f180000 	lw	t8,0(t8)
    2fd8:	00816024 	and	t4,a0,at
    2fdc:	3c018000 	lui	at,0x8000
    2fe0:	0198c821 	addu	t9,t4,t8
    2fe4:	03215821 	addu	t3,t9,at
    2fe8:	ac4b0004 	sw	t3,4(v0)
    2fec:	8e0202c0 	lw	v0,704(s0)
    2ff0:	3c0edb06 	lui	t6,0xdb06
    2ff4:	35ce0024 	ori	t6,t6,0x24
    2ff8:	244d0008 	addiu	t5,v0,8
    2ffc:	ae0d02c0 	sw	t5,704(s0)
    3000:	ac4e0000 	sw	t6,0(v0)
    3004:	8d440000 	lw	a0,0(t2)
    3008:	240f007f 	li	t7,127
    300c:	3103007f 	andi	v1,t0,0x7f
    3010:	01e33023 	subu	a2,t7,v1
    3014:	240d0020 	li	t5,32
    3018:	240b0020 	li	t3,32
    301c:	24190001 	li	t9,1
    3020:	24180020 	li	t8,32
    3024:	240c0020 	li	t4,32
    3028:	3107007f 	andi	a3,t0,0x7f
    302c:	afa70020 	sw	a3,32(sp)
    3030:	afa70048 	sw	a3,72(sp)
    3034:	afac0010 	sw	t4,16(sp)
    3038:	afb80014 	sw	t8,20(sp)
    303c:	afb90018 	sw	t9,24(sp)
    3040:	afab0024 	sw	t3,36(sp)
    3044:	afad0028 	sw	t5,40(sp)
    3048:	afa6004c 	sw	a2,76(sp)
    304c:	afa3001c 	sw	v1,28(sp)
    3050:	afa30050 	sw	v1,80(sp)
    3054:	00002825 	move	a1,zero
    3058:	0c000000 	jal	0 <func_800994A0>
    305c:	afa20070 	sw	v0,112(sp)
    3060:	8fa90070 	lw	t1,112(sp)
    3064:	8fa30050 	lw	v1,80(sp)
    3068:	8fa70048 	lw	a3,72(sp)
    306c:	8fa6004c 	lw	a2,76(sp)
    3070:	ad220004 	sw	v0,4(t1)
    3074:	8e0202d0 	lw	v0,720(s0)
    3078:	3c0fdb06 	lui	t7,0xdb06
    307c:	35ef0028 	ori	t7,t7,0x28
    3080:	244e0008 	addiu	t6,v0,8
    3084:	ae0e02d0 	sw	t6,720(s0)
    3088:	ac4f0000 	sw	t7,0(v0)
    308c:	8fac0090 	lw	t4,144(sp)
    3090:	240e0020 	li	t6,32
    3094:	24180020 	li	t8,32
    3098:	8d840000 	lw	a0,0(t4)
    309c:	24190020 	li	t9,32
    30a0:	240b0001 	li	t3,1
    30a4:	240d0020 	li	t5,32
    30a8:	afad0024 	sw	t5,36(sp)
    30ac:	afab0018 	sw	t3,24(sp)
    30b0:	afb90014 	sw	t9,20(sp)
    30b4:	afae0028 	sw	t6,40(sp)
    30b8:	afb80010 	sw	t8,16(sp)
    30bc:	00002825 	move	a1,zero
    30c0:	afa3001c 	sw	v1,28(sp)
    30c4:	afa70020 	sw	a3,32(sp)
    30c8:	0c000000 	jal	0 <func_800994A0>
    30cc:	afa2006c 	sw	v0,108(sp)
    30d0:	8fa8006c 	lw	t0,108(sp)
    30d4:	3c04e700 	lui	a0,0xe700
    30d8:	3c068080 	lui	a2,0x8080
    30dc:	ad020004 	sw	v0,4(t0)
    30e0:	8e0202c0 	lw	v0,704(s0)
    30e4:	34c68080 	ori	a2,a2,0x8080
    30e8:	3c05fb00 	lui	a1,0xfb00
    30ec:	244f0008 	addiu	t7,v0,8
    30f0:	ae0f02c0 	sw	t7,704(s0)
    30f4:	ac400004 	sw	zero,4(v0)
    30f8:	ac440000 	sw	a0,0(v0)
    30fc:	8e0202c0 	lw	v0,704(s0)
    3100:	240717bc 	li	a3,6076
    3104:	244c0008 	addiu	t4,v0,8
    3108:	ae0c02c0 	sw	t4,704(s0)
    310c:	ac460004 	sw	a2,4(v0)
    3110:	ac450000 	sw	a1,0(v0)
    3114:	8e0202d0 	lw	v0,720(s0)
    3118:	24580008 	addiu	t8,v0,8
    311c:	ae1802d0 	sw	t8,720(s0)
    3120:	ac400004 	sw	zero,4(v0)
    3124:	ac440000 	sw	a0,0(v0)
    3128:	8e0202d0 	lw	v0,720(s0)
    312c:	27a40078 	addiu	a0,sp,120
    3130:	24590008 	addiu	t9,v0,8
    3134:	ae1902d0 	sw	t9,720(s0)
    3138:	ac460004 	sw	a2,4(v0)
    313c:	ac450000 	sw	a1,0(v0)
    3140:	8fab0090 	lw	t3,144(sp)
    3144:	3c060000 	lui	a2,0x0
    3148:	24c602e4 	addiu	a2,a2,740
    314c:	0c000000 	jal	0 <func_800994A0>
    3150:	8d650000 	lw	a1,0(t3)
    3154:	8fbf003c 	lw	ra,60(sp)
    3158:	8fb00038 	lw	s0,56(sp)
    315c:	27bd0090 	addiu	sp,sp,144
    3160:	03e00008 	jr	ra
    3164:	00000000 	nop

00003168 <func_8009C608>:
    3168:	27bdff80 	addiu	sp,sp,-128
    316c:	afbf003c 	sw	ra,60(sp)
    3170:	afb10038 	sw	s1,56(sp)
    3174:	afb00034 	sw	s0,52(sp)
    3178:	8c850000 	lw	a1,0(a0)
    317c:	00808825 	move	s1,a0
    3180:	3c060000 	lui	a2,0x0
    3184:	24c602f8 	addiu	a2,a2,760
    3188:	27a40068 	addiu	a0,sp,104
    318c:	24071807 	li	a3,6151
    3190:	0c000000 	jal	0 <func_800994A0>
    3194:	00a08025 	move	s0,a1
    3198:	8e0202d0 	lw	v0,720(s0)
    319c:	3c080001 	lui	t0,0x1
    31a0:	01114021 	addu	t0,t0,s1
    31a4:	8d091de4 	lw	t1,7652(t0)
    31a8:	3c0fdb06 	lui	t7,0xdb06
    31ac:	244e0008 	addiu	t6,v0,8
    31b0:	ae0e02d0 	sw	t6,720(s0)
    31b4:	35ef0020 	ori	t7,t7,0x20
    31b8:	ac4f0000 	sw	t7,0(v0)
    31bc:	8e240000 	lw	a0,0(s1)
    31c0:	24180010 	li	t8,16
    31c4:	afb80010 	sw	t8,16(sp)
    31c8:	00002825 	move	a1,zero
    31cc:	24070100 	li	a3,256
    31d0:	afa20064 	sw	v0,100(sp)
    31d4:	afa90044 	sw	t1,68(sp)
    31d8:	afa9007c 	sw	t1,124(sp)
    31dc:	0c000000 	jal	0 <func_800994A0>
    31e0:	3126003f 	andi	a2,t1,0x3f
    31e4:	8fa30064 	lw	v1,100(sp)
    31e8:	8fa8007c 	lw	t0,124(sp)
    31ec:	3c0adb06 	lui	t2,0xdb06
    31f0:	ac620004 	sw	v0,4(v1)
    31f4:	8e0202d0 	lw	v0,720(s0)
    31f8:	354a0024 	ori	t2,t2,0x24
    31fc:	00087080 	sll	t6,t0,0x2
    3200:	24590008 	addiu	t9,v0,8
    3204:	ae1902d0 	sw	t9,720(s0)
    3208:	ac4a0000 	sw	t2,0(v0)
    320c:	8e240000 	lw	a0,0(s1)
    3210:	01c87023 	subu	t6,t6,t0
    3214:	000e70c0 	sll	t6,t6,0x3
    3218:	01c87021 	addu	t6,t6,t0
    321c:	00083900 	sll	a3,t0,0x4
    3220:	000e7040 	sll	t6,t6,0x1
    3224:	00e83823 	subu	a3,a3,t0
    3228:	00073880 	sll	a3,a3,0x2
    322c:	31cf07ff 	andi	t7,t6,0x7ff
    3230:	24190200 	li	t9,512
    3234:	240b0008 	li	t3,8
    3238:	240c0200 	li	t4,512
    323c:	240d0001 	li	t5,1
    3240:	24180008 	li	t8,8
    3244:	afb80024 	sw	t8,36(sp)
    3248:	afad0018 	sw	t5,24(sp)
    324c:	afac0014 	sw	t4,20(sp)
    3250:	afab0010 	sw	t3,16(sp)
    3254:	afb90028 	sw	t9,40(sp)
    3258:	afaf0020 	sw	t7,32(sp)
    325c:	30e707ff 	andi	a3,a3,0x7ff
    3260:	afa0001c 	sw	zero,28(sp)
    3264:	00002825 	move	a1,zero
    3268:	00003025 	move	a2,zero
    326c:	afa8007c 	sw	t0,124(sp)
    3270:	0c000000 	jal	0 <func_800994A0>
    3274:	afa20060 	sw	v0,96(sp)
    3278:	8fa30060 	lw	v1,96(sp)
    327c:	8fa8007c 	lw	t0,124(sp)
    3280:	3c0bdb06 	lui	t3,0xdb06
    3284:	ac620004 	sw	v0,4(v1)
    3288:	8e0202c0 	lw	v0,704(s0)
    328c:	356b0028 	ori	t3,t3,0x28
    3290:	240c007f 	li	t4,127
    3294:	244a0008 	addiu	t2,v0,8
    3298:	ae0a02c0 	sw	t2,704(s0)
    329c:	ac4b0000 	sw	t3,0(v0)
    32a0:	8e240000 	lw	a0,0(s1)
    32a4:	8fa30044 	lw	v1,68(sp)
    32a8:	240d0020 	li	t5,32
    32ac:	240e0020 	li	t6,32
    32b0:	240f0001 	li	t7,1
    32b4:	24180020 	li	t8,32
    32b8:	24190020 	li	t9,32
    32bc:	3063007f 	andi	v1,v1,0x7f
    32c0:	01833023 	subu	a2,t4,v1
    32c4:	afa3001c 	sw	v1,28(sp)
    32c8:	afb90028 	sw	t9,40(sp)
    32cc:	afb80024 	sw	t8,36(sp)
    32d0:	afaf0018 	sw	t7,24(sp)
    32d4:	afae0014 	sw	t6,20(sp)
    32d8:	afad0010 	sw	t5,16(sp)
    32dc:	afa00020 	sw	zero,32(sp)
    32e0:	00002825 	move	a1,zero
    32e4:	00003825 	move	a3,zero
    32e8:	afa8007c 	sw	t0,124(sp)
    32ec:	0c000000 	jal	0 <func_800994A0>
    32f0:	afa2005c 	sw	v0,92(sp)
    32f4:	8fa9005c 	lw	t1,92(sp)
    32f8:	8fa8007c 	lw	t0,124(sp)
    32fc:	3c0bdb06 	lui	t3,0xdb06
    3300:	ad220004 	sw	v0,4(t1)
    3304:	8e0202d0 	lw	v0,720(s0)
    3308:	356b002c 	ori	t3,t3,0x2c
    330c:	00086080 	sll	t4,t0,0x2
    3310:	244a0008 	addiu	t2,v0,8
    3314:	ae0a02d0 	sw	t2,720(s0)
    3318:	ac4b0000 	sw	t3,0(v0)
    331c:	8e240000 	lw	a0,0(s1)
    3320:	01886023 	subu	t4,t4,t0
    3324:	000c6040 	sll	t4,t4,0x1
    3328:	318d03ff 	andi	t5,t4,0x3ff
    332c:	0008c880 	sll	t9,t0,0x2
    3330:	240903ff 	li	t1,1023
    3334:	0328c823 	subu	t9,t9,t0
    3338:	332a03ff 	andi	t2,t9,0x3ff
    333c:	012d3823 	subu	a3,t1,t5
    3340:	240d0100 	li	t5,256
    3344:	012a5823 	subu	t3,t1,t2
    3348:	240c0010 	li	t4,16
    334c:	240e0010 	li	t6,16
    3350:	240f0100 	li	t7,256
    3354:	24180001 	li	t8,1
    3358:	afb80018 	sw	t8,24(sp)
    335c:	afaf0014 	sw	t7,20(sp)
    3360:	afae0010 	sw	t6,16(sp)
    3364:	afac0024 	sw	t4,36(sp)
    3368:	afab0020 	sw	t3,32(sp)
    336c:	afad0028 	sw	t5,40(sp)
    3370:	afa0001c 	sw	zero,28(sp)
    3374:	00002825 	move	a1,zero
    3378:	00003025 	move	a2,zero
    337c:	0c000000 	jal	0 <func_800994A0>
    3380:	afa20058 	sw	v0,88(sp)
    3384:	8fa30058 	lw	v1,88(sp)
    3388:	3c04e700 	lui	a0,0xe700
    338c:	3c068080 	lui	a2,0x8080
    3390:	ac620004 	sw	v0,4(v1)
    3394:	8e0202c0 	lw	v0,704(s0)
    3398:	34c68080 	ori	a2,a2,0x8080
    339c:	3c05fb00 	lui	a1,0xfb00
    33a0:	244e0008 	addiu	t6,v0,8
    33a4:	ae0e02c0 	sw	t6,704(s0)
    33a8:	ac400004 	sw	zero,4(v0)
    33ac:	ac440000 	sw	a0,0(v0)
    33b0:	8e0202c0 	lw	v0,704(s0)
    33b4:	2407182b 	li	a3,6187
    33b8:	244f0008 	addiu	t7,v0,8
    33bc:	ae0f02c0 	sw	t7,704(s0)
    33c0:	ac460004 	sw	a2,4(v0)
    33c4:	ac450000 	sw	a1,0(v0)
    33c8:	8e0202d0 	lw	v0,720(s0)
    33cc:	24580008 	addiu	t8,v0,8
    33d0:	ae1802d0 	sw	t8,720(s0)
    33d4:	ac400004 	sw	zero,4(v0)
    33d8:	ac440000 	sw	a0,0(v0)
    33dc:	8e0202d0 	lw	v0,720(s0)
    33e0:	27a40068 	addiu	a0,sp,104
    33e4:	24590008 	addiu	t9,v0,8
    33e8:	ae1902d0 	sw	t9,720(s0)
    33ec:	ac460004 	sw	a2,4(v0)
    33f0:	3c060000 	lui	a2,0x0
    33f4:	ac450000 	sw	a1,0(v0)
    33f8:	8e250000 	lw	a1,0(s1)
    33fc:	0c000000 	jal	0 <func_800994A0>
    3400:	24c6030c 	addiu	a2,a2,780
    3404:	8fbf003c 	lw	ra,60(sp)
    3408:	8fb00034 	lw	s0,52(sp)
    340c:	8fb10038 	lw	s1,56(sp)
    3410:	03e00008 	jr	ra
    3414:	27bd0080 	addiu	sp,sp,128

00003418 <func_8009C8B8>:
    3418:	27bdff80 	addiu	sp,sp,-128
    341c:	afbf003c 	sw	ra,60(sp)
    3420:	afb10038 	sw	s1,56(sp)
    3424:	afb00034 	sw	s0,52(sp)
    3428:	8c850000 	lw	a1,0(a0)
    342c:	00808825 	move	s1,a0
    3430:	3c060000 	lui	a2,0x0
    3434:	24c60320 	addiu	a2,a2,800
    3438:	27a40068 	addiu	a0,sp,104
    343c:	24071839 	li	a3,6201
    3440:	0c000000 	jal	0 <func_800994A0>
    3444:	00a08025 	move	s0,a1
    3448:	8e0202c0 	lw	v0,704(s0)
    344c:	3c090001 	lui	t1,0x1
    3450:	01314821 	addu	t1,t1,s1
    3454:	8d291de4 	lw	t1,7652(t1)
    3458:	3c0fdb06 	lui	t7,0xdb06
    345c:	244e0008 	addiu	t6,v0,8
    3460:	ae0e02c0 	sw	t6,704(s0)
    3464:	35ef0020 	ori	t7,t7,0x20
    3468:	ac4f0000 	sw	t7,0(v0)
    346c:	8e240000 	lw	a0,0(s1)
    3470:	24180020 	li	t8,32
    3474:	24190020 	li	t9,32
    3478:	240a0001 	li	t2,1
    347c:	240b0020 	li	t3,32
    3480:	240c0020 	li	t4,32
    3484:	3128007f 	andi	t0,t1,0x7f
    3488:	afa80020 	sw	t0,32(sp)
    348c:	afa80048 	sw	t0,72(sp)
    3490:	afac0028 	sw	t4,40(sp)
    3494:	afab0024 	sw	t3,36(sp)
    3498:	afaa0018 	sw	t2,24(sp)
    349c:	afb90014 	sw	t9,20(sp)
    34a0:	afb80010 	sw	t8,16(sp)
    34a4:	afa0001c 	sw	zero,28(sp)
    34a8:	00002825 	move	a1,zero
    34ac:	00003025 	move	a2,zero
    34b0:	00003825 	move	a3,zero
    34b4:	afa20064 	sw	v0,100(sp)
    34b8:	0c000000 	jal	0 <func_800994A0>
    34bc:	afa9007c 	sw	t1,124(sp)
    34c0:	8fa30064 	lw	v1,100(sp)
    34c4:	8fa70048 	lw	a3,72(sp)
    34c8:	3c0edb06 	lui	t6,0xdb06
    34cc:	ac620004 	sw	v0,4(v1)
    34d0:	8e0202d0 	lw	v0,720(s0)
    34d4:	35ce0028 	ori	t6,t6,0x28
    34d8:	240f007f 	li	t7,127
    34dc:	244d0008 	addiu	t5,v0,8
    34e0:	ae0d02d0 	sw	t5,720(s0)
    34e4:	ac4e0000 	sw	t6,0(v0)
    34e8:	8e240000 	lw	a0,0(s1)
    34ec:	8fa3007c 	lw	v1,124(sp)
    34f0:	24180020 	li	t8,32
    34f4:	24190020 	li	t9,32
    34f8:	240a0001 	li	t2,1
    34fc:	240b0020 	li	t3,32
    3500:	240c0020 	li	t4,32
    3504:	3063007f 	andi	v1,v1,0x7f
    3508:	01e33023 	subu	a2,t7,v1
    350c:	afa3001c 	sw	v1,28(sp)
    3510:	afac0028 	sw	t4,40(sp)
    3514:	afab0024 	sw	t3,36(sp)
    3518:	afaa0018 	sw	t2,24(sp)
    351c:	afb90014 	sw	t9,20(sp)
    3520:	afb80010 	sw	t8,16(sp)
    3524:	00002825 	move	a1,zero
    3528:	afa70020 	sw	a3,32(sp)
    352c:	0c000000 	jal	0 <func_800994A0>
    3530:	afa20060 	sw	v0,96(sp)
    3534:	8fa80060 	lw	t0,96(sp)
    3538:	3c0edb06 	lui	t6,0xdb06
    353c:	35ce0024 	ori	t6,t6,0x24
    3540:	ad020004 	sw	v0,4(t0)
    3544:	8e0202d0 	lw	v0,720(s0)
    3548:	240a00ff 	li	t2,255
    354c:	240b0040 	li	t3,64
    3550:	244d0008 	addiu	t5,v0,8
    3554:	ae0d02d0 	sw	t5,720(s0)
    3558:	ac4e0000 	sw	t6,0(v0)
    355c:	8faf007c 	lw	t7,124(sp)
    3560:	8e240000 	lw	a0,0(s1)
    3564:	afab0010 	sw	t3,16(sp)
    3568:	000fc080 	sll	t8,t7,0x2
    356c:	030fc021 	addu	t8,t8,t7
    3570:	0018c040 	sll	t8,t8,0x1
    3574:	331900ff 	andi	t9,t8,0xff
    3578:	01593023 	subu	a2,t2,t9
    357c:	00002825 	move	a1,zero
    3580:	24070020 	li	a3,32
    3584:	0c000000 	jal	0 <func_800994A0>
    3588:	afa2005c 	sw	v0,92(sp)
    358c:	8fa3005c 	lw	v1,92(sp)
    3590:	3c04e700 	lui	a0,0xe700
    3594:	3c068080 	lui	a2,0x8080
    3598:	ac620004 	sw	v0,4(v1)
    359c:	8e0202c0 	lw	v0,704(s0)
    35a0:	34c68080 	ori	a2,a2,0x8080
    35a4:	3c05fb00 	lui	a1,0xfb00
    35a8:	244c0008 	addiu	t4,v0,8
    35ac:	ae0c02c0 	sw	t4,704(s0)
    35b0:	ac400004 	sw	zero,4(v0)
    35b4:	ac440000 	sw	a0,0(v0)
    35b8:	8e0202c0 	lw	v0,704(s0)
    35bc:	24071858 	li	a3,6232
    35c0:	244d0008 	addiu	t5,v0,8
    35c4:	ae0d02c0 	sw	t5,704(s0)
    35c8:	ac460004 	sw	a2,4(v0)
    35cc:	ac450000 	sw	a1,0(v0)
    35d0:	8e0202d0 	lw	v0,720(s0)
    35d4:	244e0008 	addiu	t6,v0,8
    35d8:	ae0e02d0 	sw	t6,720(s0)
    35dc:	ac400004 	sw	zero,4(v0)
    35e0:	ac440000 	sw	a0,0(v0)
    35e4:	8e0202d0 	lw	v0,720(s0)
    35e8:	27a40068 	addiu	a0,sp,104
    35ec:	244f0008 	addiu	t7,v0,8
    35f0:	ae0f02d0 	sw	t7,720(s0)
    35f4:	ac460004 	sw	a2,4(v0)
    35f8:	3c060000 	lui	a2,0x0
    35fc:	ac450000 	sw	a1,0(v0)
    3600:	8e250000 	lw	a1,0(s1)
    3604:	0c000000 	jal	0 <func_800994A0>
    3608:	24c60334 	addiu	a2,a2,820
    360c:	8fbf003c 	lw	ra,60(sp)
    3610:	8fb00034 	lw	s0,52(sp)
    3614:	8fb10038 	lw	s1,56(sp)
    3618:	03e00008 	jr	ra
    361c:	27bd0080 	addiu	sp,sp,128

00003620 <func_8009CAC0>:
    3620:	27bdff90 	addiu	sp,sp,-112
    3624:	afbf0034 	sw	ra,52(sp)
    3628:	afa40070 	sw	a0,112(sp)
    362c:	8c850000 	lw	a1,0(a0)
    3630:	3c060000 	lui	a2,0x0
    3634:	24c60348 	addiu	a2,a2,840
    3638:	27a40058 	addiu	a0,sp,88
    363c:	24071869 	li	a3,6249
    3640:	0c000000 	jal	0 <func_800994A0>
    3644:	afa50068 	sw	a1,104(sp)
    3648:	8fa80068 	lw	t0,104(sp)
    364c:	8fab0070 	lw	t3,112(sp)
    3650:	3c090001 	lui	t1,0x1
    3654:	8d0202d0 	lw	v0,720(t0)
    3658:	012b4821 	addu	t1,t1,t3
    365c:	8d291de4 	lw	t1,7652(t1)
    3660:	3c18db06 	lui	t8,0xdb06
    3664:	244f0008 	addiu	t7,v0,8
    3668:	37180020 	ori	t8,t8,0x20
    366c:	ad0f02d0 	sw	t7,720(t0)
    3670:	ac580000 	sw	t8,0(v0)
    3674:	8d640000 	lw	a0,0(t3)
    3678:	24180020 	li	t8,32
    367c:	240f0020 	li	t7,32
    3680:	2419007f 	li	t9,127
    3684:	240c0020 	li	t4,32
    3688:	240d0020 	li	t5,32
    368c:	240e0001 	li	t6,1
    3690:	3123007f 	andi	v1,t1,0x7f
    3694:	3127007f 	andi	a3,t1,0x7f
    3698:	afa70020 	sw	a3,32(sp)
    369c:	03233023 	subu	a2,t9,v1
    36a0:	afa3001c 	sw	v1,28(sp)
    36a4:	afae0018 	sw	t6,24(sp)
    36a8:	afad0014 	sw	t5,20(sp)
    36ac:	afac0010 	sw	t4,16(sp)
    36b0:	afaf0024 	sw	t7,36(sp)
    36b4:	afb80028 	sw	t8,40(sp)
    36b8:	00002825 	move	a1,zero
    36bc:	afa80068 	sw	t0,104(sp)
    36c0:	0c000000 	jal	0 <func_800994A0>
    36c4:	afa20054 	sw	v0,84(sp)
    36c8:	8faa0054 	lw	t2,84(sp)
    36cc:	8fa80068 	lw	t0,104(sp)
    36d0:	3c04e700 	lui	a0,0xe700
    36d4:	ad420004 	sw	v0,4(t2)
    36d8:	8d0302c0 	lw	v1,704(t0)
    36dc:	3c068080 	lui	a2,0x8080
    36e0:	34c68080 	ori	a2,a2,0x8080
    36e4:	24790008 	addiu	t9,v1,8
    36e8:	ad1902c0 	sw	t9,704(t0)
    36ec:	ac600004 	sw	zero,4(v1)
    36f0:	ac640000 	sw	a0,0(v1)
    36f4:	8d0302c0 	lw	v1,704(t0)
    36f8:	3c05fb00 	lui	a1,0xfb00
    36fc:	24071878 	li	a3,6264
    3700:	246c0008 	addiu	t4,v1,8
    3704:	ad0c02c0 	sw	t4,704(t0)
    3708:	ac660004 	sw	a2,4(v1)
    370c:	ac650000 	sw	a1,0(v1)
    3710:	8d0202d0 	lw	v0,720(t0)
    3714:	244d0008 	addiu	t5,v0,8
    3718:	ad0d02d0 	sw	t5,720(t0)
    371c:	ac400004 	sw	zero,4(v0)
    3720:	ac440000 	sw	a0,0(v0)
    3724:	8d0202d0 	lw	v0,720(t0)
    3728:	27a40058 	addiu	a0,sp,88
    372c:	244e0008 	addiu	t6,v0,8
    3730:	ad0e02d0 	sw	t6,720(t0)
    3734:	ac460004 	sw	a2,4(v0)
    3738:	ac450000 	sw	a1,0(v0)
    373c:	8faf0070 	lw	t7,112(sp)
    3740:	3c060000 	lui	a2,0x0
    3744:	24c6035c 	addiu	a2,a2,860
    3748:	0c000000 	jal	0 <func_800994A0>
    374c:	8de50000 	lw	a1,0(t7)
    3750:	8fbf0034 	lw	ra,52(sp)
    3754:	27bd0070 	addiu	sp,sp,112
    3758:	03e00008 	jr	ra
    375c:	00000000 	nop

00003760 <func_8009CC00>:
    3760:	27bdff70 	addiu	sp,sp,-144
    3764:	afbf003c 	sw	ra,60(sp)
    3768:	afb00038 	sw	s0,56(sp)
    376c:	afa40090 	sw	a0,144(sp)
    3770:	8c850000 	lw	a1,0(a0)
    3774:	3c060000 	lui	a2,0x0
    3778:	24c60370 	addiu	a2,a2,880
    377c:	27a40078 	addiu	a0,sp,120
    3780:	24071892 	li	a3,6290
    3784:	0c000000 	jal	0 <func_800994A0>
    3788:	00a08025 	move	s0,a1
    378c:	8faa0090 	lw	t2,144(sp)
    3790:	8e0202d0 	lw	v0,720(s0)
    3794:	3c080001 	lui	t0,0x1
    3798:	010a4021 	addu	t0,t0,t2
    379c:	8d081de4 	lw	t0,7652(t0)
    37a0:	3c18db06 	lui	t8,0xdb06
    37a4:	244f0008 	addiu	t7,v0,8
    37a8:	ae0f02d0 	sw	t7,720(s0)
    37ac:	37180020 	ori	t8,t8,0x20
    37b0:	3c190000 	lui	t9,0x0
    37b4:	ac580000 	sw	t8,0(v0)
    37b8:	8f390010 	lw	t9,16(t9)
    37bc:	3c040000 	lui	a0,0x0
    37c0:	3c180000 	lui	t8,0x0
    37c4:	00195880 	sll	t3,t9,0x2
    37c8:	008b2021 	addu	a0,a0,t3
    37cc:	8c840000 	lw	a0,0(a0)
    37d0:	3c0100ff 	lui	at,0xff
    37d4:	3421ffff 	ori	at,at,0xffff
    37d8:	00046900 	sll	t5,a0,0x4
    37dc:	000d7702 	srl	t6,t5,0x1c
    37e0:	000e7880 	sll	t7,t6,0x2
    37e4:	030fc021 	addu	t8,t8,t7
    37e8:	8f180000 	lw	t8,0(t8)
    37ec:	00816024 	and	t4,a0,at
    37f0:	3c018000 	lui	at,0x8000
    37f4:	0198c821 	addu	t9,t4,t8
    37f8:	03215821 	addu	t3,t9,at
    37fc:	ac4b0004 	sw	t3,4(v0)
    3800:	8e0202c0 	lw	v0,704(s0)
    3804:	3c0edb06 	lui	t6,0xdb06
    3808:	35ce0024 	ori	t6,t6,0x24
    380c:	244d0008 	addiu	t5,v0,8
    3810:	ae0d02c0 	sw	t5,704(s0)
    3814:	ac4e0000 	sw	t6,0(v0)
    3818:	8d440000 	lw	a0,0(t2)
    381c:	240f007f 	li	t7,127
    3820:	3103007f 	andi	v1,t0,0x7f
    3824:	01e33023 	subu	a2,t7,v1
    3828:	240d0020 	li	t5,32
    382c:	240b0020 	li	t3,32
    3830:	24190001 	li	t9,1
    3834:	24180020 	li	t8,32
    3838:	240c0020 	li	t4,32
    383c:	3107007f 	andi	a3,t0,0x7f
    3840:	afa70020 	sw	a3,32(sp)
    3844:	afa70048 	sw	a3,72(sp)
    3848:	afac0010 	sw	t4,16(sp)
    384c:	afb80014 	sw	t8,20(sp)
    3850:	afb90018 	sw	t9,24(sp)
    3854:	afab0024 	sw	t3,36(sp)
    3858:	afad0028 	sw	t5,40(sp)
    385c:	afa6004c 	sw	a2,76(sp)
    3860:	afa3001c 	sw	v1,28(sp)
    3864:	afa30050 	sw	v1,80(sp)
    3868:	00002825 	move	a1,zero
    386c:	0c000000 	jal	0 <func_800994A0>
    3870:	afa20070 	sw	v0,112(sp)
    3874:	8fa90070 	lw	t1,112(sp)
    3878:	8fa30050 	lw	v1,80(sp)
    387c:	8fa70048 	lw	a3,72(sp)
    3880:	8fa6004c 	lw	a2,76(sp)
    3884:	ad220004 	sw	v0,4(t1)
    3888:	8e0202d0 	lw	v0,720(s0)
    388c:	3c0fdb06 	lui	t7,0xdb06
    3890:	35ef0028 	ori	t7,t7,0x28
    3894:	244e0008 	addiu	t6,v0,8
    3898:	ae0e02d0 	sw	t6,720(s0)
    389c:	ac4f0000 	sw	t7,0(v0)
    38a0:	8fac0090 	lw	t4,144(sp)
    38a4:	240e0020 	li	t6,32
    38a8:	24180020 	li	t8,32
    38ac:	8d840000 	lw	a0,0(t4)
    38b0:	24190020 	li	t9,32
    38b4:	240b0001 	li	t3,1
    38b8:	240d0020 	li	t5,32
    38bc:	afad0024 	sw	t5,36(sp)
    38c0:	afab0018 	sw	t3,24(sp)
    38c4:	afb90014 	sw	t9,20(sp)
    38c8:	afae0028 	sw	t6,40(sp)
    38cc:	afb80010 	sw	t8,16(sp)
    38d0:	00002825 	move	a1,zero
    38d4:	afa3001c 	sw	v1,28(sp)
    38d8:	afa70020 	sw	a3,32(sp)
    38dc:	0c000000 	jal	0 <func_800994A0>
    38e0:	afa2006c 	sw	v0,108(sp)
    38e4:	8fa8006c 	lw	t0,108(sp)
    38e8:	3c04e700 	lui	a0,0xe700
    38ec:	3c068080 	lui	a2,0x8080
    38f0:	ad020004 	sw	v0,4(t0)
    38f4:	8e0202c0 	lw	v0,704(s0)
    38f8:	34c68080 	ori	a2,a2,0x8080
    38fc:	3c05fb00 	lui	a1,0xfb00
    3900:	244f0008 	addiu	t7,v0,8
    3904:	ae0f02c0 	sw	t7,704(s0)
    3908:	ac400004 	sw	zero,4(v0)
    390c:	ac440000 	sw	a0,0(v0)
    3910:	8e0202c0 	lw	v0,704(s0)
    3914:	240718b0 	li	a3,6320
    3918:	244c0008 	addiu	t4,v0,8
    391c:	ae0c02c0 	sw	t4,704(s0)
    3920:	ac460004 	sw	a2,4(v0)
    3924:	ac450000 	sw	a1,0(v0)
    3928:	8e0202d0 	lw	v0,720(s0)
    392c:	24580008 	addiu	t8,v0,8
    3930:	ae1802d0 	sw	t8,720(s0)
    3934:	ac400004 	sw	zero,4(v0)
    3938:	ac440000 	sw	a0,0(v0)
    393c:	8e0202d0 	lw	v0,720(s0)
    3940:	27a40078 	addiu	a0,sp,120
    3944:	24590008 	addiu	t9,v0,8
    3948:	ae1902d0 	sw	t9,720(s0)
    394c:	ac460004 	sw	a2,4(v0)
    3950:	ac450000 	sw	a1,0(v0)
    3954:	8fab0090 	lw	t3,144(sp)
    3958:	3c060000 	lui	a2,0x0
    395c:	24c60384 	addiu	a2,a2,900
    3960:	0c000000 	jal	0 <func_800994A0>
    3964:	8d650000 	lw	a1,0(t3)
    3968:	8fbf003c 	lw	ra,60(sp)
    396c:	8fb00038 	lw	s0,56(sp)
    3970:	27bd0090 	addiu	sp,sp,144
    3974:	03e00008 	jr	ra
    3978:	00000000 	nop

0000397c <Gfx_TwoTexScrollPrimColor>:
    397c:	27bdffe8 	addiu	sp,sp,-24
    3980:	afbf0014 	sw	ra,20(sp)
    3984:	afa5001c 	sw	a1,28(sp)
    3988:	24050050 	li	a1,80
    398c:	afa60020 	sw	a2,32(sp)
    3990:	0c000000 	jal	0 <func_800994A0>
    3994:	afa70024 	sw	a3,36(sp)
    3998:	8fa60020 	lw	a2,32(sp)
    399c:	8fa70024 	lw	a3,36(sp)
    39a0:	8fa30034 	lw	v1,52(sp)
    39a4:	30c607ff 	andi	a2,a2,0x7ff
    39a8:	30ce0fff 	andi	t6,a2,0xfff
    39ac:	8fa40038 	lw	a0,56(sp)
    39b0:	000e7b00 	sll	t7,t6,0xc
    39b4:	3c09f200 	lui	t1,0xf200
    39b8:	30e707ff 	andi	a3,a3,0x7ff
    39bc:	30f90fff 	andi	t9,a3,0xfff
    39c0:	01e9c025 	or	t8,t7,t1
    39c4:	3c08e800 	lui	t0,0xe800
    39c8:	03195025 	or	t2,t8,t9
    39cc:	ac480000 	sw	t0,0(v0)
    39d0:	ac400004 	sw	zero,4(v0)
    39d4:	ac4a0008 	sw	t2,8(v0)
    39d8:	8fae0028 	lw	t6,40(sp)
    39dc:	8fab001c 	lw	t3,28(sp)
    39e0:	306307ff 	andi	v1,v1,0x7ff
    39e4:	25cfffff 	addiu	t7,t6,-1
    39e8:	8fae002c 	lw	t6,44(sp)
    39ec:	000fc080 	sll	t8,t7,0x2
    39f0:	00d8c821 	addu	t9,a2,t8
    39f4:	316c0007 	andi	t4,t3,0x7
    39f8:	332a0fff 	andi	t2,t9,0xfff
    39fc:	000a5b00 	sll	t3,t2,0xc
    3a00:	000c6e00 	sll	t5,t4,0x18
    3a04:	25cfffff 	addiu	t7,t6,-1
    3a08:	000fc080 	sll	t8,t7,0x2
    3a0c:	01ab6025 	or	t4,t5,t3
    3a10:	00f8c821 	addu	t9,a3,t8
    3a14:	306b0fff 	andi	t3,v1,0xfff
    3a18:	332a0fff 	andi	t2,t9,0xfff
    3a1c:	000b7300 	sll	t6,t3,0xc
    3a20:	308407ff 	andi	a0,a0,0x7ff
    3a24:	30980fff 	andi	t8,a0,0xfff
    3a28:	01c97825 	or	t7,t6,t1
    3a2c:	018a6825 	or	t5,t4,t2
    3a30:	01f8c825 	or	t9,t7,t8
    3a34:	ac4d000c 	sw	t5,12(v0)
    3a38:	ac400014 	sw	zero,20(v0)
    3a3c:	ac480010 	sw	t0,16(v0)
    3a40:	ac590018 	sw	t9,24(v0)
    3a44:	8fab003c 	lw	t3,60(sp)
    3a48:	8fac0030 	lw	t4,48(sp)
    3a4c:	256effff 	addiu	t6,t3,-1
    3a50:	8fab0040 	lw	t3,64(sp)
    3a54:	000e7880 	sll	t7,t6,0x2
    3a58:	006fc021 	addu	t8,v1,t7
    3a5c:	318a0007 	andi	t2,t4,0x7
    3a60:	33190fff 	andi	t9,t8,0xfff
    3a64:	256effff 	addiu	t6,t3,-1
    3a68:	000e7880 	sll	t7,t6,0x2
    3a6c:	00196300 	sll	t4,t9,0xc
    3a70:	000a6e00 	sll	t5,t2,0x18
    3a74:	01ac5025 	or	t2,t5,t4
    3a78:	008fc021 	addu	t8,a0,t7
    3a7c:	33190fff 	andi	t9,t8,0xfff
    3a80:	01596825 	or	t5,t2,t9
    3a84:	3c0cfa00 	lui	t4,0xfa00
    3a88:	ac4d001c 	sw	t5,28(v0)
    3a8c:	ac4c0020 	sw	t4,32(v0)
    3a90:	8fb80048 	lw	t8,72(sp)
    3a94:	8fae0044 	lw	t6,68(sp)
    3a98:	8fac004c 	lw	t4,76(sp)
    3a9c:	330a00ff 	andi	t2,t8,0xff
    3aa0:	000acc00 	sll	t9,t2,0x10
    3aa4:	8faa0050 	lw	t2,80(sp)
    3aa8:	000e7e00 	sll	t7,t6,0x18
    3aac:	01f96825 	or	t5,t7,t9
    3ab0:	318b00ff 	andi	t3,t4,0xff
    3ab4:	000b7200 	sll	t6,t3,0x8
    3ab8:	01aec025 	or	t8,t5,t6
    3abc:	314f00ff 	andi	t7,t2,0xff
    3ac0:	030fc825 	or	t9,t8,t7
    3ac4:	3c0cdf00 	lui	t4,0xdf00
    3ac8:	ac590024 	sw	t9,36(v0)
    3acc:	ac4c0028 	sw	t4,40(v0)
    3ad0:	ac40002c 	sw	zero,44(v0)
    3ad4:	8fbf0014 	lw	ra,20(sp)
    3ad8:	27bd0018 	addiu	sp,sp,24
    3adc:	03e00008 	jr	ra
    3ae0:	00000000 	nop

00003ae4 <func_8009CF84>:
    3ae4:	27bdff80 	addiu	sp,sp,-128
    3ae8:	afbf0044 	sw	ra,68(sp)
    3aec:	afa40080 	sw	a0,128(sp)
    3af0:	8c850000 	lw	a1,0(a0)
    3af4:	3c060000 	lui	a2,0x0
    3af8:	24c60398 	addiu	a2,a2,920
    3afc:	27a40068 	addiu	a0,sp,104
    3b00:	24071921 	li	a3,6433
    3b04:	0c000000 	jal	0 <func_800994A0>
    3b08:	afa50078 	sw	a1,120(sp)
    3b0c:	8fa80078 	lw	t0,120(sp)
    3b10:	8fac0080 	lw	t4,128(sp)
    3b14:	3c010001 	lui	at,0x1
    3b18:	8d0202d0 	lw	v0,720(t0)
    3b1c:	01815021 	addu	t2,t4,at
    3b20:	8d491de4 	lw	t1,7652(t2)
    3b24:	3c18db06 	lui	t8,0xdb06
    3b28:	244f0008 	addiu	t7,v0,8
    3b2c:	37180020 	ori	t8,t8,0x20
    3b30:	ad0f02d0 	sw	t7,720(t0)
    3b34:	ac580000 	sw	t8,0(v0)
    3b38:	8d840000 	lw	a0,0(t4)
    3b3c:	240f0001 	li	t7,1
    3b40:	2419007f 	li	t9,127
    3b44:	240d0020 	li	t5,32
    3b48:	240e0020 	li	t6,32
    3b4c:	3123007f 	andi	v1,t1,0x7f
    3b50:	03233023 	subu	a2,t9,v1
    3b54:	afae0014 	sw	t6,20(sp)
    3b58:	afad0010 	sw	t5,16(sp)
    3b5c:	afaf0018 	sw	t7,24(sp)
    3b60:	240f00ff 	li	t7,255
    3b64:	240d00ff 	li	t5,255
    3b68:	240e00ff 	li	t6,255
    3b6c:	24190020 	li	t9,32
    3b70:	24180020 	li	t8,32
    3b74:	3127007f 	andi	a3,t1,0x7f
    3b78:	afa70020 	sw	a3,32(sp)
    3b7c:	afb80024 	sw	t8,36(sp)
    3b80:	afb90028 	sw	t9,40(sp)
    3b84:	afae0030 	sw	t6,48(sp)
    3b88:	afad002c 	sw	t5,44(sp)
    3b8c:	afaf0034 	sw	t7,52(sp)
    3b90:	afa3001c 	sw	v1,28(sp)
    3b94:	85581d30 	lh	t8,7472(t2)
    3b98:	00002825 	move	a1,zero
    3b9c:	afa80078 	sw	t0,120(sp)
    3ba0:	2719007f 	addiu	t9,t8,127
    3ba4:	afb90038 	sw	t9,56(sp)
    3ba8:	0c000000 	jal	0 <func_800994A0>
    3bac:	afa20064 	sw	v0,100(sp)
    3bb0:	8fab0064 	lw	t3,100(sp)
    3bb4:	8fa80078 	lw	t0,120(sp)
    3bb8:	3c04e700 	lui	a0,0xe700
    3bbc:	ad620004 	sw	v0,4(t3)
    3bc0:	8d0302c0 	lw	v1,704(t0)
    3bc4:	3c068080 	lui	a2,0x8080
    3bc8:	34c68080 	ori	a2,a2,0x8080
    3bcc:	246d0008 	addiu	t5,v1,8
    3bd0:	ad0d02c0 	sw	t5,704(t0)
    3bd4:	ac600004 	sw	zero,4(v1)
    3bd8:	ac640000 	sw	a0,0(v1)
    3bdc:	8d0302c0 	lw	v1,704(t0)
    3be0:	3c05fb00 	lui	a1,0xfb00
    3be4:	24071931 	li	a3,6449
    3be8:	246e0008 	addiu	t6,v1,8
    3bec:	ad0e02c0 	sw	t6,704(t0)
    3bf0:	ac660004 	sw	a2,4(v1)
    3bf4:	ac650000 	sw	a1,0(v1)
    3bf8:	8d0202d0 	lw	v0,720(t0)
    3bfc:	244f0008 	addiu	t7,v0,8
    3c00:	ad0f02d0 	sw	t7,720(t0)
    3c04:	ac400004 	sw	zero,4(v0)
    3c08:	ac440000 	sw	a0,0(v0)
    3c0c:	8d0202d0 	lw	v0,720(t0)
    3c10:	27a40068 	addiu	a0,sp,104
    3c14:	24580008 	addiu	t8,v0,8
    3c18:	ad1802d0 	sw	t8,720(t0)
    3c1c:	ac460004 	sw	a2,4(v0)
    3c20:	ac450000 	sw	a1,0(v0)
    3c24:	8fb90080 	lw	t9,128(sp)
    3c28:	3c060000 	lui	a2,0x0
    3c2c:	24c603ac 	addiu	a2,a2,940
    3c30:	0c000000 	jal	0 <func_800994A0>
    3c34:	8f250000 	lw	a1,0(t9)
    3c38:	8fbf0044 	lw	ra,68(sp)
    3c3c:	27bd0080 	addiu	sp,sp,128
    3c40:	03e00008 	jr	ra
    3c44:	00000000 	nop

00003c48 <func_8009D0E8>:
    3c48:	27bdff80 	addiu	sp,sp,-128
    3c4c:	afbf003c 	sw	ra,60(sp)
    3c50:	afb10038 	sw	s1,56(sp)
    3c54:	afb00034 	sw	s0,52(sp)
    3c58:	8c850000 	lw	a1,0(a0)
    3c5c:	00808825 	move	s1,a0
    3c60:	3c060000 	lui	a2,0x0
    3c64:	24c603c0 	addiu	a2,a2,960
    3c68:	27a40068 	addiu	a0,sp,104
    3c6c:	2407193f 	li	a3,6463
    3c70:	0c000000 	jal	0 <func_800994A0>
    3c74:	00a08025 	move	s0,a1
    3c78:	8e0202d0 	lw	v0,720(s0)
    3c7c:	3c080001 	lui	t0,0x1
    3c80:	01114021 	addu	t0,t0,s1
    3c84:	8d081de4 	lw	t0,7652(t0)
    3c88:	3c0fdb06 	lui	t7,0xdb06
    3c8c:	244e0008 	addiu	t6,v0,8
    3c90:	ae0e02d0 	sw	t6,720(s0)
    3c94:	35ef0020 	ori	t7,t7,0x20
    3c98:	ac4f0000 	sw	t7,0(v0)
    3c9c:	8e240000 	lw	a0,0(s1)
    3ca0:	0008c080 	sll	t8,t0,0x2
    3ca4:	3319007f 	andi	t9,t8,0x7f
    3ca8:	2409007f 	li	t1,127
    3cac:	240a0020 	li	t2,32
    3cb0:	afaa0010 	sw	t2,16(sp)
    3cb4:	01392823 	subu	a1,t1,t9
    3cb8:	00003025 	move	a2,zero
    3cbc:	24070020 	li	a3,32
    3cc0:	afa20064 	sw	v0,100(sp)
    3cc4:	0c000000 	jal	0 <func_800994A0>
    3cc8:	afa8007c 	sw	t0,124(sp)
    3ccc:	8fa30064 	lw	v1,100(sp)
    3cd0:	3c0cdb06 	lui	t4,0xdb06
    3cd4:	358c0024 	ori	t4,t4,0x24
    3cd8:	ac620004 	sw	v0,4(v1)
    3cdc:	8e0202c0 	lw	v0,704(s0)
    3ce0:	240d0010 	li	t5,16
    3ce4:	00002825 	move	a1,zero
    3ce8:	244b0008 	addiu	t3,v0,8
    3cec:	ae0b02c0 	sw	t3,704(s0)
    3cf0:	ac4c0000 	sw	t4,0(v0)
    3cf4:	8fa6007c 	lw	a2,124(sp)
    3cf8:	8e240000 	lw	a0,0(s1)
    3cfc:	afad0010 	sw	t5,16(sp)
    3d00:	00c00821 	move	at,a2
    3d04:	00063080 	sll	a2,a2,0x2
    3d08:	00c13021 	addu	a2,a2,at
    3d0c:	30c6003f 	andi	a2,a2,0x3f
    3d10:	24070010 	li	a3,16
    3d14:	0c000000 	jal	0 <func_800994A0>
    3d18:	afa20060 	sw	v0,96(sp)
    3d1c:	8fa30060 	lw	v1,96(sp)
    3d20:	3c0fdb06 	lui	t7,0xdb06
    3d24:	35ef0028 	ori	t7,t7,0x28
    3d28:	ac620004 	sw	v0,4(v1)
    3d2c:	8e0202c0 	lw	v0,704(s0)
    3d30:	240a003f 	li	t2,63
    3d34:	240b0010 	li	t3,16
    3d38:	244e0008 	addiu	t6,v0,8
    3d3c:	ae0e02c0 	sw	t6,704(s0)
    3d40:	ac4f0000 	sw	t7,0(v0)
    3d44:	8fb8007c 	lw	t8,124(sp)
    3d48:	8e240000 	lw	a0,0(s1)
    3d4c:	afab0010 	sw	t3,16(sp)
    3d50:	00184840 	sll	t1,t8,0x1
    3d54:	3139003f 	andi	t9,t1,0x3f
    3d58:	01593023 	subu	a2,t2,t9
    3d5c:	00002825 	move	a1,zero
    3d60:	24070010 	li	a3,16
    3d64:	0c000000 	jal	0 <func_800994A0>
    3d68:	afa2005c 	sw	v0,92(sp)
    3d6c:	8fa3005c 	lw	v1,92(sp)
    3d70:	3c0ddb06 	lui	t5,0xdb06
    3d74:	35ad002c 	ori	t5,t5,0x2c
    3d78:	ac620004 	sw	v0,4(v1)
    3d7c:	8e0202d0 	lw	v0,720(s0)
    3d80:	2409007f 	li	t1,127
    3d84:	240a0020 	li	t2,32
    3d88:	244c0008 	addiu	t4,v0,8
    3d8c:	ae0c02d0 	sw	t4,720(s0)
    3d90:	ac4d0000 	sw	t5,0(v0)
    3d94:	8e240000 	lw	a0,0(s1)
    3d98:	8fae007c 	lw	t6,124(sp)
    3d9c:	240d0020 	li	t5,32
    3da0:	240c0020 	li	t4,32
    3da4:	000e7880 	sll	t7,t6,0x2
    3da8:	01ee7823 	subu	t7,t7,t6
    3dac:	31f8007f 	andi	t8,t7,0x7f
    3db0:	24190020 	li	t9,32
    3db4:	240b0001 	li	t3,1
    3db8:	afab0018 	sw	t3,24(sp)
    3dbc:	afb90014 	sw	t9,20(sp)
    3dc0:	01383823 	subu	a3,t1,t8
    3dc4:	afac0024 	sw	t4,36(sp)
    3dc8:	afad0028 	sw	t5,40(sp)
    3dcc:	afa00020 	sw	zero,32(sp)
    3dd0:	afa0001c 	sw	zero,28(sp)
    3dd4:	afaa0010 	sw	t2,16(sp)
    3dd8:	00002825 	move	a1,zero
    3ddc:	00003025 	move	a2,zero
    3de0:	0c000000 	jal	0 <func_800994A0>
    3de4:	afa20058 	sw	v0,88(sp)
    3de8:	8fa30058 	lw	v1,88(sp)
    3dec:	3c04e700 	lui	a0,0xe700
    3df0:	3c068080 	lui	a2,0x8080
    3df4:	ac620004 	sw	v0,4(v1)
    3df8:	8e0202c0 	lw	v0,704(s0)
    3dfc:	34c68080 	ori	a2,a2,0x8080
    3e00:	3c05fb00 	lui	a1,0xfb00
    3e04:	244e0008 	addiu	t6,v0,8
    3e08:	ae0e02c0 	sw	t6,704(s0)
    3e0c:	ac400004 	sw	zero,4(v0)
    3e10:	ac440000 	sw	a0,0(v0)
    3e14:	8e0202c0 	lw	v0,704(s0)
    3e18:	2407195b 	li	a3,6491
    3e1c:	244f0008 	addiu	t7,v0,8
    3e20:	ae0f02c0 	sw	t7,704(s0)
    3e24:	ac460004 	sw	a2,4(v0)
    3e28:	ac450000 	sw	a1,0(v0)
    3e2c:	8e0202d0 	lw	v0,720(s0)
    3e30:	24490008 	addiu	t1,v0,8
    3e34:	ae0902d0 	sw	t1,720(s0)
    3e38:	ac400004 	sw	zero,4(v0)
    3e3c:	ac440000 	sw	a0,0(v0)
    3e40:	8e0202d0 	lw	v0,720(s0)
    3e44:	27a40068 	addiu	a0,sp,104
    3e48:	24580008 	addiu	t8,v0,8
    3e4c:	ae1802d0 	sw	t8,720(s0)
    3e50:	ac460004 	sw	a2,4(v0)
    3e54:	3c060000 	lui	a2,0x0
    3e58:	ac450000 	sw	a1,0(v0)
    3e5c:	8e250000 	lw	a1,0(s1)
    3e60:	0c000000 	jal	0 <func_800994A0>
    3e64:	24c603d4 	addiu	a2,a2,980
    3e68:	8fbf003c 	lw	ra,60(sp)
    3e6c:	8fb00034 	lw	s0,52(sp)
    3e70:	8fb10038 	lw	s1,56(sp)
    3e74:	03e00008 	jr	ra
    3e78:	27bd0080 	addiu	sp,sp,128

00003e7c <func_8009D31C>:
    3e7c:	27bdffb0 	addiu	sp,sp,-80
    3e80:	afbf0014 	sw	ra,20(sp)
    3e84:	afa40050 	sw	a0,80(sp)
    3e88:	8c850000 	lw	a1,0(a0)
    3e8c:	3c060000 	lui	a2,0x0
    3e90:	24c603e8 	addiu	a2,a2,1000
    3e94:	27a4003c 	addiu	a0,sp,60
    3e98:	24071973 	li	a3,6515
    3e9c:	0c000000 	jal	0 <func_800994A0>
    3ea0:	afa5004c 	sw	a1,76(sp)
    3ea4:	8fa8004c 	lw	t0,76(sp)
    3ea8:	3c18db06 	lui	t8,0xdb06
    3eac:	37180020 	ori	t8,t8,0x20
    3eb0:	8d0202d0 	lw	v0,720(t0)
    3eb4:	3c190000 	lui	t9,0x0
    3eb8:	3c040000 	lui	a0,0x0
    3ebc:	244f0008 	addiu	t7,v0,8
    3ec0:	ad0f02d0 	sw	t7,720(t0)
    3ec4:	ac580000 	sw	t8,0(v0)
    3ec8:	8f390010 	lw	t9,16(t9)
    3ecc:	3c0e0000 	lui	t6,0x0
    3ed0:	3c0100ff 	lui	at,0xff
    3ed4:	00194880 	sll	t1,t9,0x2
    3ed8:	00892021 	addu	a0,a0,t1
    3edc:	8c840000 	lw	a0,0(a0)
    3ee0:	3421ffff 	ori	at,at,0xffff
    3ee4:	3c068080 	lui	a2,0x8080
    3ee8:	00045900 	sll	t3,a0,0x4
    3eec:	000b6702 	srl	t4,t3,0x1c
    3ef0:	000c6880 	sll	t5,t4,0x2
    3ef4:	01cd7021 	addu	t6,t6,t5
    3ef8:	8dce0000 	lw	t6,0(t6)
    3efc:	00815024 	and	t2,a0,at
    3f00:	3c018000 	lui	at,0x8000
    3f04:	014e7821 	addu	t7,t2,t6
    3f08:	01e1c021 	addu	t8,t7,at
    3f0c:	ac580004 	sw	t8,4(v0)
    3f10:	8d0302c0 	lw	v1,704(t0)
    3f14:	3c04e700 	lui	a0,0xe700
    3f18:	34c68080 	ori	a2,a2,0x8080
    3f1c:	24790008 	addiu	t9,v1,8
    3f20:	ad1902c0 	sw	t9,704(t0)
    3f24:	ac600004 	sw	zero,4(v1)
    3f28:	ac640000 	sw	a0,0(v1)
    3f2c:	8d0302c0 	lw	v1,704(t0)
    3f30:	3c05fb00 	lui	a1,0xfb00
    3f34:	24071980 	li	a3,6528
    3f38:	24690008 	addiu	t1,v1,8
    3f3c:	ad0902c0 	sw	t1,704(t0)
    3f40:	ac660004 	sw	a2,4(v1)
    3f44:	ac650000 	sw	a1,0(v1)
    3f48:	8d0202d0 	lw	v0,720(t0)
    3f4c:	244b0008 	addiu	t3,v0,8
    3f50:	ad0b02d0 	sw	t3,720(t0)
    3f54:	ac400004 	sw	zero,4(v0)
    3f58:	ac440000 	sw	a0,0(v0)
    3f5c:	8d0202d0 	lw	v0,720(t0)
    3f60:	27a4003c 	addiu	a0,sp,60
    3f64:	244c0008 	addiu	t4,v0,8
    3f68:	ad0c02d0 	sw	t4,720(t0)
    3f6c:	ac460004 	sw	a2,4(v0)
    3f70:	ac450000 	sw	a1,0(v0)
    3f74:	8fad0050 	lw	t5,80(sp)
    3f78:	3c060000 	lui	a2,0x0
    3f7c:	24c603fc 	addiu	a2,a2,1020
    3f80:	0c000000 	jal	0 <func_800994A0>
    3f84:	8da50000 	lw	a1,0(t5)
    3f88:	8fbf0014 	lw	ra,20(sp)
    3f8c:	27bd0050 	addiu	sp,sp,80
    3f90:	03e00008 	jr	ra
    3f94:	00000000 	nop

00003f98 <func_8009D438>:
    3f98:	27bdffb0 	addiu	sp,sp,-80
    3f9c:	afbf0014 	sw	ra,20(sp)
    3fa0:	afa40050 	sw	a0,80(sp)
    3fa4:	8c850000 	lw	a1,0(a0)
    3fa8:	3c060000 	lui	a2,0x0
    3fac:	24c60410 	addiu	a2,a2,1040
    3fb0:	27a40038 	addiu	a0,sp,56
    3fb4:	240719a0 	li	a3,6560
    3fb8:	0c000000 	jal	0 <func_800994A0>
    3fbc:	afa50048 	sw	a1,72(sp)
    3fc0:	3c020000 	lui	v0,0x0
    3fc4:	24420000 	addiu	v0,v0,0
    3fc8:	8c4f0004 	lw	t7,4(v0)
    3fcc:	3c0700ff 	lui	a3,0xff
    3fd0:	8fa80048 	lw	t0,72(sp)
    3fd4:	15e00003 	bnez	t7,3fe4 <func_8009D438+0x4c>
    3fd8:	34e7ffff 	ori	a3,a3,0xffff
    3fdc:	10000002 	b	3fe8 <func_8009D438+0x50>
    3fe0:	24050001 	li	a1,1
    3fe4:	8c450010 	lw	a1,16(v0)
    3fe8:	8d0202c0 	lw	v0,704(t0)
    3fec:	3c19db06 	lui	t9,0xdb06
    3ff0:	37390020 	ori	t9,t9,0x20
    3ff4:	24580008 	addiu	t8,v0,8
    3ff8:	ad1802c0 	sw	t8,704(t0)
    3ffc:	00053080 	sll	a2,a1,0x2
    4000:	3c040000 	lui	a0,0x0
    4004:	00862021 	addu	a0,a0,a2
    4008:	ac590000 	sw	t9,0(v0)
    400c:	8c840000 	lw	a0,0(a0)
    4010:	3c090000 	lui	t1,0x0
    4014:	25290000 	addiu	t1,t1,0
    4018:	00046100 	sll	t4,a0,0x4
    401c:	000c6f02 	srl	t5,t4,0x1c
    4020:	000d7080 	sll	t6,t5,0x2
    4024:	012e7821 	addu	t7,t1,t6
    4028:	8df80000 	lw	t8,0(t7)
    402c:	00875824 	and	t3,a0,a3
    4030:	3c0a8000 	lui	t2,0x8000
    4034:	0178c821 	addu	t9,t3,t8
    4038:	032a6021 	addu	t4,t9,t2
    403c:	ac4c0004 	sw	t4,4(v0)
    4040:	8d0202c0 	lw	v0,704(t0)
    4044:	3c0edb06 	lui	t6,0xdb06
    4048:	35ce0024 	ori	t6,t6,0x24
    404c:	244d0008 	addiu	t5,v0,8
    4050:	ad0d02c0 	sw	t5,704(t0)
    4054:	3c040000 	lui	a0,0x0
    4058:	00862021 	addu	a0,a0,a2
    405c:	ac4e0000 	sw	t6,0(v0)
    4060:	8c840000 	lw	a0,0(a0)
    4064:	3c068080 	lui	a2,0x8080
    4068:	34c68080 	ori	a2,a2,0x8080
    406c:	00045900 	sll	t3,a0,0x4
    4070:	000bc702 	srl	t8,t3,0x1c
    4074:	0018c880 	sll	t9,t8,0x2
    4078:	01396021 	addu	t4,t1,t9
    407c:	8d8d0000 	lw	t5,0(t4)
    4080:	00877824 	and	t7,a0,a3
    4084:	3c04e700 	lui	a0,0xe700
    4088:	01ed7021 	addu	t6,t7,t5
    408c:	01ca5821 	addu	t3,t6,t2
    4090:	ac4b0004 	sw	t3,4(v0)
    4094:	8d0202c0 	lw	v0,704(t0)
    4098:	3c05fb00 	lui	a1,0xfb00
    409c:	240719b5 	li	a3,6581
    40a0:	24580008 	addiu	t8,v0,8
    40a4:	ad1802c0 	sw	t8,704(t0)
    40a8:	ac400004 	sw	zero,4(v0)
    40ac:	ac440000 	sw	a0,0(v0)
    40b0:	8d0202c0 	lw	v0,704(t0)
    40b4:	24590008 	addiu	t9,v0,8
    40b8:	ad1902c0 	sw	t9,704(t0)
    40bc:	ac460004 	sw	a2,4(v0)
    40c0:	ac450000 	sw	a1,0(v0)
    40c4:	8d0302d0 	lw	v1,720(t0)
    40c8:	246c0008 	addiu	t4,v1,8
    40cc:	ad0c02d0 	sw	t4,720(t0)
    40d0:	ac600004 	sw	zero,4(v1)
    40d4:	ac640000 	sw	a0,0(v1)
    40d8:	8d0302d0 	lw	v1,720(t0)
    40dc:	27a40038 	addiu	a0,sp,56
    40e0:	246f0008 	addiu	t7,v1,8
    40e4:	ad0f02d0 	sw	t7,720(t0)
    40e8:	ac660004 	sw	a2,4(v1)
    40ec:	ac650000 	sw	a1,0(v1)
    40f0:	8fad0050 	lw	t5,80(sp)
    40f4:	3c060000 	lui	a2,0x0
    40f8:	24c60424 	addiu	a2,a2,1060
    40fc:	0c000000 	jal	0 <func_800994A0>
    4100:	8da50000 	lw	a1,0(t5)
    4104:	8fbf0014 	lw	ra,20(sp)
    4108:	27bd0050 	addiu	sp,sp,80
    410c:	03e00008 	jr	ra
    4110:	00000000 	nop

00004114 <func_8009D5B4>:
    4114:	27bdff88 	addiu	sp,sp,-120
    4118:	afbf003c 	sw	ra,60(sp)
    411c:	afb10038 	sw	s1,56(sp)
    4120:	afb00034 	sw	s0,52(sp)
    4124:	8c850000 	lw	a1,0(a0)
    4128:	00808825 	move	s1,a0
    412c:	3c060000 	lui	a2,0x0
    4130:	24c60438 	addiu	a2,a2,1080
    4134:	27a40060 	addiu	a0,sp,96
    4138:	240719c3 	li	a3,6595
    413c:	0c000000 	jal	0 <func_800994A0>
    4140:	00a08025 	move	s0,a1
    4144:	8e0202c0 	lw	v0,704(s0)
    4148:	3c030001 	lui	v1,0x1
    414c:	00711821 	addu	v1,v1,s1
    4150:	8c631de4 	lw	v1,7652(v1)
    4154:	3c0fdb06 	lui	t7,0xdb06
    4158:	244e0008 	addiu	t6,v0,8
    415c:	ae0e02c0 	sw	t6,704(s0)
    4160:	35ef0020 	ori	t7,t7,0x20
    4164:	ac4f0000 	sw	t7,0(v0)
    4168:	8e240000 	lw	a0,0(s1)
    416c:	00034880 	sll	t1,v1,0x2
    4170:	24180020 	li	t8,32
    4174:	01234823 	subu	t1,t1,v1
    4178:	3126007f 	andi	a2,t1,0x7f
    417c:	afa90044 	sw	t1,68(sp)
    4180:	afb80010 	sw	t8,16(sp)
    4184:	00002825 	move	a1,zero
    4188:	24070020 	li	a3,32
    418c:	afa2005c 	sw	v0,92(sp)
    4190:	0c000000 	jal	0 <func_800994A0>
    4194:	afa30074 	sw	v1,116(sp)
    4198:	8fa8005c 	lw	t0,92(sp)
    419c:	8fa30074 	lw	v1,116(sp)
    41a0:	8fa90044 	lw	t1,68(sp)
    41a4:	ad020004 	sw	v0,4(t0)
    41a8:	8e0202d0 	lw	v0,720(s0)
    41ac:	3c0bdb06 	lui	t3,0xdb06
    41b0:	356b0024 	ori	t3,t3,0x24
    41b4:	24590008 	addiu	t9,v0,8
    41b8:	ae1902d0 	sw	t9,720(s0)
    41bc:	ac4b0000 	sw	t3,0(v0)
    41c0:	8e240000 	lw	a0,0(s1)
    41c4:	0003c080 	sll	t8,v1,0x2
    41c8:	0303c023 	subu	t8,t8,v1
    41cc:	0018c040 	sll	t8,t8,0x1
    41d0:	240a03ff 	li	t2,1023
    41d4:	240d0010 	li	t5,16
    41d8:	312c03ff 	andi	t4,t1,0x3ff
    41dc:	014c3823 	subu	a3,t2,t4
    41e0:	afad0010 	sw	t5,16(sp)
    41e4:	331903ff 	andi	t9,t8,0x3ff
    41e8:	01595823 	subu	t3,t2,t9
    41ec:	240d0100 	li	t5,256
    41f0:	240c0010 	li	t4,16
    41f4:	240e0100 	li	t6,256
    41f8:	240f0001 	li	t7,1
    41fc:	afaf0018 	sw	t7,24(sp)
    4200:	afae0014 	sw	t6,20(sp)
    4204:	afac0024 	sw	t4,36(sp)
    4208:	afad0028 	sw	t5,40(sp)
    420c:	afab0020 	sw	t3,32(sp)
    4210:	afa0001c 	sw	zero,28(sp)
    4214:	00002825 	move	a1,zero
    4218:	00003025 	move	a2,zero
    421c:	0c000000 	jal	0 <func_800994A0>
    4220:	afa20058 	sw	v0,88(sp)
    4224:	8fa80058 	lw	t0,88(sp)
    4228:	3c04e700 	lui	a0,0xe700
    422c:	3c068080 	lui	a2,0x8080
    4230:	ad020004 	sw	v0,4(t0)
    4234:	8e0202c0 	lw	v0,704(s0)
    4238:	34c68080 	ori	a2,a2,0x8080
    423c:	3c05fb00 	lui	a1,0xfb00
    4240:	244e0008 	addiu	t6,v0,8
    4244:	ae0e02c0 	sw	t6,704(s0)
    4248:	ac400004 	sw	zero,4(v0)
    424c:	ac440000 	sw	a0,0(v0)
    4250:	8e0202c0 	lw	v0,704(s0)
    4254:	240719d7 	li	a3,6615
    4258:	244f0008 	addiu	t7,v0,8
    425c:	ae0f02c0 	sw	t7,704(s0)
    4260:	ac460004 	sw	a2,4(v0)
    4264:	ac450000 	sw	a1,0(v0)
    4268:	8e0202d0 	lw	v0,720(s0)
    426c:	24580008 	addiu	t8,v0,8
    4270:	ae1802d0 	sw	t8,720(s0)
    4274:	ac400004 	sw	zero,4(v0)
    4278:	ac440000 	sw	a0,0(v0)
    427c:	8e0202d0 	lw	v0,720(s0)
    4280:	27a40060 	addiu	a0,sp,96
    4284:	24590008 	addiu	t9,v0,8
    4288:	ae1902d0 	sw	t9,720(s0)
    428c:	ac460004 	sw	a2,4(v0)
    4290:	3c060000 	lui	a2,0x0
    4294:	ac450000 	sw	a1,0(v0)
    4298:	8e250000 	lw	a1,0(s1)
    429c:	0c000000 	jal	0 <func_800994A0>
    42a0:	24c6044c 	addiu	a2,a2,1100
    42a4:	8fbf003c 	lw	ra,60(sp)
    42a8:	8fb00034 	lw	s0,52(sp)
    42ac:	8fb10038 	lw	s1,56(sp)
    42b0:	03e00008 	jr	ra
    42b4:	27bd0078 	addiu	sp,sp,120

000042b8 <func_8009D758>:
    42b8:	27bdff70 	addiu	sp,sp,-144
    42bc:	afbf003c 	sw	ra,60(sp)
    42c0:	afb00038 	sw	s0,56(sp)
    42c4:	afa40090 	sw	a0,144(sp)
    42c8:	8c850000 	lw	a1,0(a0)
    42cc:	3c060000 	lui	a2,0x0
    42d0:	24c60460 	addiu	a2,a2,1120
    42d4:	27a40078 	addiu	a0,sp,120
    42d8:	240719f0 	li	a3,6640
    42dc:	0c000000 	jal	0 <func_800994A0>
    42e0:	00a08025 	move	s0,a1
    42e4:	8faa0090 	lw	t2,144(sp)
    42e8:	8e0202d0 	lw	v0,720(s0)
    42ec:	3c080001 	lui	t0,0x1
    42f0:	010a4021 	addu	t0,t0,t2
    42f4:	8d081de4 	lw	t0,7652(t0)
    42f8:	3c18db06 	lui	t8,0xdb06
    42fc:	244f0008 	addiu	t7,v0,8
    4300:	ae0f02d0 	sw	t7,720(s0)
    4304:	37180020 	ori	t8,t8,0x20
    4308:	3c190000 	lui	t9,0x0
    430c:	ac580000 	sw	t8,0(v0)
    4310:	8f390010 	lw	t9,16(t9)
    4314:	3c040000 	lui	a0,0x0
    4318:	3c180000 	lui	t8,0x0
    431c:	00195880 	sll	t3,t9,0x2
    4320:	008b2021 	addu	a0,a0,t3
    4324:	8c840000 	lw	a0,0(a0)
    4328:	3c0100ff 	lui	at,0xff
    432c:	3421ffff 	ori	at,at,0xffff
    4330:	00046900 	sll	t5,a0,0x4
    4334:	000d7702 	srl	t6,t5,0x1c
    4338:	000e7880 	sll	t7,t6,0x2
    433c:	030fc021 	addu	t8,t8,t7
    4340:	8f180000 	lw	t8,0(t8)
    4344:	00816024 	and	t4,a0,at
    4348:	3c018000 	lui	at,0x8000
    434c:	0198c821 	addu	t9,t4,t8
    4350:	03215821 	addu	t3,t9,at
    4354:	ac4b0004 	sw	t3,4(v0)
    4358:	8e0202d0 	lw	v0,720(s0)
    435c:	3c0edb06 	lui	t6,0xdb06
    4360:	35ce0024 	ori	t6,t6,0x24
    4364:	244d0008 	addiu	t5,v0,8
    4368:	ae0d02d0 	sw	t5,720(s0)
    436c:	ac4e0000 	sw	t6,0(v0)
    4370:	8d440000 	lw	a0,0(t2)
    4374:	240f007f 	li	t7,127
    4378:	3103007f 	andi	v1,t0,0x7f
    437c:	01e33023 	subu	a2,t7,v1
    4380:	240d0020 	li	t5,32
    4384:	240b0020 	li	t3,32
    4388:	24190001 	li	t9,1
    438c:	24180020 	li	t8,32
    4390:	240c0020 	li	t4,32
    4394:	3107007f 	andi	a3,t0,0x7f
    4398:	afa70020 	sw	a3,32(sp)
    439c:	afa70048 	sw	a3,72(sp)
    43a0:	afac0010 	sw	t4,16(sp)
    43a4:	afb80014 	sw	t8,20(sp)
    43a8:	afb90018 	sw	t9,24(sp)
    43ac:	afab0024 	sw	t3,36(sp)
    43b0:	afad0028 	sw	t5,40(sp)
    43b4:	afa6004c 	sw	a2,76(sp)
    43b8:	afa3001c 	sw	v1,28(sp)
    43bc:	afa30050 	sw	v1,80(sp)
    43c0:	00002825 	move	a1,zero
    43c4:	0c000000 	jal	0 <func_800994A0>
    43c8:	afa20070 	sw	v0,112(sp)
    43cc:	8fa90070 	lw	t1,112(sp)
    43d0:	8fa30050 	lw	v1,80(sp)
    43d4:	8fa70048 	lw	a3,72(sp)
    43d8:	8fa6004c 	lw	a2,76(sp)
    43dc:	ad220004 	sw	v0,4(t1)
    43e0:	8e0202c0 	lw	v0,704(s0)
    43e4:	3c0fdb06 	lui	t7,0xdb06
    43e8:	35ef0028 	ori	t7,t7,0x28
    43ec:	244e0008 	addiu	t6,v0,8
    43f0:	ae0e02c0 	sw	t6,704(s0)
    43f4:	ac4f0000 	sw	t7,0(v0)
    43f8:	8fac0090 	lw	t4,144(sp)
    43fc:	240e0020 	li	t6,32
    4400:	24180020 	li	t8,32
    4404:	8d840000 	lw	a0,0(t4)
    4408:	24190020 	li	t9,32
    440c:	240b0001 	li	t3,1
    4410:	240d0020 	li	t5,32
    4414:	afad0024 	sw	t5,36(sp)
    4418:	afab0018 	sw	t3,24(sp)
    441c:	afb90014 	sw	t9,20(sp)
    4420:	afae0028 	sw	t6,40(sp)
    4424:	afb80010 	sw	t8,16(sp)
    4428:	00002825 	move	a1,zero
    442c:	afa3001c 	sw	v1,28(sp)
    4430:	afa70020 	sw	a3,32(sp)
    4434:	0c000000 	jal	0 <func_800994A0>
    4438:	afa2006c 	sw	v0,108(sp)
    443c:	8fa8006c 	lw	t0,108(sp)
    4440:	3c04e700 	lui	a0,0xe700
    4444:	3c068080 	lui	a2,0x8080
    4448:	ad020004 	sw	v0,4(t0)
    444c:	8e0202c0 	lw	v0,704(s0)
    4450:	34c68080 	ori	a2,a2,0x8080
    4454:	3c05fb00 	lui	a1,0xfb00
    4458:	244f0008 	addiu	t7,v0,8
    445c:	ae0f02c0 	sw	t7,704(s0)
    4460:	ac400004 	sw	zero,4(v0)
    4464:	ac440000 	sw	a0,0(v0)
    4468:	8e0202c0 	lw	v0,704(s0)
    446c:	24071a0f 	li	a3,6671
    4470:	244c0008 	addiu	t4,v0,8
    4474:	ae0c02c0 	sw	t4,704(s0)
    4478:	ac460004 	sw	a2,4(v0)
    447c:	ac450000 	sw	a1,0(v0)
    4480:	8e0202d0 	lw	v0,720(s0)
    4484:	24580008 	addiu	t8,v0,8
    4488:	ae1802d0 	sw	t8,720(s0)
    448c:	ac400004 	sw	zero,4(v0)
    4490:	ac440000 	sw	a0,0(v0)
    4494:	8e0202d0 	lw	v0,720(s0)
    4498:	27a40078 	addiu	a0,sp,120
    449c:	24590008 	addiu	t9,v0,8
    44a0:	ae1902d0 	sw	t9,720(s0)
    44a4:	ac460004 	sw	a2,4(v0)
    44a8:	ac450000 	sw	a1,0(v0)
    44ac:	8fab0090 	lw	t3,144(sp)
    44b0:	3c060000 	lui	a2,0x0
    44b4:	24c60474 	addiu	a2,a2,1140
    44b8:	0c000000 	jal	0 <func_800994A0>
    44bc:	8d650000 	lw	a1,0(t3)
    44c0:	8fbf003c 	lw	ra,60(sp)
    44c4:	8fb00038 	lw	s0,56(sp)
    44c8:	27bd0090 	addiu	sp,sp,144
    44cc:	03e00008 	jr	ra
    44d0:	00000000 	nop

000044d4 <func_8009D974>:
    44d4:	27bdffc0 	addiu	sp,sp,-64
    44d8:	afbf0014 	sw	ra,20(sp)
    44dc:	afa40040 	sw	a0,64(sp)
    44e0:	8c850000 	lw	a1,0(a0)
    44e4:	3c060000 	lui	a2,0x0
    44e8:	24c60488 	addiu	a2,a2,1160
    44ec:	27a4002c 	addiu	a0,sp,44
    44f0:	24071a60 	li	a3,6752
    44f4:	0c000000 	jal	0 <func_800994A0>
    44f8:	afa5003c 	sw	a1,60(sp)
    44fc:	8fa8003c 	lw	t0,60(sp)
    4500:	3c18db06 	lui	t8,0xdb06
    4504:	37180020 	ori	t8,t8,0x20
    4508:	8d0302d0 	lw	v1,720(t0)
    450c:	3c190000 	lui	t9,0x0
    4510:	3c040000 	lui	a0,0x0
    4514:	246f0008 	addiu	t7,v1,8
    4518:	ad0f02d0 	sw	t7,720(t0)
    451c:	ac780000 	sw	t8,0(v1)
    4520:	8f390010 	lw	t9,16(t9)
    4524:	3c0e0000 	lui	t6,0x0
    4528:	3c0100ff 	lui	at,0xff
    452c:	00194880 	sll	t1,t9,0x2
    4530:	00892021 	addu	a0,a0,t1
    4534:	8c840000 	lw	a0,0(a0)
    4538:	3421ffff 	ori	at,at,0xffff
    453c:	3c060000 	lui	a2,0x0
    4540:	00045900 	sll	t3,a0,0x4
    4544:	000b6702 	srl	t4,t3,0x1c
    4548:	000c6880 	sll	t5,t4,0x2
    454c:	01cd7021 	addu	t6,t6,t5
    4550:	8dce0000 	lw	t6,0(t6)
    4554:	00815024 	and	t2,a0,at
    4558:	3c018000 	lui	at,0x8000
    455c:	014e7821 	addu	t7,t2,t6
    4560:	01e1c021 	addu	t8,t7,at
    4564:	ac780004 	sw	t8,4(v1)
    4568:	8fb90040 	lw	t9,64(sp)
    456c:	27a4002c 	addiu	a0,sp,44
    4570:	24c6049c 	addiu	a2,a2,1180
    4574:	24071a6a 	li	a3,6762
    4578:	0c000000 	jal	0 <func_800994A0>
    457c:	8f250000 	lw	a1,0(t9)
    4580:	8fbf0014 	lw	ra,20(sp)
    4584:	27bd0040 	addiu	sp,sp,64
    4588:	03e00008 	jr	ra
    458c:	00000000 	nop

00004590 <func_8009DA30>:
    4590:	27bdff70 	addiu	sp,sp,-144
    4594:	afbf0034 	sw	ra,52(sp)
    4598:	afa40090 	sw	a0,144(sp)
    459c:	8c840000 	lw	a0,0(a0)
    45a0:	0c000000 	jal	0 <func_800994A0>
    45a4:	24050018 	li	a1,24
    45a8:	8faf0090 	lw	t7,144(sp)
    45ac:	3c060000 	lui	a2,0x0
    45b0:	24c604b0 	addiu	a2,a2,1200
    45b4:	8de50000 	lw	a1,0(t7)
    45b8:	afa20088 	sw	v0,136(sp)
    45bc:	27a40074 	addiu	a0,sp,116
    45c0:	24071a9e 	li	a3,6814
    45c4:	0c000000 	jal	0 <func_800994A0>
    45c8:	afa50084 	sw	a1,132(sp)
    45cc:	8fa30084 	lw	v1,132(sp)
    45d0:	8fad0090 	lw	t5,144(sp)
    45d4:	3c010001 	lui	at,0x1
    45d8:	8c6202d0 	lw	v0,720(v1)
    45dc:	01a16021 	addu	t4,t5,at
    45e0:	8d881de4 	lw	t0,7652(t4)
    45e4:	8fab0088 	lw	t3,136(sp)
    45e8:	3c19db06 	lui	t9,0xdb06
    45ec:	24580008 	addiu	t8,v0,8
    45f0:	37390020 	ori	t9,t9,0x20
    45f4:	ac7802d0 	sw	t8,720(v1)
    45f8:	ac590000 	sw	t9,0(v0)
    45fc:	8da40000 	lw	a0,0(t5)
    4600:	240e007f 	li	t6,127
    4604:	3109007f 	andi	t1,t0,0x7f
    4608:	00083880 	sll	a3,t0,0x2
    460c:	01c93023 	subu	a2,t6,t1
    4610:	00e83823 	subu	a3,a3,t0
    4614:	30e7007f 	andi	a3,a3,0x7f
    4618:	240e0020 	li	t6,32
    461c:	24190001 	li	t9,1
    4620:	24180020 	li	t8,32
    4624:	240f0020 	li	t7,32
    4628:	afaf0010 	sw	t7,16(sp)
    462c:	afaf0028 	sw	t7,40(sp)
    4630:	afb80014 	sw	t8,20(sp)
    4634:	afb90018 	sw	t9,24(sp)
    4638:	afae0024 	sw	t6,36(sp)
    463c:	afa70020 	sw	a3,32(sp)
    4640:	afa6003c 	sw	a2,60(sp)
    4644:	afa9001c 	sw	t1,28(sp)
    4648:	afa90040 	sw	t1,64(sp)
    464c:	afac0044 	sw	t4,68(sp)
    4650:	00002825 	move	a1,zero
    4654:	afa30084 	sw	v1,132(sp)
    4658:	afa20070 	sw	v0,112(sp)
    465c:	afa8008c 	sw	t0,140(sp)
    4660:	0c000000 	jal	0 <func_800994A0>
    4664:	afab0088 	sw	t3,136(sp)
    4668:	8faa0070 	lw	t2,112(sp)
    466c:	8fa30084 	lw	v1,132(sp)
    4670:	8fa8008c 	lw	t0,140(sp)
    4674:	8fa90040 	lw	t1,64(sp)
    4678:	8fab0088 	lw	t3,136(sp)
    467c:	8fac0044 	lw	t4,68(sp)
    4680:	8fa6003c 	lw	a2,60(sp)
    4684:	ad420004 	sw	v0,4(t2)
    4688:	8c6202d0 	lw	v0,720(v1)
    468c:	3c19db06 	lui	t9,0xdb06
    4690:	37390024 	ori	t9,t9,0x24
    4694:	24580008 	addiu	t8,v0,8
    4698:	ac7802d0 	sw	t8,720(v1)
    469c:	ac590000 	sw	t9,0(v0)
    46a0:	8fae0090 	lw	t6,144(sp)
    46a4:	00083880 	sll	a3,t0,0x2
    46a8:	00e83821 	addu	a3,a3,t0
    46ac:	8dc40000 	lw	a0,0(t6)
    46b0:	00073840 	sll	a3,a3,0x1
    46b4:	30e7007f 	andi	a3,a3,0x7f
    46b8:	240e0020 	li	t6,32
    46bc:	24190001 	li	t9,1
    46c0:	24180020 	li	t8,32
    46c4:	240f0020 	li	t7,32
    46c8:	afaf0010 	sw	t7,16(sp)
    46cc:	afaf0028 	sw	t7,40(sp)
    46d0:	afb80014 	sw	t8,20(sp)
    46d4:	afb90018 	sw	t9,24(sp)
    46d8:	afae0024 	sw	t6,36(sp)
    46dc:	afa70020 	sw	a3,32(sp)
    46e0:	00002825 	move	a1,zero
    46e4:	afa30084 	sw	v1,132(sp)
    46e8:	afa9001c 	sw	t1,28(sp)
    46ec:	afab0088 	sw	t3,136(sp)
    46f0:	afac0044 	sw	t4,68(sp)
    46f4:	0c000000 	jal	0 <func_800994A0>
    46f8:	afa2006c 	sw	v0,108(sp)
    46fc:	8faa006c 	lw	t2,108(sp)
    4700:	8fa30084 	lw	v1,132(sp)
    4704:	8fab0088 	lw	t3,136(sp)
    4708:	8fac0044 	lw	t4,68(sp)
    470c:	ad420004 	sw	v0,4(t2)
    4710:	8c6402c0 	lw	a0,704(v1)
    4714:	3c05e700 	lui	a1,0xe700
    4718:	3c078080 	lui	a3,0x8080
    471c:	24980008 	addiu	t8,a0,8
    4720:	ac7802c0 	sw	t8,704(v1)
    4724:	ac800004 	sw	zero,4(a0)
    4728:	ac850000 	sw	a1,0(a0)
    472c:	8c6402c0 	lw	a0,704(v1)
    4730:	34e78080 	ori	a3,a3,0x8080
    4734:	3c06fb00 	lui	a2,0xfb00
    4738:	24990008 	addiu	t9,a0,8
    473c:	ac7902c0 	sw	t9,704(v1)
    4740:	ac870004 	sw	a3,4(a0)
    4744:	ac860000 	sw	a2,0(a0)
    4748:	8c6202d0 	lw	v0,720(v1)
    474c:	3c19db06 	lui	t9,0xdb06
    4750:	37390028 	ori	t9,t9,0x28
    4754:	244e0008 	addiu	t6,v0,8
    4758:	ac6e02d0 	sw	t6,720(v1)
    475c:	ac400004 	sw	zero,4(v0)
    4760:	ac450000 	sw	a1,0(v0)
    4764:	8c6202d0 	lw	v0,720(v1)
    4768:	244f0008 	addiu	t7,v0,8
    476c:	ac6f02d0 	sw	t7,720(v1)
    4770:	ac470004 	sw	a3,4(v0)
    4774:	ac460000 	sw	a2,0(v0)
    4778:	8c6202d0 	lw	v0,720(v1)
    477c:	24580008 	addiu	t8,v0,8
    4780:	ac7802d0 	sw	t8,720(v1)
    4784:	ac4b0004 	sw	t3,4(v0)
    4788:	ac590000 	sw	t9,0(v0)
    478c:	3c020000 	lui	v0,0x0
    4790:	9442000c 	lhu	v0,12(v0)
    4794:	28414aac 	slti	at,v0,19116
    4798:	14200007 	bnez	at,47b8 <func_8009DA30+0x228>
    479c:	3401c556 	li	at,0xc556
    47a0:	0041082a 	slt	at,v0,at
    47a4:	10200004 	beqz	at,47b8 <func_8009DA30+0x228>
    47a8:	3c0edf00 	lui	t6,0xdf00
    47ac:	ad6e0000 	sw	t6,0(t3)
    47b0:	10000037 	b	4890 <func_8009DA30+0x300>
    47b4:	ad600004 	sw	zero,4(t3)
    47b8:	3401c556 	li	at,0xc556
    47bc:	0041082a 	slt	at,v0,at
    47c0:	54200011 	bnezl	at,4808 <func_8009DA30+0x278>
    47c4:	28414000 	slti	at,v0,16384
    47c8:	858f1d30 	lh	t7,7472(t4)
    47cc:	240100ff 	li	at,255
    47d0:	8fa40090 	lw	a0,144(sp)
    47d4:	11e1001b 	beq	t7,at,4844 <func_8009DA30+0x2b4>
    47d8:	240500ff 	li	a1,255
    47dc:	3c010001 	lui	at,0x1
    47e0:	34211d30 	ori	at,at,0x1d30
    47e4:	00812021 	addu	a0,a0,at
    47e8:	24060005 	li	a2,5
    47ec:	afab0088 	sw	t3,136(sp)
    47f0:	0c000000 	jal	0 <func_800994A0>
    47f4:	afac0044 	sw	t4,68(sp)
    47f8:	8fab0088 	lw	t3,136(sp)
    47fc:	10000011 	b	4844 <func_8009DA30+0x2b4>
    4800:	8fac0044 	lw	t4,68(sp)
    4804:	28414000 	slti	at,v0,16384
    4808:	5420000f 	bnezl	at,4848 <func_8009DA30+0x2b8>
    480c:	01601025 	move	v0,t3
    4810:	85981d30 	lh	t8,7472(t4)
    4814:	3c010001 	lui	at,0x1
    4818:	34211d30 	ori	at,at,0x1d30
    481c:	13000009 	beqz	t8,4844 <func_8009DA30+0x2b4>
    4820:	8fa40090 	lw	a0,144(sp)
    4824:	00812021 	addu	a0,a0,at
    4828:	00002825 	move	a1,zero
    482c:	2406000a 	li	a2,10
    4830:	afab0088 	sw	t3,136(sp)
    4834:	0c000000 	jal	0 <func_800994A0>
    4838:	afac0044 	sw	t4,68(sp)
    483c:	8fab0088 	lw	t3,136(sp)
    4840:	8fac0044 	lw	t4,68(sp)
    4844:	01601025 	move	v0,t3
    4848:	3c19fa00 	lui	t9,0xfa00
    484c:	ac590000 	sw	t9,0(v0)
    4850:	858e1d30 	lh	t6,7472(t4)
    4854:	2401ff00 	li	at,-256
    4858:	256b0008 	addiu	t3,t3,8
    485c:	31cf00ff 	andi	t7,t6,0xff
    4860:	01e1c025 	or	t8,t7,at
    4864:	ac580004 	sw	t8,4(v0)
    4868:	01601025 	move	v0,t3
    486c:	3c0e0000 	lui	t6,0x0
    4870:	25ce0000 	addiu	t6,t6,0
    4874:	3c19de00 	lui	t9,0xde00
    4878:	ac590000 	sw	t9,0(v0)
    487c:	ac4e0004 	sw	t6,4(v0)
    4880:	3c0fdf00 	lui	t7,0xdf00
    4884:	256b0008 	addiu	t3,t3,8
    4888:	ad6f0000 	sw	t7,0(t3)
    488c:	ad600004 	sw	zero,4(t3)
    4890:	8fb80090 	lw	t8,144(sp)
    4894:	3c060000 	lui	a2,0x0
    4898:	24c604c4 	addiu	a2,a2,1220
    489c:	27a40074 	addiu	a0,sp,116
    48a0:	24071ad2 	li	a3,6866
    48a4:	0c000000 	jal	0 <func_800994A0>
    48a8:	8f050000 	lw	a1,0(t8)
    48ac:	8fbf0034 	lw	ra,52(sp)
    48b0:	27bd0090 	addiu	sp,sp,144
    48b4:	03e00008 	jr	ra
    48b8:	00000000 	nop

000048bc <func_8009DD5C>:
    48bc:	27bdffb0 	addiu	sp,sp,-80
    48c0:	afbf0014 	sw	ra,20(sp)
    48c4:	afa40050 	sw	a0,80(sp)
    48c8:	8c850000 	lw	a1,0(a0)
    48cc:	3c060000 	lui	a2,0x0
    48d0:	24c604d8 	addiu	a2,a2,1240
    48d4:	27a4003c 	addiu	a0,sp,60
    48d8:	24071aea 	li	a3,6890
    48dc:	0c000000 	jal	0 <func_800994A0>
    48e0:	afa5004c 	sw	a1,76(sp)
    48e4:	8fa8004c 	lw	t0,76(sp)
    48e8:	3c18db06 	lui	t8,0xdb06
    48ec:	37180020 	ori	t8,t8,0x20
    48f0:	8d0202c0 	lw	v0,704(t0)
    48f4:	3c190000 	lui	t9,0x0
    48f8:	3c040000 	lui	a0,0x0
    48fc:	244f0008 	addiu	t7,v0,8
    4900:	ad0f02c0 	sw	t7,704(t0)
    4904:	ac580000 	sw	t8,0(v0)
    4908:	8f390010 	lw	t9,16(t9)
    490c:	3c0e0000 	lui	t6,0x0
    4910:	3c0100ff 	lui	at,0xff
    4914:	00194880 	sll	t1,t9,0x2
    4918:	00892021 	addu	a0,a0,t1
    491c:	8c840000 	lw	a0,0(a0)
    4920:	3421ffff 	ori	at,at,0xffff
    4924:	3c068080 	lui	a2,0x8080
    4928:	00045900 	sll	t3,a0,0x4
    492c:	000b6702 	srl	t4,t3,0x1c
    4930:	000c6880 	sll	t5,t4,0x2
    4934:	01cd7021 	addu	t6,t6,t5
    4938:	8dce0000 	lw	t6,0(t6)
    493c:	00815024 	and	t2,a0,at
    4940:	3c018000 	lui	at,0x8000
    4944:	014e7821 	addu	t7,t2,t6
    4948:	01e1c021 	addu	t8,t7,at
    494c:	ac580004 	sw	t8,4(v0)
    4950:	8d0202c0 	lw	v0,704(t0)
    4954:	3c04e700 	lui	a0,0xe700
    4958:	34c68080 	ori	a2,a2,0x8080
    495c:	24590008 	addiu	t9,v0,8
    4960:	ad1902c0 	sw	t9,704(t0)
    4964:	ac400004 	sw	zero,4(v0)
    4968:	ac440000 	sw	a0,0(v0)
    496c:	8d0202c0 	lw	v0,704(t0)
    4970:	3c05fb00 	lui	a1,0xfb00
    4974:	24071af7 	li	a3,6903
    4978:	24490008 	addiu	t1,v0,8
    497c:	ad0902c0 	sw	t1,704(t0)
    4980:	ac460004 	sw	a2,4(v0)
    4984:	ac450000 	sw	a1,0(v0)
    4988:	8d0302d0 	lw	v1,720(t0)
    498c:	246b0008 	addiu	t3,v1,8
    4990:	ad0b02d0 	sw	t3,720(t0)
    4994:	ac600004 	sw	zero,4(v1)
    4998:	ac640000 	sw	a0,0(v1)
    499c:	8d0302d0 	lw	v1,720(t0)
    49a0:	27a4003c 	addiu	a0,sp,60
    49a4:	246c0008 	addiu	t4,v1,8
    49a8:	ad0c02d0 	sw	t4,720(t0)
    49ac:	ac660004 	sw	a2,4(v1)
    49b0:	ac650000 	sw	a1,0(v1)
    49b4:	8fad0050 	lw	t5,80(sp)
    49b8:	3c060000 	lui	a2,0x0
    49bc:	24c604ec 	addiu	a2,a2,1260
    49c0:	0c000000 	jal	0 <func_800994A0>
    49c4:	8da50000 	lw	a1,0(t5)
    49c8:	8fbf0014 	lw	ra,20(sp)
    49cc:	27bd0050 	addiu	sp,sp,80
    49d0:	03e00008 	jr	ra
    49d4:	00000000 	nop

000049d8 <func_8009DE78>:
    49d8:	27bdff80 	addiu	sp,sp,-128
    49dc:	afbf003c 	sw	ra,60(sp)
    49e0:	afb10038 	sw	s1,56(sp)
    49e4:	afb00034 	sw	s0,52(sp)
    49e8:	8c850000 	lw	a1,0(a0)
    49ec:	00808825 	move	s1,a0
    49f0:	3c060000 	lui	a2,0x0
    49f4:	24c60500 	addiu	a2,a2,1280
    49f8:	27a40068 	addiu	a0,sp,104
    49fc:	24071b05 	li	a3,6917
    4a00:	0c000000 	jal	0 <func_800994A0>
    4a04:	00a08025 	move	s0,a1
    4a08:	3c030001 	lui	v1,0x1
    4a0c:	8e0202d0 	lw	v0,720(s0)
    4a10:	00711821 	addu	v1,v1,s1
    4a14:	8c631de4 	lw	v1,7652(v1)
    4a18:	3c0fdb06 	lui	t7,0xdb06
    4a1c:	244e0008 	addiu	t6,v0,8
    4a20:	ae0e02d0 	sw	t6,720(s0)
    4a24:	35ef0020 	ori	t7,t7,0x20
    4a28:	ac4f0000 	sw	t7,0(v0)
    4a2c:	8e240000 	lw	a0,0(s1)
    4a30:	00033880 	sll	a3,v1,0x2
    4a34:	00e33823 	subu	a3,a3,v1
    4a38:	00073840 	sll	a3,a3,0x1
    4a3c:	2418007f 	li	t8,127
    4a40:	3068007f 	andi	t0,v1,0x7f
    4a44:	03083023 	subu	a2,t8,t0
    4a48:	30e7007f 	andi	a3,a3,0x7f
    4a4c:	24190020 	li	t9,32
    4a50:	240a0020 	li	t2,32
    4a54:	240b0001 	li	t3,1
    4a58:	240c0020 	li	t4,32
    4a5c:	240d0020 	li	t5,32
    4a60:	afad0028 	sw	t5,40(sp)
    4a64:	afac0024 	sw	t4,36(sp)
    4a68:	afab0018 	sw	t3,24(sp)
    4a6c:	afaa0014 	sw	t2,20(sp)
    4a70:	afb90010 	sw	t9,16(sp)
    4a74:	afa70020 	sw	a3,32(sp)
    4a78:	afa60044 	sw	a2,68(sp)
    4a7c:	afa8001c 	sw	t0,28(sp)
    4a80:	afa80048 	sw	t0,72(sp)
    4a84:	00002825 	move	a1,zero
    4a88:	afa20064 	sw	v0,100(sp)
    4a8c:	0c000000 	jal	0 <func_800994A0>
    4a90:	afa3007c 	sw	v1,124(sp)
    4a94:	8fa90064 	lw	t1,100(sp)
    4a98:	8fa3007c 	lw	v1,124(sp)
    4a9c:	8fa80048 	lw	t0,72(sp)
    4aa0:	ad220004 	sw	v0,4(t1)
    4aa4:	8e0202d0 	lw	v0,720(s0)
    4aa8:	3c0fdb06 	lui	t7,0xdb06
    4aac:	35ef0024 	ori	t7,t7,0x24
    4ab0:	244e0008 	addiu	t6,v0,8
    4ab4:	ae0e02d0 	sw	t6,720(s0)
    4ab8:	ac4f0000 	sw	t7,0(v0)
    4abc:	8e240000 	lw	a0,0(s1)
    4ac0:	00033880 	sll	a3,v1,0x2
    4ac4:	00e33823 	subu	a3,a3,v1
    4ac8:	30e7007f 	andi	a3,a3,0x7f
    4acc:	24180020 	li	t8,32
    4ad0:	24190020 	li	t9,32
    4ad4:	240a0001 	li	t2,1
    4ad8:	240b0020 	li	t3,32
    4adc:	240c0020 	li	t4,32
    4ae0:	afac0028 	sw	t4,40(sp)
    4ae4:	afab0024 	sw	t3,36(sp)
    4ae8:	afaa0018 	sw	t2,24(sp)
    4aec:	afb90014 	sw	t9,20(sp)
    4af0:	afb80010 	sw	t8,16(sp)
    4af4:	afa70020 	sw	a3,32(sp)
    4af8:	8fa60044 	lw	a2,68(sp)
    4afc:	00002825 	move	a1,zero
    4b00:	afa3007c 	sw	v1,124(sp)
    4b04:	afa80048 	sw	t0,72(sp)
    4b08:	afa8001c 	sw	t0,28(sp)
    4b0c:	0c000000 	jal	0 <func_800994A0>
    4b10:	afa20060 	sw	v0,96(sp)
    4b14:	8fa90060 	lw	t1,96(sp)
    4b18:	8fa3007c 	lw	v1,124(sp)
    4b1c:	8fa80048 	lw	t0,72(sp)
    4b20:	ad220004 	sw	v0,4(t1)
    4b24:	8e0202d0 	lw	v0,720(s0)
    4b28:	3c0edb06 	lui	t6,0xdb06
    4b2c:	35ce0028 	ori	t6,t6,0x28
    4b30:	244d0008 	addiu	t5,v0,8
    4b34:	ae0d02d0 	sw	t5,720(s0)
    4b38:	ac4e0000 	sw	t6,0(v0)
    4b3c:	8e240000 	lw	a0,0(s1)
    4b40:	240f0020 	li	t7,32
    4b44:	24180020 	li	t8,32
    4b48:	24190001 	li	t9,1
    4b4c:	240a0020 	li	t2,32
    4b50:	240b0020 	li	t3,32
    4b54:	3067007f 	andi	a3,v1,0x7f
    4b58:	afa70020 	sw	a3,32(sp)
    4b5c:	afab0028 	sw	t3,40(sp)
    4b60:	afaa0024 	sw	t2,36(sp)
    4b64:	afb90018 	sw	t9,24(sp)
    4b68:	afb80014 	sw	t8,20(sp)
    4b6c:	afaf0010 	sw	t7,16(sp)
    4b70:	8fa60044 	lw	a2,68(sp)
    4b74:	00002825 	move	a1,zero
    4b78:	afa8001c 	sw	t0,28(sp)
    4b7c:	0c000000 	jal	0 <func_800994A0>
    4b80:	afa2005c 	sw	v0,92(sp)
    4b84:	8fa9005c 	lw	t1,92(sp)
    4b88:	3c04e700 	lui	a0,0xe700
    4b8c:	3c068080 	lui	a2,0x8080
    4b90:	ad220004 	sw	v0,4(t1)
    4b94:	8e0302c0 	lw	v1,704(s0)
    4b98:	34c68080 	ori	a2,a2,0x8080
    4b9c:	3c05fb00 	lui	a1,0xfb00
    4ba0:	246c0008 	addiu	t4,v1,8
    4ba4:	ae0c02c0 	sw	t4,704(s0)
    4ba8:	ac600004 	sw	zero,4(v1)
    4bac:	ac640000 	sw	a0,0(v1)
    4bb0:	8e0302c0 	lw	v1,704(s0)
    4bb4:	24071b24 	li	a3,6948
    4bb8:	246d0008 	addiu	t5,v1,8
    4bbc:	ae0d02c0 	sw	t5,704(s0)
    4bc0:	ac660004 	sw	a2,4(v1)
    4bc4:	ac650000 	sw	a1,0(v1)
    4bc8:	8e0202d0 	lw	v0,720(s0)
    4bcc:	244e0008 	addiu	t6,v0,8
    4bd0:	ae0e02d0 	sw	t6,720(s0)
    4bd4:	ac400004 	sw	zero,4(v0)
    4bd8:	ac440000 	sw	a0,0(v0)
    4bdc:	8e0202d0 	lw	v0,720(s0)
    4be0:	27a40068 	addiu	a0,sp,104
    4be4:	244f0008 	addiu	t7,v0,8
    4be8:	ae0f02d0 	sw	t7,720(s0)
    4bec:	ac460004 	sw	a2,4(v0)
    4bf0:	3c060000 	lui	a2,0x0
    4bf4:	ac450000 	sw	a1,0(v0)
    4bf8:	8e250000 	lw	a1,0(s1)
    4bfc:	0c000000 	jal	0 <func_800994A0>
    4c00:	24c60514 	addiu	a2,a2,1300
    4c04:	8fbf003c 	lw	ra,60(sp)
    4c08:	8fb00034 	lw	s0,52(sp)
    4c0c:	8fb10038 	lw	s1,56(sp)
    4c10:	03e00008 	jr	ra
    4c14:	27bd0080 	addiu	sp,sp,128

00004c18 <func_8009E0B8>:
    4c18:	27bdff58 	addiu	sp,sp,-168
    4c1c:	240e0080 	li	t6,128
    4c20:	240f01f4 	li	t7,500
    4c24:	afbf0034 	sw	ra,52(sp)
    4c28:	afa400a8 	sw	a0,168(sp)
    4c2c:	a3ae00a3 	sb	t6,163(sp)
    4c30:	a7af00a0 	sh	t7,160(sp)
    4c34:	8c840000 	lw	a0,0(a0)
    4c38:	0c000000 	jal	0 <func_800994A0>
    4c3c:	24050030 	li	a1,48
    4c40:	8fb900a8 	lw	t9,168(sp)
    4c44:	3c060000 	lui	a2,0x0
    4c48:	24c60528 	addiu	a2,a2,1320
    4c4c:	8f250000 	lw	a1,0(t9)
    4c50:	afa2009c 	sw	v0,156(sp)
    4c54:	27a40088 	addiu	a0,sp,136
    4c58:	24071b35 	li	a3,6965
    4c5c:	0c000000 	jal	0 <func_800994A0>
    4c60:	afa50098 	sw	a1,152(sp)
    4c64:	8fa90098 	lw	t1,152(sp)
    4c68:	8fad00a8 	lw	t5,168(sp)
    4c6c:	3c010001 	lui	at,0x1
    4c70:	8d2202d0 	lw	v0,720(t1)
    4c74:	01a16021 	addu	t4,t5,at
    4c78:	8faa009c 	lw	t2,156(sp)
    4c7c:	8d831de4 	lw	v1,7652(t4)
    4c80:	3c0fdb06 	lui	t7,0xdb06
    4c84:	244e0008 	addiu	t6,v0,8
    4c88:	35ef0024 	ori	t7,t7,0x24
    4c8c:	ad2e02d0 	sw	t6,720(t1)
    4c90:	ac4f0000 	sw	t7,0(v0)
    4c94:	8da40000 	lw	a0,0(t5)
    4c98:	2418007f 	li	t8,127
    4c9c:	3068007f 	andi	t0,v1,0x7f
    4ca0:	03083023 	subu	a2,t8,t0
    4ca4:	24180020 	li	t8,32
    4ca8:	240f0001 	li	t7,1
    4cac:	240e0020 	li	t6,32
    4cb0:	24190020 	li	t9,32
    4cb4:	3067007f 	andi	a3,v1,0x7f
    4cb8:	afa70020 	sw	a3,32(sp)
    4cbc:	afb90010 	sw	t9,16(sp)
    4cc0:	afb90028 	sw	t9,40(sp)
    4cc4:	afae0014 	sw	t6,20(sp)
    4cc8:	afaf0018 	sw	t7,24(sp)
    4ccc:	afb80024 	sw	t8,36(sp)
    4cd0:	afa6003c 	sw	a2,60(sp)
    4cd4:	afa8001c 	sw	t0,28(sp)
    4cd8:	afa80040 	sw	t0,64(sp)
    4cdc:	afac0044 	sw	t4,68(sp)
    4ce0:	00002825 	move	a1,zero
    4ce4:	afa90098 	sw	t1,152(sp)
    4ce8:	afa20084 	sw	v0,132(sp)
    4cec:	afaa009c 	sw	t2,156(sp)
    4cf0:	0c000000 	jal	0 <func_800994A0>
    4cf4:	afa300a4 	sw	v1,164(sp)
    4cf8:	8fab0084 	lw	t3,132(sp)
    4cfc:	8fa90098 	lw	t1,152(sp)
    4d00:	8fa300a4 	lw	v1,164(sp)
    4d04:	8fa80040 	lw	t0,64(sp)
    4d08:	8faa009c 	lw	t2,156(sp)
    4d0c:	8fac0044 	lw	t4,68(sp)
    4d10:	8fa6003c 	lw	a2,60(sp)
    4d14:	ad620004 	sw	v0,4(t3)
    4d18:	8d2202d0 	lw	v0,720(t1)
    4d1c:	3c0fdb06 	lui	t7,0xdb06
    4d20:	35ef0020 	ori	t7,t7,0x20
    4d24:	244e0008 	addiu	t6,v0,8
    4d28:	ad2e02d0 	sw	t6,720(t1)
    4d2c:	ac4f0000 	sw	t7,0(v0)
    4d30:	8fb800a8 	lw	t8,168(sp)
    4d34:	00033880 	sll	a3,v1,0x2
    4d38:	00e33821 	addu	a3,a3,v1
    4d3c:	8f040000 	lw	a0,0(t8)
    4d40:	00073840 	sll	a3,a3,0x1
    4d44:	30e7007f 	andi	a3,a3,0x7f
    4d48:	24180020 	li	t8,32
    4d4c:	240f0001 	li	t7,1
    4d50:	240e0020 	li	t6,32
    4d54:	24190020 	li	t9,32
    4d58:	afb90010 	sw	t9,16(sp)
    4d5c:	afb90028 	sw	t9,40(sp)
    4d60:	afae0014 	sw	t6,20(sp)
    4d64:	afaf0018 	sw	t7,24(sp)
    4d68:	afb80024 	sw	t8,36(sp)
    4d6c:	afa70020 	sw	a3,32(sp)
    4d70:	00002825 	move	a1,zero
    4d74:	afa90098 	sw	t1,152(sp)
    4d78:	afa8001c 	sw	t0,28(sp)
    4d7c:	afaa009c 	sw	t2,156(sp)
    4d80:	afac0044 	sw	t4,68(sp)
    4d84:	0c000000 	jal	0 <func_800994A0>
    4d88:	afa20080 	sw	v0,128(sp)
    4d8c:	8fab0080 	lw	t3,128(sp)
    4d90:	8fa90098 	lw	t1,152(sp)
    4d94:	8faa009c 	lw	t2,156(sp)
    4d98:	8fac0044 	lw	t4,68(sp)
    4d9c:	ad620004 	sw	v0,4(t3)
    4da0:	8d2202c0 	lw	v0,704(t1)
    4da4:	3c05e700 	lui	a1,0xe700
    4da8:	3c048080 	lui	a0,0x8080
    4dac:	244e0008 	addiu	t6,v0,8
    4db0:	ad2e02c0 	sw	t6,704(t1)
    4db4:	ac400004 	sw	zero,4(v0)
    4db8:	ac450000 	sw	a1,0(v0)
    4dbc:	8d2202c0 	lw	v0,704(t1)
    4dc0:	34848080 	ori	a0,a0,0x8080
    4dc4:	3c06fb00 	lui	a2,0xfb00
    4dc8:	244f0008 	addiu	t7,v0,8
    4dcc:	ad2f02c0 	sw	t7,704(t1)
    4dd0:	ac440004 	sw	a0,4(v0)
    4dd4:	ac460000 	sw	a2,0(v0)
    4dd8:	8d2202d0 	lw	v0,720(t1)
    4ddc:	3c030000 	lui	v1,0x0
    4de0:	24630000 	addiu	v1,v1,0
    4de4:	24580008 	addiu	t8,v0,8
    4de8:	ad3802d0 	sw	t8,720(t1)
    4dec:	ac400004 	sw	zero,4(v0)
    4df0:	ac450000 	sw	a1,0(v0)
    4df4:	8d2202d0 	lw	v0,720(t1)
    4df8:	24010004 	li	at,4
    4dfc:	3c078080 	lui	a3,0x8080
    4e00:	24590008 	addiu	t9,v0,8
    4e04:	ad3902d0 	sw	t9,720(t1)
    4e08:	ac440004 	sw	a0,4(v0)
    4e0c:	ac460000 	sw	a2,0(v0)
    4e10:	8c621360 	lw	v0,4960(v1)
    4e14:	34e78000 	ori	a3,a3,0x8000
    4e18:	3c08df00 	lui	t0,0xdf00
    4e1c:	54410007 	bnel	v0,at,4e3c <func_8009E0B8+0x224>
    4e20:	24010006 	li	at,6
    4e24:	918e1d31 	lbu	t6,7473(t4)
    4e28:	240f00ff 	li	t7,255
    4e2c:	01eec023 	subu	t8,t7,t6
    4e30:	10000014 	b	4e84 <func_8009E0B8+0x26c>
    4e34:	a3b800a3 	sb	t8,163(sp)
    4e38:	24010006 	li	at,6
    4e3c:	54410006 	bnel	v0,at,4e58 <func_8009E0B8+0x240>
    4e40:	28410004 	slti	at,v0,4
    4e44:	85991d30 	lh	t9,7472(t4)
    4e48:	272f01f4 	addiu	t7,t9,500
    4e4c:	1000000d 	b	4e84 <func_8009E0B8+0x26c>
    4e50:	a7af00a0 	sh	t7,160(sp)
    4e54:	28410004 	slti	at,v0,4
    4e58:	54200005 	bnezl	at,4e70 <func_8009E0B8+0x258>
    4e5c:	94780ed4 	lhu	t8,3796(v1)
    4e60:	8c6e0004 	lw	t6,4(v1)
    4e64:	55c00008 	bnezl	t6,4e88 <func_8009E0B8+0x270>
    4e68:	8d2202c0 	lw	v0,704(t1)
    4e6c:	94780ed4 	lhu	t8,3796(v1)
    4e70:	240f0866 	li	t7,2150
    4e74:	33190080 	andi	t9,t8,0x80
    4e78:	53200003 	beqzl	t9,4e88 <func_8009E0B8+0x270>
    4e7c:	8d2202c0 	lw	v0,704(t1)
    4e80:	a7af00a0 	sh	t7,160(sp)
    4e84:	8d2202c0 	lw	v0,704(t1)
    4e88:	3c18db06 	lui	t8,0xdb06
    4e8c:	37180028 	ori	t8,t8,0x28
    4e90:	244e0008 	addiu	t6,v0,8
    4e94:	ad2e02c0 	sw	t6,704(t1)
    4e98:	ac580000 	sw	t8,0(v0)
    4e9c:	ac4a0004 	sw	t2,4(v0)
    4ea0:	01401025 	move	v0,t2
    4ea4:	ac450000 	sw	a1,0(v0)
    4ea8:	ac400004 	sw	zero,4(v0)
    4eac:	254a0008 	addiu	t2,t2,8
    4eb0:	01401025 	move	v0,t2
    4eb4:	ac460000 	sw	a2,0(v0)
    4eb8:	93af00a3 	lbu	t7,163(sp)
    4ebc:	254a0008 	addiu	t2,t2,8
    4ec0:	3c04db06 	lui	a0,0xdb06
    4ec4:	01e77025 	or	t6,t7,a3
    4ec8:	ac4e0004 	sw	t6,4(v0)
    4ecc:	01401025 	move	v0,t2
    4ed0:	ac480000 	sw	t0,0(v0)
    4ed4:	ac400004 	sw	zero,4(v0)
    4ed8:	8d2202d0 	lw	v0,720(t1)
    4edc:	254a0008 	addiu	t2,t2,8
    4ee0:	3484002c 	ori	a0,a0,0x2c
    4ee4:	24580008 	addiu	t8,v0,8
    4ee8:	ad3802d0 	sw	t8,720(t1)
    4eec:	ac440000 	sw	a0,0(v0)
    4ef0:	ac4a0004 	sw	t2,4(v0)
    4ef4:	8d2202c0 	lw	v0,704(t1)
    4ef8:	3c014f80 	lui	at,0x4f80
    4efc:	24590008 	addiu	t9,v0,8
    4f00:	ad3902c0 	sw	t9,704(t1)
    4f04:	ac440000 	sw	a0,0(v0)
    4f08:	ac4a0004 	sw	t2,4(v0)
    4f0c:	01401025 	move	v0,t2
    4f10:	ac450000 	sw	a1,0(v0)
    4f14:	ac400004 	sw	zero,4(v0)
    4f18:	254a0008 	addiu	t2,t2,8
    4f1c:	01401025 	move	v0,t2
    4f20:	ac460000 	sw	a2,0(v0)
    4f24:	97af00a0 	lhu	t7,160(sp)
    4f28:	254a0008 	addiu	t2,t2,8
    4f2c:	448f2000 	mtc1	t7,$f4
    4f30:	05e10004 	bgez	t7,4f44 <func_8009E0B8+0x32c>
    4f34:	468021a0 	cvt.s.w	$f6,$f4
    4f38:	44814000 	mtc1	at,$f8
    4f3c:	00000000 	nop
    4f40:	46083180 	add.s	$f6,$f6,$f8
    4f44:	3c010000 	lui	at,0x0
    4f48:	c42a0840 	lwc1	$f10,2112(at)
    4f4c:	24180001 	li	t8,1
    4f50:	3c014f00 	lui	at,0x4f00
    4f54:	460a3402 	mul.s	$f16,$f6,$f10
    4f58:	444ef800 	cfc1	t6,$31
    4f5c:	44d8f800 	ctc1	t8,$31
    4f60:	00000000 	nop
    4f64:	460084a4 	cvt.w.s	$f18,$f16
    4f68:	4458f800 	cfc1	t8,$31
    4f6c:	00000000 	nop
    4f70:	33180078 	andi	t8,t8,0x78
    4f74:	53000013 	beqzl	t8,4fc4 <func_8009E0B8+0x3ac>
    4f78:	44189000 	mfc1	t8,$f18
    4f7c:	44819000 	mtc1	at,$f18
    4f80:	24180001 	li	t8,1
    4f84:	46128481 	sub.s	$f18,$f16,$f18
    4f88:	44d8f800 	ctc1	t8,$31
    4f8c:	00000000 	nop
    4f90:	460094a4 	cvt.w.s	$f18,$f18
    4f94:	4458f800 	cfc1	t8,$31
    4f98:	00000000 	nop
    4f9c:	33180078 	andi	t8,t8,0x78
    4fa0:	17000005 	bnez	t8,4fb8 <func_8009E0B8+0x3a0>
    4fa4:	00000000 	nop
    4fa8:	44189000 	mfc1	t8,$f18
    4fac:	3c018000 	lui	at,0x8000
    4fb0:	10000007 	b	4fd0 <func_8009E0B8+0x3b8>
    4fb4:	0301c025 	or	t8,t8,at
    4fb8:	10000005 	b	4fd0 <func_8009E0B8+0x3b8>
    4fbc:	2418ffff 	li	t8,-1
    4fc0:	44189000 	mfc1	t8,$f18
    4fc4:	00000000 	nop
    4fc8:	0700fffb 	bltz	t8,4fb8 <func_8009E0B8+0x3a0>
    4fcc:	00000000 	nop
    4fd0:	331900ff 	andi	t9,t8,0xff
    4fd4:	03277825 	or	t7,t9,a3
    4fd8:	ac4f0004 	sw	t7,4(v0)
    4fdc:	ad400004 	sw	zero,4(t2)
    4fe0:	ad480000 	sw	t0,0(t2)
    4fe4:	8d2202c0 	lw	v0,704(t1)
    4fe8:	44cef800 	ctc1	t6,$31
    4fec:	3c18db06 	lui	t8,0xdb06
    4ff0:	244e0008 	addiu	t6,v0,8
    4ff4:	ad2e02c0 	sw	t6,704(t1)
    4ff8:	37180030 	ori	t8,t8,0x30
    4ffc:	ac580000 	sw	t8,0(v0)
    5000:	858f1d30 	lh	t7,7472(t4)
    5004:	3c010000 	lui	at,0x0
    5008:	c4260844 	lwc1	$f6,2116(at)
    500c:	000f7023 	negu	t6,t7
    5010:	448e2000 	mtc1	t6,$f4
    5014:	8fb900a8 	lw	t9,168(sp)
    5018:	240e0001 	li	t6,1
    501c:	46802220 	cvt.s.w	$f8,$f4
    5020:	8f240000 	lw	a0,0(t9)
    5024:	24190020 	li	t9,32
    5028:	afb90010 	sw	t9,16(sp)
    502c:	24190010 	li	t9,16
    5030:	240f0010 	li	t7,16
    5034:	46064282 	mul.s	$f10,$f8,$f6
    5038:	24180020 	li	t8,32
    503c:	afb80024 	sw	t8,36(sp)
    5040:	afaf0014 	sw	t7,20(sp)
    5044:	afb90028 	sw	t9,40(sp)
    5048:	afa0001c 	sw	zero,28(sp)
    504c:	afae0018 	sw	t6,24(sp)
    5050:	4600540d 	trunc.w.s	$f16,$f10
    5054:	00002825 	move	a1,zero
    5058:	00003025 	move	a2,zero
    505c:	afa20048 	sw	v0,72(sp)
    5060:	44078000 	mfc1	a3,$f16
    5064:	00000000 	nop
    5068:	00073c00 	sll	a3,a3,0x10
    506c:	00073c03 	sra	a3,a3,0x10
    5070:	0c000000 	jal	0 <func_800994A0>
    5074:	afa70020 	sw	a3,32(sp)
    5078:	8fa30048 	lw	v1,72(sp)
    507c:	3c060000 	lui	a2,0x0
    5080:	24c6053c 	addiu	a2,a2,1340
    5084:	ac620004 	sw	v0,4(v1)
    5088:	8faf00a8 	lw	t7,168(sp)
    508c:	27a40088 	addiu	a0,sp,136
    5090:	24071b84 	li	a3,7044
    5094:	0c000000 	jal	0 <func_800994A0>
    5098:	8de50000 	lw	a1,0(t7)
    509c:	8fbf0034 	lw	ra,52(sp)
    50a0:	27bd00a8 	addiu	sp,sp,168
    50a4:	03e00008 	jr	ra
    50a8:	00000000 	nop

000050ac <func_8009E54C>:
    50ac:	27bdff80 	addiu	sp,sp,-128
    50b0:	afbf004c 	sw	ra,76(sp)
    50b4:	afb10048 	sw	s1,72(sp)
    50b8:	afb00044 	sw	s0,68(sp)
    50bc:	8c850000 	lw	a1,0(a0)
    50c0:	00808825 	move	s1,a0
    50c4:	3c060000 	lui	a2,0x0
    50c8:	24c60550 	addiu	a2,a2,1360
    50cc:	27a40068 	addiu	a0,sp,104
    50d0:	24071b92 	li	a3,7058
    50d4:	0c000000 	jal	0 <func_800994A0>
    50d8:	00a08025 	move	s0,a1
    50dc:	3c020000 	lui	v0,0x0
    50e0:	24420000 	addiu	v0,v0,0
    50e4:	8c4e1360 	lw	t6,4960(v0)
    50e8:	3c0bdb06 	lui	t3,0xdb06
    50ec:	356b0020 	ori	t3,t3,0x20
    50f0:	29c10004 	slti	at,t6,4
    50f4:	10200007 	beqz	at,5114 <func_8009E54C+0x68>
    50f8:	00002825 	move	a1,zero
    50fc:	8c4f0004 	lw	t7,4(v0)
    5100:	55e00009 	bnezl	t7,5128 <func_8009E54C+0x7c>
    5104:	8e0202c0 	lw	v0,704(s0)
    5108:	94580ee0 	lhu	t8,3808(v0)
    510c:	33190200 	andi	t9,t8,0x200
    5110:	17200004 	bnez	t9,5124 <func_8009E54C+0x78>
    5114:	3c010001 	lui	at,0x1
    5118:	00310821 	addu	at,at,s1
    511c:	24090057 	li	t1,87
    5120:	a4291d30 	sh	t1,7472(at)
    5124:	8e0202c0 	lw	v0,704(s0)
    5128:	3c010001 	lui	at,0x1
    512c:	02211821 	addu	v1,s1,at
    5130:	8c661de4 	lw	a2,7652(v1)
    5134:	244a0008 	addiu	t2,v0,8
    5138:	ae0a02c0 	sw	t2,704(s0)
    513c:	ac4b0000 	sw	t3,0(v0)
    5140:	8e240000 	lw	a0,0(s1)
    5144:	240c0020 	li	t4,32
    5148:	240d0020 	li	t5,32
    514c:	240e0001 	li	t6,1
    5150:	240f0020 	li	t7,32
    5154:	24180020 	li	t8,32
    5158:	afb80028 	sw	t8,40(sp)
    515c:	afaf0024 	sw	t7,36(sp)
    5160:	afae0018 	sw	t6,24(sp)
    5164:	afad0014 	sw	t5,20(sp)
    5168:	afac0010 	sw	t4,16(sp)
    516c:	afa00034 	sw	zero,52(sp)
    5170:	afa00030 	sw	zero,48(sp)
    5174:	afa0002c 	sw	zero,44(sp)
    5178:	afa00020 	sw	zero,32(sp)
    517c:	afa0001c 	sw	zero,28(sp)
    5180:	84791d30 	lh	t9,7472(v1)
    5184:	afa30054 	sw	v1,84(sp)
    5188:	afa20064 	sw	v0,100(sp)
    518c:	272900a8 	addiu	t1,t9,168
    5190:	afa90038 	sw	t1,56(sp)
    5194:	afa6007c 	sw	a2,124(sp)
    5198:	0c000000 	jal	0 <func_800994A0>
    519c:	00c03825 	move	a3,a2
    51a0:	8fa80064 	lw	t0,100(sp)
    51a4:	8fa30054 	lw	v1,84(sp)
    51a8:	3c0bdb06 	lui	t3,0xdb06
    51ac:	ad020004 	sw	v0,4(t0)
    51b0:	8e0202c0 	lw	v0,704(s0)
    51b4:	356b0024 	ori	t3,t3,0x24
    51b8:	240c0020 	li	t4,32
    51bc:	244a0008 	addiu	t2,v0,8
    51c0:	ae0a02c0 	sw	t2,704(s0)
    51c4:	ac4b0000 	sw	t3,0(v0)
    51c8:	8e240000 	lw	a0,0(s1)
    51cc:	240d0020 	li	t5,32
    51d0:	240e0001 	li	t6,1
    51d4:	240f0010 	li	t7,16
    51d8:	24180040 	li	t8,64
    51dc:	afb80028 	sw	t8,40(sp)
    51e0:	afaf0024 	sw	t7,36(sp)
    51e4:	afae0018 	sw	t6,24(sp)
    51e8:	afad0014 	sw	t5,20(sp)
    51ec:	afa00034 	sw	zero,52(sp)
    51f0:	afa00030 	sw	zero,48(sp)
    51f4:	afa0002c 	sw	zero,44(sp)
    51f8:	afa00020 	sw	zero,32(sp)
    51fc:	afa0001c 	sw	zero,28(sp)
    5200:	afac0010 	sw	t4,16(sp)
    5204:	8fa6007c 	lw	a2,124(sp)
    5208:	84791d30 	lh	t9,7472(v1)
    520c:	00002825 	move	a1,zero
    5210:	00063023 	negu	a2,a2
    5214:	272900a8 	addiu	t1,t9,168
    5218:	afa90038 	sw	t1,56(sp)
    521c:	00c03825 	move	a3,a2
    5220:	0c000000 	jal	0 <func_800994A0>
    5224:	afa20060 	sw	v0,96(sp)
    5228:	8fa80060 	lw	t0,96(sp)
    522c:	3c0be700 	lui	t3,0xe700
    5230:	3c0dfb00 	lui	t5,0xfb00
    5234:	ad020004 	sw	v0,4(t0)
    5238:	8e0202c0 	lw	v0,704(s0)
    523c:	240eff80 	li	t6,-128
    5240:	3c060000 	lui	a2,0x0
    5244:	244a0008 	addiu	t2,v0,8
    5248:	ae0a02c0 	sw	t2,704(s0)
    524c:	ac400004 	sw	zero,4(v0)
    5250:	ac4b0000 	sw	t3,0(v0)
    5254:	8e0202c0 	lw	v0,704(s0)
    5258:	24c60564 	addiu	a2,a2,1380
    525c:	27a40068 	addiu	a0,sp,104
    5260:	244c0008 	addiu	t4,v0,8
    5264:	ae0c02c0 	sw	t4,704(s0)
    5268:	ac4e0004 	sw	t6,4(v0)
    526c:	ac4d0000 	sw	t5,0(v0)
    5270:	8e250000 	lw	a1,0(s1)
    5274:	0c000000 	jal	0 <func_800994A0>
    5278:	24071bb9 	li	a3,7097
    527c:	8fbf004c 	lw	ra,76(sp)
    5280:	8fb00044 	lw	s0,68(sp)
    5284:	8fb10048 	lw	s1,72(sp)
    5288:	03e00008 	jr	ra
    528c:	27bd0080 	addiu	sp,sp,128

00005290 <func_8009E730>:
    5290:	27bdff90 	addiu	sp,sp,-112
    5294:	afbf0034 	sw	ra,52(sp)
    5298:	afa40070 	sw	a0,112(sp)
    529c:	8c850000 	lw	a1,0(a0)
    52a0:	3c060000 	lui	a2,0x0
    52a4:	24c60578 	addiu	a2,a2,1400
    52a8:	27a40054 	addiu	a0,sp,84
    52ac:	24071bd3 	li	a3,7123
    52b0:	0c000000 	jal	0 <func_800994A0>
    52b4:	afa50064 	sw	a1,100(sp)
    52b8:	8faa0070 	lw	t2,112(sp)
    52bc:	3c020001 	lui	v0,0x1
    52c0:	3c190000 	lui	t9,0x0
    52c4:	004a1021 	addu	v0,v0,t2
    52c8:	8c421de4 	lw	v0,7652(v0)
    52cc:	8f390004 	lw	t9,4(t9)
    52d0:	2418007f 	li	t8,127
    52d4:	304f007f 	andi	t7,v0,0x7f
    52d8:	8fa80064 	lw	t0,100(sp)
    52dc:	17200002 	bnez	t9,52e8 <func_8009E730+0x58>
    52e0:	030f1823 	subu	v1,t8,t7
    52e4:	00001825 	move	v1,zero
    52e8:	8d0202c0 	lw	v0,704(t0)
    52ec:	3c0cdb06 	lui	t4,0xdb06
    52f0:	358c0030 	ori	t4,t4,0x30
    52f4:	244b0008 	addiu	t3,v0,8
    52f8:	ad0b02c0 	sw	t3,704(t0)
    52fc:	ac4c0000 	sw	t4,0(v0)
    5300:	8d440000 	lw	a0,0(t2)
    5304:	240d0040 	li	t5,64
    5308:	240e0020 	li	t6,32
    530c:	24180001 	li	t8,1
    5310:	240f0040 	li	t7,64
    5314:	24190020 	li	t9,32
    5318:	afb90028 	sw	t9,40(sp)
    531c:	afaf0024 	sw	t7,36(sp)
    5320:	afb80018 	sw	t8,24(sp)
    5324:	afae0014 	sw	t6,20(sp)
    5328:	afad0010 	sw	t5,16(sp)
    532c:	afa80064 	sw	t0,100(sp)
    5330:	afa30020 	sw	v1,32(sp)
    5334:	afa0001c 	sw	zero,28(sp)
    5338:	00002825 	move	a1,zero
    533c:	00003025 	move	a2,zero
    5340:	00003825 	move	a3,zero
    5344:	0c000000 	jal	0 <func_800994A0>
    5348:	afa20050 	sw	v0,80(sp)
    534c:	8fa90050 	lw	t1,80(sp)
    5350:	8fa80064 	lw	t0,100(sp)
    5354:	3c0ce700 	lui	t4,0xe700
    5358:	ad220004 	sw	v0,4(t1)
    535c:	8d0202c0 	lw	v0,704(t0)
    5360:	3c188080 	lui	t8,0x8080
    5364:	37188080 	ori	t8,t8,0x8080
    5368:	244b0008 	addiu	t3,v0,8
    536c:	ad0b02c0 	sw	t3,704(t0)
    5370:	ac400004 	sw	zero,4(v0)
    5374:	ac4c0000 	sw	t4,0(v0)
    5378:	8d0202c0 	lw	v0,704(t0)
    537c:	3c0efb00 	lui	t6,0xfb00
    5380:	3c19db06 	lui	t9,0xdb06
    5384:	244d0008 	addiu	t5,v0,8
    5388:	ad0d02c0 	sw	t5,704(t0)
    538c:	ac580004 	sw	t8,4(v0)
    5390:	ac4e0000 	sw	t6,0(v0)
    5394:	8d0302d0 	lw	v1,720(t0)
    5398:	37390020 	ori	t9,t9,0x20
    539c:	3c0b0000 	lui	t3,0x0
    53a0:	246f0008 	addiu	t7,v1,8
    53a4:	ad0f02d0 	sw	t7,720(t0)
    53a8:	ac790000 	sw	t9,0(v1)
    53ac:	8d6b0010 	lw	t3,16(t3)
    53b0:	3c040000 	lui	a0,0x0
    53b4:	3c190000 	lui	t9,0x0
    53b8:	000b6080 	sll	t4,t3,0x2
    53bc:	008c2021 	addu	a0,a0,t4
    53c0:	8c840000 	lw	a0,0(a0)
    53c4:	3c0100ff 	lui	at,0xff
    53c8:	3421ffff 	ori	at,at,0xffff
    53cc:	00047100 	sll	t6,a0,0x4
    53d0:	000ec702 	srl	t8,t6,0x1c
    53d4:	00187880 	sll	t7,t8,0x2
    53d8:	032fc821 	addu	t9,t9,t7
    53dc:	8f390000 	lw	t9,0(t9)
    53e0:	00816824 	and	t5,a0,at
    53e4:	3c018000 	lui	at,0x8000
    53e8:	01b95821 	addu	t3,t5,t9
    53ec:	01616021 	addu	t4,t3,at
    53f0:	ac6c0004 	sw	t4,4(v1)
    53f4:	8fae0070 	lw	t6,112(sp)
    53f8:	3c060000 	lui	a2,0x0
    53fc:	24c6058c 	addiu	a2,a2,1420
    5400:	27a40054 	addiu	a0,sp,84
    5404:	24071beb 	li	a3,7147
    5408:	0c000000 	jal	0 <func_800994A0>
    540c:	8dc50000 	lw	a1,0(t6)
    5410:	8fbf0034 	lw	ra,52(sp)
    5414:	27bd0070 	addiu	sp,sp,112
    5418:	03e00008 	jr	ra
    541c:	00000000 	nop

00005420 <func_8009E8C0>:
    5420:	27bdff80 	addiu	sp,sp,-128
    5424:	afbf003c 	sw	ra,60(sp)
    5428:	afb10038 	sw	s1,56(sp)
    542c:	afb00034 	sw	s0,52(sp)
    5430:	8c850000 	lw	a1,0(a0)
    5434:	00808825 	move	s1,a0
    5438:	3c060000 	lui	a2,0x0
    543c:	24c605a0 	addiu	a2,a2,1440
    5440:	27a40068 	addiu	a0,sp,104
    5444:	24071bf9 	li	a3,7161
    5448:	0c000000 	jal	0 <func_800994A0>
    544c:	00a08025 	move	s0,a1
    5450:	8e0202c0 	lw	v0,704(s0)
    5454:	3c030001 	lui	v1,0x1
    5458:	00711821 	addu	v1,v1,s1
    545c:	8c631de4 	lw	v1,7652(v1)
    5460:	3c0fdb06 	lui	t7,0xdb06
    5464:	244e0008 	addiu	t6,v0,8
    5468:	ae0e02c0 	sw	t6,704(s0)
    546c:	35ef0020 	ori	t7,t7,0x20
    5470:	ac4f0000 	sw	t7,0(v0)
    5474:	8e240000 	lw	a0,0(s1)
    5478:	24180020 	li	t8,32
    547c:	24190020 	li	t9,32
    5480:	24090001 	li	t1,1
    5484:	240a0020 	li	t2,32
    5488:	240b0020 	li	t3,32
    548c:	3066007f 	andi	a2,v1,0x7f
    5490:	afa60048 	sw	a2,72(sp)
    5494:	afab0028 	sw	t3,40(sp)
    5498:	afaa0024 	sw	t2,36(sp)
    549c:	afa90018 	sw	t1,24(sp)
    54a0:	afb90014 	sw	t9,20(sp)
    54a4:	afb80010 	sw	t8,16(sp)
    54a8:	afa00020 	sw	zero,32(sp)
    54ac:	afa0001c 	sw	zero,28(sp)
    54b0:	00002825 	move	a1,zero
    54b4:	00003825 	move	a3,zero
    54b8:	afa20064 	sw	v0,100(sp)
    54bc:	0c000000 	jal	0 <func_800994A0>
    54c0:	afa3007c 	sw	v1,124(sp)
    54c4:	8fa80064 	lw	t0,100(sp)
    54c8:	8fa3007c 	lw	v1,124(sp)
    54cc:	3c0ddb06 	lui	t5,0xdb06
    54d0:	ad020004 	sw	v0,4(t0)
    54d4:	8e0202d0 	lw	v0,720(s0)
    54d8:	35ad0024 	ori	t5,t5,0x24
    54dc:	00037040 	sll	t6,v1,0x1
    54e0:	244c0008 	addiu	t4,v0,8
    54e4:	ae0c02d0 	sw	t4,720(s0)
    54e8:	ac4d0000 	sw	t5,0(v0)
    54ec:	8e240000 	lw	a0,0(s1)
    54f0:	31cf00ff 	andi	t7,t6,0xff
    54f4:	241800ff 	li	t8,255
    54f8:	030f3823 	subu	a3,t8,t7
    54fc:	240c0040 	li	t4,64
    5500:	24190040 	li	t9,64
    5504:	24090040 	li	t1,64
    5508:	240a0001 	li	t2,1
    550c:	240b0040 	li	t3,64
    5510:	afab0024 	sw	t3,36(sp)
    5514:	afaa0018 	sw	t2,24(sp)
    5518:	afa90014 	sw	t1,20(sp)
    551c:	afb90010 	sw	t9,16(sp)
    5520:	afac0028 	sw	t4,40(sp)
    5524:	afa70020 	sw	a3,32(sp)
    5528:	afa0001c 	sw	zero,28(sp)
    552c:	00002825 	move	a1,zero
    5530:	00003025 	move	a2,zero
    5534:	0c000000 	jal	0 <func_800994A0>
    5538:	afa20060 	sw	v0,96(sp)
    553c:	8fa80060 	lw	t0,96(sp)
    5540:	3c0edb06 	lui	t6,0xdb06
    5544:	35ce0028 	ori	t6,t6,0x28
    5548:	ad020004 	sw	v0,4(t0)
    554c:	8e0202d0 	lw	v0,720(s0)
    5550:	8fa70048 	lw	a3,72(sp)
    5554:	24180020 	li	t8,32
    5558:	244d0008 	addiu	t5,v0,8
    555c:	ae0d02d0 	sw	t5,720(s0)
    5560:	ac4e0000 	sw	t6,0(v0)
    5564:	8e240000 	lw	a0,0(s1)
    5568:	240f0020 	li	t7,32
    556c:	24190001 	li	t9,1
    5570:	24090020 	li	t1,32
    5574:	240a0020 	li	t2,32
    5578:	afaa0028 	sw	t2,40(sp)
    557c:	afa90024 	sw	t1,36(sp)
    5580:	afb90018 	sw	t9,24(sp)
    5584:	afaf0014 	sw	t7,20(sp)
    5588:	afa0001c 	sw	zero,28(sp)
    558c:	afb80010 	sw	t8,16(sp)
    5590:	00002825 	move	a1,zero
    5594:	00003025 	move	a2,zero
    5598:	afa2005c 	sw	v0,92(sp)
    559c:	0c000000 	jal	0 <func_800994A0>
    55a0:	afa70020 	sw	a3,32(sp)
    55a4:	8fa3005c 	lw	v1,92(sp)
    55a8:	3c04e700 	lui	a0,0xe700
    55ac:	3c068080 	lui	a2,0x8080
    55b0:	ac620004 	sw	v0,4(v1)
    55b4:	8e0202c0 	lw	v0,704(s0)
    55b8:	34c68080 	ori	a2,a2,0x8080
    55bc:	3c05fb00 	lui	a1,0xfb00
    55c0:	244b0008 	addiu	t3,v0,8
    55c4:	ae0b02c0 	sw	t3,704(s0)
    55c8:	ac400004 	sw	zero,4(v0)
    55cc:	ac440000 	sw	a0,0(v0)
    55d0:	8e0202c0 	lw	v0,704(s0)
    55d4:	24071c18 	li	a3,7192
    55d8:	244c0008 	addiu	t4,v0,8
    55dc:	ae0c02c0 	sw	t4,704(s0)
    55e0:	ac460004 	sw	a2,4(v0)
    55e4:	ac450000 	sw	a1,0(v0)
    55e8:	8e0202d0 	lw	v0,720(s0)
    55ec:	244d0008 	addiu	t5,v0,8
    55f0:	ae0d02d0 	sw	t5,720(s0)
    55f4:	ac400004 	sw	zero,4(v0)
    55f8:	ac440000 	sw	a0,0(v0)
    55fc:	8e0202d0 	lw	v0,720(s0)
    5600:	27a40068 	addiu	a0,sp,104
    5604:	244e0008 	addiu	t6,v0,8
    5608:	ae0e02d0 	sw	t6,720(s0)
    560c:	ac460004 	sw	a2,4(v0)
    5610:	3c060000 	lui	a2,0x0
    5614:	ac450000 	sw	a1,0(v0)
    5618:	8e250000 	lw	a1,0(s1)
    561c:	0c000000 	jal	0 <func_800994A0>
    5620:	24c605b4 	addiu	a2,a2,1460
    5624:	8fbf003c 	lw	ra,60(sp)
    5628:	8fb00034 	lw	s0,52(sp)
    562c:	8fb10038 	lw	s1,56(sp)
    5630:	03e00008 	jr	ra
    5634:	27bd0080 	addiu	sp,sp,128

00005638 <func_8009EAD8>:
    5638:	27bdff70 	addiu	sp,sp,-144
    563c:	afbf003c 	sw	ra,60(sp)
    5640:	afb10038 	sw	s1,56(sp)
    5644:	afb00034 	sw	s0,52(sp)
    5648:	8c850000 	lw	a1,0(a0)
    564c:	00808825 	move	s1,a0
    5650:	3c060000 	lui	a2,0x0
    5654:	24c605c8 	addiu	a2,a2,1480
    5658:	27a40078 	addiu	a0,sp,120
    565c:	24071c26 	li	a3,7206
    5660:	0c000000 	jal	0 <func_800994A0>
    5664:	00a08025 	move	s0,a1
    5668:	8e0202d0 	lw	v0,720(s0)
    566c:	3c090001 	lui	t1,0x1
    5670:	01314821 	addu	t1,t1,s1
    5674:	8d291de4 	lw	t1,7652(t1)
    5678:	3c0fdb06 	lui	t7,0xdb06
    567c:	244e0008 	addiu	t6,v0,8
    5680:	ae0e02d0 	sw	t6,720(s0)
    5684:	35ef0020 	ori	t7,t7,0x20
    5688:	ac4f0000 	sw	t7,0(v0)
    568c:	8e240000 	lw	a0,0(s1)
    5690:	00094080 	sll	t0,t1,0x2
    5694:	01094023 	subu	t0,t0,t1
    5698:	310703ff 	andi	a3,t0,0x3ff
    569c:	24180020 	li	t8,32
    56a0:	24190100 	li	t9,256
    56a4:	240a0001 	li	t2,1
    56a8:	240b0020 	li	t3,32
    56ac:	240c0100 	li	t4,256
    56b0:	afac0028 	sw	t4,40(sp)
    56b4:	afab0024 	sw	t3,36(sp)
    56b8:	afaa0018 	sw	t2,24(sp)
    56bc:	afb90014 	sw	t9,20(sp)
    56c0:	afb80010 	sw	t8,16(sp)
    56c4:	afa70020 	sw	a3,32(sp)
    56c8:	afa8004c 	sw	t0,76(sp)
    56cc:	afa0001c 	sw	zero,28(sp)
    56d0:	00002825 	move	a1,zero
    56d4:	00003025 	move	a2,zero
    56d8:	afa20074 	sw	v0,116(sp)
    56dc:	0c000000 	jal	0 <func_800994A0>
    56e0:	afa9008c 	sw	t1,140(sp)
    56e4:	8fa30074 	lw	v1,116(sp)
    56e8:	3c0edb06 	lui	t6,0xdb06
    56ec:	35ce0024 	ori	t6,t6,0x24
    56f0:	ac620004 	sw	v0,4(v1)
    56f4:	8e0202d0 	lw	v0,720(s0)
    56f8:	240f0040 	li	t7,64
    56fc:	24180040 	li	t8,64
    5700:	244d0008 	addiu	t5,v0,8
    5704:	ae0d02d0 	sw	t5,720(s0)
    5708:	ac4e0000 	sw	t6,0(v0)
    570c:	8e240000 	lw	a0,0(s1)
    5710:	8fa8008c 	lw	t0,140(sp)
    5714:	24190001 	li	t9,1
    5718:	240a0040 	li	t2,64
    571c:	240b0040 	li	t3,64
    5720:	310700ff 	andi	a3,t0,0xff
    5724:	afa70020 	sw	a3,32(sp)
    5728:	afab0028 	sw	t3,40(sp)
    572c:	afaa0024 	sw	t2,36(sp)
    5730:	afb90018 	sw	t9,24(sp)
    5734:	afa0001c 	sw	zero,28(sp)
    5738:	afb80014 	sw	t8,20(sp)
    573c:	afaf0010 	sw	t7,16(sp)
    5740:	00002825 	move	a1,zero
    5744:	00003025 	move	a2,zero
    5748:	afa20070 	sw	v0,112(sp)
    574c:	0c000000 	jal	0 <func_800994A0>
    5750:	afa80048 	sw	t0,72(sp)
    5754:	8fa30070 	lw	v1,112(sp)
    5758:	3c0ddb06 	lui	t5,0xdb06
    575c:	35ad0028 	ori	t5,t5,0x28
    5760:	ac620004 	sw	v0,4(v1)
    5764:	8e0202d0 	lw	v0,720(s0)
    5768:	240e0020 	li	t6,32
    576c:	240f0020 	li	t7,32
    5770:	244c0008 	addiu	t4,v0,8
    5774:	ae0c02d0 	sw	t4,720(s0)
    5778:	ac4d0000 	sw	t5,0(v0)
    577c:	8e240000 	lw	a0,0(s1)
    5780:	8fa7008c 	lw	a3,140(sp)
    5784:	24180001 	li	t8,1
    5788:	24190020 	li	t9,32
    578c:	00073840 	sll	a3,a3,0x1
    5790:	30e7007f 	andi	a3,a3,0x7f
    5794:	240a0020 	li	t2,32
    5798:	afaa0028 	sw	t2,40(sp)
    579c:	afa70020 	sw	a3,32(sp)
    57a0:	afb90024 	sw	t9,36(sp)
    57a4:	afb80018 	sw	t8,24(sp)
    57a8:	afa0001c 	sw	zero,28(sp)
    57ac:	afaf0014 	sw	t7,20(sp)
    57b0:	afae0010 	sw	t6,16(sp)
    57b4:	00002825 	move	a1,zero
    57b8:	00003025 	move	a2,zero
    57bc:	0c000000 	jal	0 <func_800994A0>
    57c0:	afa2006c 	sw	v0,108(sp)
    57c4:	8fa3006c 	lw	v1,108(sp)
    57c8:	3c0cdb06 	lui	t4,0xdb06
    57cc:	358c002c 	ori	t4,t4,0x2c
    57d0:	ac620004 	sw	v0,4(v1)
    57d4:	8e0202c0 	lw	v0,704(s0)
    57d8:	240a007f 	li	t2,127
    57dc:	240d0020 	li	t5,32
    57e0:	244b0008 	addiu	t3,v0,8
    57e4:	ae0b02c0 	sw	t3,704(s0)
    57e8:	ac4c0000 	sw	t4,0(v0)
    57ec:	8e240000 	lw	a0,0(s1)
    57f0:	8fb8004c 	lw	t8,76(sp)
    57f4:	240c0020 	li	t4,32
    57f8:	240e0020 	li	t6,32
    57fc:	3319007f 	andi	t9,t8,0x7f
    5800:	01595823 	subu	t3,t2,t9
    5804:	240f0001 	li	t7,1
    5808:	afaf0018 	sw	t7,24(sp)
    580c:	afab0020 	sw	t3,32(sp)
    5810:	afae0014 	sw	t6,20(sp)
    5814:	afac0024 	sw	t4,36(sp)
    5818:	afad0028 	sw	t5,40(sp)
    581c:	afa0001c 	sw	zero,28(sp)
    5820:	afad0010 	sw	t5,16(sp)
    5824:	00002825 	move	a1,zero
    5828:	00003025 	move	a2,zero
    582c:	00003825 	move	a3,zero
    5830:	0c000000 	jal	0 <func_800994A0>
    5834:	afa20068 	sw	v0,104(sp)
    5838:	8fa30068 	lw	v1,104(sp)
    583c:	3c0fdb06 	lui	t7,0xdb06
    5840:	35ef0030 	ori	t7,t7,0x30
    5844:	ac620004 	sw	v0,4(v1)
    5848:	8e0202d0 	lw	v0,720(s0)
    584c:	24180020 	li	t8,32
    5850:	240a0020 	li	t2,32
    5854:	244e0008 	addiu	t6,v0,8
    5858:	ae0e02d0 	sw	t6,720(s0)
    585c:	ac4f0000 	sw	t7,0(v0)
    5860:	8e240000 	lw	a0,0(s1)
    5864:	8fa70048 	lw	a3,72(sp)
    5868:	24190001 	li	t9,1
    586c:	240b0020 	li	t3,32
    5870:	240c0020 	li	t4,32
    5874:	30e7007f 	andi	a3,a3,0x7f
    5878:	afa70020 	sw	a3,32(sp)
    587c:	afac0028 	sw	t4,40(sp)
    5880:	afab0024 	sw	t3,36(sp)
    5884:	afb90018 	sw	t9,24(sp)
    5888:	afa0001c 	sw	zero,28(sp)
    588c:	afaa0014 	sw	t2,20(sp)
    5890:	afb80010 	sw	t8,16(sp)
    5894:	00002825 	move	a1,zero
    5898:	00003025 	move	a2,zero
    589c:	0c000000 	jal	0 <func_800994A0>
    58a0:	afa20064 	sw	v0,100(sp)
    58a4:	8fa30064 	lw	v1,100(sp)
    58a8:	3c0edb06 	lui	t6,0xdb06
    58ac:	35ce0034 	ori	t6,t6,0x34
    58b0:	ac620004 	sw	v0,4(v1)
    58b4:	8e0202d0 	lw	v0,720(s0)
    58b8:	240f0010 	li	t7,16
    58bc:	24180010 	li	t8,16
    58c0:	244d0008 	addiu	t5,v0,8
    58c4:	ae0d02d0 	sw	t5,720(s0)
    58c8:	ac4e0000 	sw	t6,0(v0)
    58cc:	8e240000 	lw	a0,0(s1)
    58d0:	8fa70048 	lw	a3,72(sp)
    58d4:	240a0001 	li	t2,1
    58d8:	24190010 	li	t9,16
    58dc:	240b0010 	li	t3,16
    58e0:	30e7003f 	andi	a3,a3,0x3f
    58e4:	afa70020 	sw	a3,32(sp)
    58e8:	afab0028 	sw	t3,40(sp)
    58ec:	afb90024 	sw	t9,36(sp)
    58f0:	afaa0018 	sw	t2,24(sp)
    58f4:	afa0001c 	sw	zero,28(sp)
    58f8:	afb80014 	sw	t8,20(sp)
    58fc:	afaf0010 	sw	t7,16(sp)
    5900:	00002825 	move	a1,zero
    5904:	00003025 	move	a2,zero
    5908:	0c000000 	jal	0 <func_800994A0>
    590c:	afa20060 	sw	v0,96(sp)
    5910:	8fa30060 	lw	v1,96(sp)
    5914:	3c04e700 	lui	a0,0xe700
    5918:	3c068080 	lui	a2,0x8080
    591c:	ac620004 	sw	v0,4(v1)
    5920:	8e0202c0 	lw	v0,704(s0)
    5924:	34c68080 	ori	a2,a2,0x8080
    5928:	3c05fb00 	lui	a1,0xfb00
    592c:	244c0008 	addiu	t4,v0,8
    5930:	ae0c02c0 	sw	t4,704(s0)
    5934:	ac400004 	sw	zero,4(v0)
    5938:	ac440000 	sw	a0,0(v0)
    593c:	8e0202c0 	lw	v0,704(s0)
    5940:	24071c5c 	li	a3,7260
    5944:	244d0008 	addiu	t5,v0,8
    5948:	ae0d02c0 	sw	t5,704(s0)
    594c:	ac460004 	sw	a2,4(v0)
    5950:	ac450000 	sw	a1,0(v0)
    5954:	8e0202d0 	lw	v0,720(s0)
    5958:	244e0008 	addiu	t6,v0,8
    595c:	ae0e02d0 	sw	t6,720(s0)
    5960:	ac400004 	sw	zero,4(v0)
    5964:	ac440000 	sw	a0,0(v0)
    5968:	8e0202d0 	lw	v0,720(s0)
    596c:	27a40078 	addiu	a0,sp,120
    5970:	244f0008 	addiu	t7,v0,8
    5974:	ae0f02d0 	sw	t7,720(s0)
    5978:	ac460004 	sw	a2,4(v0)
    597c:	3c060000 	lui	a2,0x0
    5980:	ac450000 	sw	a1,0(v0)
    5984:	8e250000 	lw	a1,0(s1)
    5988:	0c000000 	jal	0 <func_800994A0>
    598c:	24c605dc 	addiu	a2,a2,1500
    5990:	8fbf003c 	lw	ra,60(sp)
    5994:	8fb00034 	lw	s0,52(sp)
    5998:	8fb10038 	lw	s1,56(sp)
    599c:	03e00008 	jr	ra
    59a0:	27bd0090 	addiu	sp,sp,144

000059a4 <func_8009EE44>:
    59a4:	27bdff80 	addiu	sp,sp,-128
    59a8:	afbf003c 	sw	ra,60(sp)
    59ac:	afb00038 	sw	s0,56(sp)
    59b0:	afa40080 	sw	a0,128(sp)
    59b4:	8c850000 	lw	a1,0(a0)
    59b8:	3c060000 	lui	a2,0x0
    59bc:	24c605f0 	addiu	a2,a2,1520
    59c0:	27a40068 	addiu	a0,sp,104
    59c4:	24071c6a 	li	a3,7274
    59c8:	0c000000 	jal	0 <func_800994A0>
    59cc:	afa50078 	sw	a1,120(sp)
    59d0:	8fa80078 	lw	t0,120(sp)
    59d4:	8fab0080 	lw	t3,128(sp)
    59d8:	3c010001 	lui	at,0x1
    59dc:	8d0202d0 	lw	v0,720(t0)
    59e0:	01614821 	addu	t1,t3,at
    59e4:	8d2a1de4 	lw	t2,7652(t1)
    59e8:	244f0008 	addiu	t7,v0,8
    59ec:	3c18db06 	lui	t8,0xdb06
    59f0:	ad0f02d0 	sw	t7,720(t0)
    59f4:	37180020 	ori	t8,t8,0x20
    59f8:	ac580000 	sw	t8,0(v0)
    59fc:	8d640000 	lw	a0,0(t3)
    5a00:	240f0010 	li	t7,16
    5a04:	24190020 	li	t9,32
    5a08:	240c0010 	li	t4,16
    5a0c:	240d0001 	li	t5,1
    5a10:	240e0020 	li	t6,32
    5a14:	3150007f 	andi	s0,t2,0x7f
    5a18:	02003025 	move	a2,s0
    5a1c:	afb0001c 	sw	s0,28(sp)
    5a20:	afae0024 	sw	t6,36(sp)
    5a24:	afad0018 	sw	t5,24(sp)
    5a28:	afac0014 	sw	t4,20(sp)
    5a2c:	afb90010 	sw	t9,16(sp)
    5a30:	afaf0028 	sw	t7,40(sp)
    5a34:	afa9004c 	sw	t1,76(sp)
    5a38:	afa00020 	sw	zero,32(sp)
    5a3c:	00002825 	move	a1,zero
    5a40:	00003825 	move	a3,zero
    5a44:	afa80078 	sw	t0,120(sp)
    5a48:	0c000000 	jal	0 <func_800994A0>
    5a4c:	afa20064 	sw	v0,100(sp)
    5a50:	8fa30064 	lw	v1,100(sp)
    5a54:	8fa80078 	lw	t0,120(sp)
    5a58:	8fa9004c 	lw	t1,76(sp)
    5a5c:	ac620004 	sw	v0,4(v1)
    5a60:	8d0202d0 	lw	v0,720(t0)
    5a64:	3c19db06 	lui	t9,0xdb06
    5a68:	37390024 	ori	t9,t9,0x24
    5a6c:	24580008 	addiu	t8,v0,8
    5a70:	ad1802d0 	sw	t8,720(t0)
    5a74:	ac590000 	sw	t9,0(v0)
    5a78:	8fac0080 	lw	t4,128(sp)
    5a7c:	24190020 	li	t9,32
    5a80:	24180001 	li	t8,1
    5a84:	8d840000 	lw	a0,0(t4)
    5a88:	240c0020 	li	t4,32
    5a8c:	240d007f 	li	t5,127
    5a90:	240e0020 	li	t6,32
    5a94:	240f0020 	li	t7,32
    5a98:	afaf0014 	sw	t7,20(sp)
    5a9c:	afae0010 	sw	t6,16(sp)
    5aa0:	01b03023 	subu	a2,t5,s0
    5aa4:	afac0028 	sw	t4,40(sp)
    5aa8:	afb90024 	sw	t9,36(sp)
    5aac:	afb00020 	sw	s0,32(sp)
    5ab0:	afb0001c 	sw	s0,28(sp)
    5ab4:	afb80018 	sw	t8,24(sp)
    5ab8:	00002825 	move	a1,zero
    5abc:	02003825 	move	a3,s0
    5ac0:	afa80078 	sw	t0,120(sp)
    5ac4:	afa9004c 	sw	t1,76(sp)
    5ac8:	0c000000 	jal	0 <func_800994A0>
    5acc:	afa20060 	sw	v0,96(sp)
    5ad0:	8fa30060 	lw	v1,96(sp)
    5ad4:	8fa80078 	lw	t0,120(sp)
    5ad8:	8fa9004c 	lw	t1,76(sp)
    5adc:	ac620004 	sw	v0,4(v1)
    5ae0:	8d0202d0 	lw	v0,720(t0)
    5ae4:	3c04e700 	lui	a0,0xe700
    5ae8:	3c068080 	lui	a2,0x8080
    5aec:	244d0008 	addiu	t5,v0,8
    5af0:	ad0d02d0 	sw	t5,720(t0)
    5af4:	ac400004 	sw	zero,4(v0)
    5af8:	ac440000 	sw	a0,0(v0)
    5afc:	8d0202d0 	lw	v0,720(t0)
    5b00:	34c68080 	ori	a2,a2,0x8080
    5b04:	3c05fb00 	lui	a1,0xfb00
    5b08:	244e0008 	addiu	t6,v0,8
    5b0c:	ad0e02d0 	sw	t6,720(t0)
    5b10:	ac460004 	sw	a2,4(v0)
    5b14:	ac450000 	sw	a1,0(v0)
    5b18:	8d0302c0 	lw	v1,704(t0)
    5b1c:	3c0c0000 	lui	t4,0x0
    5b20:	246f0008 	addiu	t7,v1,8
    5b24:	ad0f02c0 	sw	t7,704(t0)
    5b28:	ac600004 	sw	zero,4(v1)
    5b2c:	ac640000 	sw	a0,0(v1)
    5b30:	8d0302c0 	lw	v1,704(t0)
    5b34:	24780008 	addiu	t8,v1,8
    5b38:	ad1802c0 	sw	t8,704(t0)
    5b3c:	ac660004 	sw	a2,4(v1)
    5b40:	ac650000 	sw	a1,0(v1)
    5b44:	85391d30 	lh	t9,7472(t1)
    5b48:	57200017 	bnezl	t9,5ba8 <func_8009EE44+0x204>
    5b4c:	8fb90080 	lw	t9,128(sp)
    5b50:	918c002f 	lbu	t4,47(t4)
    5b54:	3c0d0000 	lui	t5,0x0
    5b58:	2401002f 	li	at,47
    5b5c:	01ac6821 	addu	t5,t5,t4
    5b60:	91ad0074 	lbu	t5,116(t5)
    5b64:	55a10010 	bnel	t5,at,5ba8 <func_8009EE44+0x204>
    5b68:	8fb90080 	lw	t9,128(sp)
    5b6c:	85221d32 	lh	v0,7474(t1)
    5b70:	24010032 	li	at,50
    5b74:	8fae0080 	lw	t6,128(sp)
    5b78:	14410008 	bne	v0,at,5b9c <func_8009EE44+0x1f8>
    5b7c:	24052813 	li	a1,10259
    5b80:	8dc41c44 	lw	a0,7236(t6)
    5b84:	0c000000 	jal	0 <func_800994A0>
    5b88:	afa9004c 	sw	t1,76(sp)
    5b8c:	8fa9004c 	lw	t1,76(sp)
    5b90:	240f0001 	li	t7,1
    5b94:	a52f1d30 	sh	t7,7472(t1)
    5b98:	85221d32 	lh	v0,7474(t1)
    5b9c:	24580001 	addiu	t8,v0,1
    5ba0:	a5381d32 	sh	t8,7474(t1)
    5ba4:	8fb90080 	lw	t9,128(sp)
    5ba8:	3c060000 	lui	a2,0x0
    5bac:	24c60604 	addiu	a2,a2,1540
    5bb0:	27a40068 	addiu	a0,sp,104
    5bb4:	24071c8d 	li	a3,7309
    5bb8:	0c000000 	jal	0 <func_800994A0>
    5bbc:	8f250000 	lw	a1,0(t9)
    5bc0:	8fbf003c 	lw	ra,60(sp)
    5bc4:	8fb00038 	lw	s0,56(sp)
    5bc8:	27bd0080 	addiu	sp,sp,128
    5bcc:	03e00008 	jr	ra
    5bd0:	00000000 	nop

00005bd4 <func_8009F074>:
    5bd4:	27bdff98 	addiu	sp,sp,-104
    5bd8:	afbf0034 	sw	ra,52(sp)
    5bdc:	afa40068 	sw	a0,104(sp)
    5be0:	8c850000 	lw	a1,0(a0)
    5be4:	3c060000 	lui	a2,0x0
    5be8:	24c60618 	addiu	a2,a2,1560
    5bec:	27a40050 	addiu	a0,sp,80
    5bf0:	24071c9b 	li	a3,7323
    5bf4:	0c000000 	jal	0 <func_800994A0>
    5bf8:	afa50060 	sw	a1,96(sp)
    5bfc:	8fa80060 	lw	t0,96(sp)
    5c00:	8faa0068 	lw	t2,104(sp)
    5c04:	3c090001 	lui	t1,0x1
    5c08:	8d0202c0 	lw	v0,704(t0)
    5c0c:	012a4821 	addu	t1,t1,t2
    5c10:	8d291de4 	lw	t1,7652(t1)
    5c14:	3c18db06 	lui	t8,0xdb06
    5c18:	244f0008 	addiu	t7,v0,8
    5c1c:	37180020 	ori	t8,t8,0x20
    5c20:	ad0f02c0 	sw	t7,704(t0)
    5c24:	ac580000 	sw	t8,0(v0)
    5c28:	8d440000 	lw	a0,0(t2)
    5c2c:	240e007f 	li	t6,127
    5c30:	312d007f 	andi	t5,t1,0x7f
    5c34:	01cd7823 	subu	t7,t6,t5
    5c38:	24180020 	li	t8,32
    5c3c:	24190020 	li	t9,32
    5c40:	240b0020 	li	t3,32
    5c44:	240c0001 	li	t4,1
    5c48:	afac0018 	sw	t4,24(sp)
    5c4c:	afab0014 	sw	t3,20(sp)
    5c50:	afb90010 	sw	t9,16(sp)
    5c54:	afb90028 	sw	t9,40(sp)
    5c58:	afb80024 	sw	t8,36(sp)
    5c5c:	afaf0020 	sw	t7,32(sp)
    5c60:	afa0001c 	sw	zero,28(sp)
    5c64:	00002825 	move	a1,zero
    5c68:	00003025 	move	a2,zero
    5c6c:	00003825 	move	a3,zero
    5c70:	afa80060 	sw	t0,96(sp)
    5c74:	0c000000 	jal	0 <func_800994A0>
    5c78:	afa2004c 	sw	v0,76(sp)
    5c7c:	8fa3004c 	lw	v1,76(sp)
    5c80:	8fa80060 	lw	t0,96(sp)
    5c84:	3c04e700 	lui	a0,0xe700
    5c88:	ac620004 	sw	v0,4(v1)
    5c8c:	8d0202c0 	lw	v0,704(t0)
    5c90:	3c068080 	lui	a2,0x8080
    5c94:	34c68080 	ori	a2,a2,0x8080
    5c98:	244b0008 	addiu	t3,v0,8
    5c9c:	ad0b02c0 	sw	t3,704(t0)
    5ca0:	ac400004 	sw	zero,4(v0)
    5ca4:	ac440000 	sw	a0,0(v0)
    5ca8:	8d0202c0 	lw	v0,704(t0)
    5cac:	3c05fb00 	lui	a1,0xfb00
    5cb0:	24071cab 	li	a3,7339
    5cb4:	244c0008 	addiu	t4,v0,8
    5cb8:	ad0c02c0 	sw	t4,704(t0)
    5cbc:	ac460004 	sw	a2,4(v0)
    5cc0:	ac450000 	sw	a1,0(v0)
    5cc4:	8d0302d0 	lw	v1,720(t0)
    5cc8:	246e0008 	addiu	t6,v1,8
    5ccc:	ad0e02d0 	sw	t6,720(t0)
    5cd0:	ac600004 	sw	zero,4(v1)
    5cd4:	ac640000 	sw	a0,0(v1)
    5cd8:	8d0302d0 	lw	v1,720(t0)
    5cdc:	27a40050 	addiu	a0,sp,80
    5ce0:	246d0008 	addiu	t5,v1,8
    5ce4:	ad0d02d0 	sw	t5,720(t0)
    5ce8:	ac660004 	sw	a2,4(v1)
    5cec:	ac650000 	sw	a1,0(v1)
    5cf0:	8faf0068 	lw	t7,104(sp)
    5cf4:	3c060000 	lui	a2,0x0
    5cf8:	24c6062c 	addiu	a2,a2,1580
    5cfc:	0c000000 	jal	0 <func_800994A0>
    5d00:	8de50000 	lw	a1,0(t7)
    5d04:	8fbf0034 	lw	ra,52(sp)
    5d08:	27bd0068 	addiu	sp,sp,104
    5d0c:	03e00008 	jr	ra
    5d10:	00000000 	nop

00005d14 <func_8009F1B4>:
    5d14:	27bdffc0 	addiu	sp,sp,-64
    5d18:	afbf0014 	sw	ra,20(sp)
    5d1c:	afa40040 	sw	a0,64(sp)
    5d20:	8c850000 	lw	a1,0(a0)
    5d24:	3c060000 	lui	a2,0x0
    5d28:	24c60640 	addiu	a2,a2,1600
    5d2c:	27a4002c 	addiu	a0,sp,44
    5d30:	24071cc3 	li	a3,7363
    5d34:	0c000000 	jal	0 <func_800994A0>
    5d38:	afa5003c 	sw	a1,60(sp)
    5d3c:	8fa8003c 	lw	t0,60(sp)
    5d40:	3c18db06 	lui	t8,0xdb06
    5d44:	37180020 	ori	t8,t8,0x20
    5d48:	8d0302c0 	lw	v1,704(t0)
    5d4c:	3c190000 	lui	t9,0x0
    5d50:	3c040000 	lui	a0,0x0
    5d54:	246f0008 	addiu	t7,v1,8
    5d58:	ad0f02c0 	sw	t7,704(t0)
    5d5c:	ac780000 	sw	t8,0(v1)
    5d60:	8f390010 	lw	t9,16(t9)
    5d64:	3c0e0000 	lui	t6,0x0
    5d68:	3c0100ff 	lui	at,0xff
    5d6c:	00194880 	sll	t1,t9,0x2
    5d70:	00892021 	addu	a0,a0,t1
    5d74:	8c840000 	lw	a0,0(a0)
    5d78:	3421ffff 	ori	at,at,0xffff
    5d7c:	3c060000 	lui	a2,0x0
    5d80:	00045900 	sll	t3,a0,0x4
    5d84:	000b6702 	srl	t4,t3,0x1c
    5d88:	000c6880 	sll	t5,t4,0x2
    5d8c:	01cd7021 	addu	t6,t6,t5
    5d90:	8dce0000 	lw	t6,0(t6)
    5d94:	00815024 	and	t2,a0,at
    5d98:	3c018000 	lui	at,0x8000
    5d9c:	014e7821 	addu	t7,t2,t6
    5da0:	01e1c021 	addu	t8,t7,at
    5da4:	ac780004 	sw	t8,4(v1)
    5da8:	8fb90040 	lw	t9,64(sp)
    5dac:	27a4002c 	addiu	a0,sp,44
    5db0:	24c60654 	addiu	a2,a2,1620
    5db4:	24071ccb 	li	a3,7371
    5db8:	0c000000 	jal	0 <func_800994A0>
    5dbc:	8f250000 	lw	a1,0(t9)
    5dc0:	8fbf0014 	lw	ra,20(sp)
    5dc4:	27bd0040 	addiu	sp,sp,64
    5dc8:	03e00008 	jr	ra
    5dcc:	00000000 	nop

00005dd0 <func_8009F270>:
    5dd0:	27bdff88 	addiu	sp,sp,-120
    5dd4:	afbf003c 	sw	ra,60(sp)
    5dd8:	afb10038 	sw	s1,56(sp)
    5ddc:	afb00034 	sw	s0,52(sp)
    5de0:	8c850000 	lw	a1,0(a0)
    5de4:	00808825 	move	s1,a0
    5de8:	3c060000 	lui	a2,0x0
    5dec:	24c60668 	addiu	a2,a2,1640
    5df0:	27a40060 	addiu	a0,sp,96
    5df4:	24071cd9 	li	a3,7385
    5df8:	0c000000 	jal	0 <func_800994A0>
    5dfc:	00a08025 	move	s0,a1
    5e00:	8e0202c0 	lw	v0,704(s0)
    5e04:	3c080001 	lui	t0,0x1
    5e08:	01114021 	addu	t0,t0,s1
    5e0c:	8d081de4 	lw	t0,7652(t0)
    5e10:	3c0fdb06 	lui	t7,0xdb06
    5e14:	244e0008 	addiu	t6,v0,8
    5e18:	ae0e02c0 	sw	t6,704(s0)
    5e1c:	35ef0020 	ori	t7,t7,0x20
    5e20:	ac4f0000 	sw	t7,0(v0)
    5e24:	8e240000 	lw	a0,0(s1)
    5e28:	24180020 	li	t8,32
    5e2c:	24190020 	li	t9,32
    5e30:	24090001 	li	t1,1
    5e34:	240a0020 	li	t2,32
    5e38:	240b0020 	li	t3,32
    5e3c:	3107007f 	andi	a3,t0,0x7f
    5e40:	afa70020 	sw	a3,32(sp)
    5e44:	afa70044 	sw	a3,68(sp)
    5e48:	afab0028 	sw	t3,40(sp)
    5e4c:	afaa0024 	sw	t2,36(sp)
    5e50:	afa90018 	sw	t1,24(sp)
    5e54:	afb90014 	sw	t9,20(sp)
    5e58:	afb80010 	sw	t8,16(sp)
    5e5c:	afa0001c 	sw	zero,28(sp)
    5e60:	00002825 	move	a1,zero
    5e64:	00003025 	move	a2,zero
    5e68:	0c000000 	jal	0 <func_800994A0>
    5e6c:	afa2005c 	sw	v0,92(sp)
    5e70:	8fa3005c 	lw	v1,92(sp)
    5e74:	8fa70044 	lw	a3,68(sp)
    5e78:	3c0ddb06 	lui	t5,0xdb06
    5e7c:	ac620004 	sw	v0,4(v1)
    5e80:	8e0202d0 	lw	v0,720(s0)
    5e84:	35ad0024 	ori	t5,t5,0x24
    5e88:	240e0020 	li	t6,32
    5e8c:	244c0008 	addiu	t4,v0,8
    5e90:	ae0c02d0 	sw	t4,720(s0)
    5e94:	ac4d0000 	sw	t5,0(v0)
    5e98:	8e240000 	lw	a0,0(s1)
    5e9c:	240f0020 	li	t7,32
    5ea0:	24180001 	li	t8,1
    5ea4:	24190020 	li	t9,32
    5ea8:	24090020 	li	t1,32
    5eac:	afa90028 	sw	t1,40(sp)
    5eb0:	afb90024 	sw	t9,36(sp)
    5eb4:	afb80018 	sw	t8,24(sp)
    5eb8:	afaf0014 	sw	t7,20(sp)
    5ebc:	afa0001c 	sw	zero,28(sp)
    5ec0:	afae0010 	sw	t6,16(sp)
    5ec4:	00002825 	move	a1,zero
    5ec8:	00003025 	move	a2,zero
    5ecc:	afa70020 	sw	a3,32(sp)
    5ed0:	0c000000 	jal	0 <func_800994A0>
    5ed4:	afa20058 	sw	v0,88(sp)
    5ed8:	8fa30058 	lw	v1,88(sp)
    5edc:	3c04e700 	lui	a0,0xe700
    5ee0:	3c068080 	lui	a2,0x8080
    5ee4:	ac620004 	sw	v0,4(v1)
    5ee8:	8e0202c0 	lw	v0,704(s0)
    5eec:	34c68080 	ori	a2,a2,0x8080
    5ef0:	3c05fb00 	lui	a1,0xfb00
    5ef4:	244a0008 	addiu	t2,v0,8
    5ef8:	ae0a02c0 	sw	t2,704(s0)
    5efc:	ac400004 	sw	zero,4(v0)
    5f00:	ac440000 	sw	a0,0(v0)
    5f04:	8e0202c0 	lw	v0,704(s0)
    5f08:	24071cf1 	li	a3,7409
    5f0c:	244b0008 	addiu	t3,v0,8
    5f10:	ae0b02c0 	sw	t3,704(s0)
    5f14:	ac460004 	sw	a2,4(v0)
    5f18:	ac450000 	sw	a1,0(v0)
    5f1c:	8e0202d0 	lw	v0,720(s0)
    5f20:	244c0008 	addiu	t4,v0,8
    5f24:	ae0c02d0 	sw	t4,720(s0)
    5f28:	ac400004 	sw	zero,4(v0)
    5f2c:	ac440000 	sw	a0,0(v0)
    5f30:	8e0202d0 	lw	v0,720(s0)
    5f34:	27a40060 	addiu	a0,sp,96
    5f38:	244d0008 	addiu	t5,v0,8
    5f3c:	ae0d02d0 	sw	t5,720(s0)
    5f40:	ac460004 	sw	a2,4(v0)
    5f44:	3c060000 	lui	a2,0x0
    5f48:	ac450000 	sw	a1,0(v0)
    5f4c:	8e250000 	lw	a1,0(s1)
    5f50:	0c000000 	jal	0 <func_800994A0>
    5f54:	24c6067c 	addiu	a2,a2,1660
    5f58:	8fbf003c 	lw	ra,60(sp)
    5f5c:	8fb00034 	lw	s0,52(sp)
    5f60:	8fb10038 	lw	s1,56(sp)
    5f64:	03e00008 	jr	ra
    5f68:	27bd0078 	addiu	sp,sp,120

00005f6c <func_8009F40C>:
    5f6c:	27bdff80 	addiu	sp,sp,-128
    5f70:	afbf003c 	sw	ra,60(sp)
    5f74:	afb10038 	sw	s1,56(sp)
    5f78:	afb00034 	sw	s0,52(sp)
    5f7c:	8c850000 	lw	a1,0(a0)
    5f80:	00808825 	move	s1,a0
    5f84:	3c060000 	lui	a2,0x0
    5f88:	24c60690 	addiu	a2,a2,1680
    5f8c:	27a40068 	addiu	a0,sp,104
    5f90:	24071cff 	li	a3,7423
    5f94:	0c000000 	jal	0 <func_800994A0>
    5f98:	00a08025 	move	s0,a1
    5f9c:	3c030001 	lui	v1,0x1
    5fa0:	8e0202d0 	lw	v0,720(s0)
    5fa4:	00711821 	addu	v1,v1,s1
    5fa8:	8c631de4 	lw	v1,7652(v1)
    5fac:	3c0fdb06 	lui	t7,0xdb06
    5fb0:	244e0008 	addiu	t6,v0,8
    5fb4:	ae0e02d0 	sw	t6,720(s0)
    5fb8:	35ef0020 	ori	t7,t7,0x20
    5fbc:	ac4f0000 	sw	t7,0(v0)
    5fc0:	8e240000 	lw	a0,0(s1)
    5fc4:	00033880 	sll	a3,v1,0x2
    5fc8:	00e33821 	addu	a3,a3,v1
    5fcc:	00073840 	sll	a3,a3,0x1
    5fd0:	2418007f 	li	t8,127
    5fd4:	3068007f 	andi	t0,v1,0x7f
    5fd8:	03083023 	subu	a2,t8,t0
    5fdc:	30e7007f 	andi	a3,a3,0x7f
    5fe0:	24190020 	li	t9,32
    5fe4:	240a0020 	li	t2,32
    5fe8:	240b0001 	li	t3,1
    5fec:	240c0020 	li	t4,32
    5ff0:	240d0020 	li	t5,32
    5ff4:	afad0028 	sw	t5,40(sp)
    5ff8:	afac0024 	sw	t4,36(sp)
    5ffc:	afab0018 	sw	t3,24(sp)
    6000:	afaa0014 	sw	t2,20(sp)
    6004:	afb90010 	sw	t9,16(sp)
    6008:	afa70020 	sw	a3,32(sp)
    600c:	afa60048 	sw	a2,72(sp)
    6010:	afa8001c 	sw	t0,28(sp)
    6014:	afa8004c 	sw	t0,76(sp)
    6018:	00002825 	move	a1,zero
    601c:	afa20064 	sw	v0,100(sp)
    6020:	0c000000 	jal	0 <func_800994A0>
    6024:	afa3007c 	sw	v1,124(sp)
    6028:	8fa90064 	lw	t1,100(sp)
    602c:	8fa3007c 	lw	v1,124(sp)
    6030:	8fa8004c 	lw	t0,76(sp)
    6034:	8fa60048 	lw	a2,72(sp)
    6038:	ad220004 	sw	v0,4(t1)
    603c:	8e0202d0 	lw	v0,720(s0)
    6040:	3c0fdb06 	lui	t7,0xdb06
    6044:	35ef0024 	ori	t7,t7,0x24
    6048:	244e0008 	addiu	t6,v0,8
    604c:	ae0e02d0 	sw	t6,720(s0)
    6050:	ac4f0000 	sw	t7,0(v0)
    6054:	8e240000 	lw	a0,0(s1)
    6058:	00033880 	sll	a3,v1,0x2
    605c:	00e33823 	subu	a3,a3,v1
    6060:	30e7007f 	andi	a3,a3,0x7f
    6064:	24180020 	li	t8,32
    6068:	24190020 	li	t9,32
    606c:	240a0001 	li	t2,1
    6070:	240b0020 	li	t3,32
    6074:	240c0020 	li	t4,32
    6078:	afac0028 	sw	t4,40(sp)
    607c:	afab0024 	sw	t3,36(sp)
    6080:	afaa0018 	sw	t2,24(sp)
    6084:	afb90014 	sw	t9,20(sp)
    6088:	afb80010 	sw	t8,16(sp)
    608c:	afa70020 	sw	a3,32(sp)
    6090:	00002825 	move	a1,zero
    6094:	afa8001c 	sw	t0,28(sp)
    6098:	0c000000 	jal	0 <func_800994A0>
    609c:	afa20060 	sw	v0,96(sp)
    60a0:	8fa90060 	lw	t1,96(sp)
    60a4:	3c04e700 	lui	a0,0xe700
    60a8:	3c068080 	lui	a2,0x8080
    60ac:	ad220004 	sw	v0,4(t1)
    60b0:	8e0302c0 	lw	v1,704(s0)
    60b4:	34c68080 	ori	a2,a2,0x8080
    60b8:	3c05fb00 	lui	a1,0xfb00
    60bc:	246d0008 	addiu	t5,v1,8
    60c0:	ae0d02c0 	sw	t5,704(s0)
    60c4:	ac600004 	sw	zero,4(v1)
    60c8:	ac640000 	sw	a0,0(v1)
    60cc:	8e0302c0 	lw	v1,704(s0)
    60d0:	24071d13 	li	a3,7443
    60d4:	246e0008 	addiu	t6,v1,8
    60d8:	ae0e02c0 	sw	t6,704(s0)
    60dc:	ac660004 	sw	a2,4(v1)
    60e0:	ac650000 	sw	a1,0(v1)
    60e4:	8e0202d0 	lw	v0,720(s0)
    60e8:	244f0008 	addiu	t7,v0,8
    60ec:	ae0f02d0 	sw	t7,720(s0)
    60f0:	ac400004 	sw	zero,4(v0)
    60f4:	ac440000 	sw	a0,0(v0)
    60f8:	8e0202d0 	lw	v0,720(s0)
    60fc:	27a40068 	addiu	a0,sp,104
    6100:	24580008 	addiu	t8,v0,8
    6104:	ae1802d0 	sw	t8,720(s0)
    6108:	ac460004 	sw	a2,4(v0)
    610c:	3c060000 	lui	a2,0x0
    6110:	ac450000 	sw	a1,0(v0)
    6114:	8e250000 	lw	a1,0(s1)
    6118:	0c000000 	jal	0 <func_800994A0>
    611c:	24c606a4 	addiu	a2,a2,1700
    6120:	8fbf003c 	lw	ra,60(sp)
    6124:	8fb00034 	lw	s0,52(sp)
    6128:	8fb10038 	lw	s1,56(sp)
    612c:	03e00008 	jr	ra
    6130:	27bd0080 	addiu	sp,sp,128

00006134 <func_8009F5D4>:
    6134:	27bdffa8 	addiu	sp,sp,-88
    6138:	afbf0014 	sw	ra,20(sp)
    613c:	afa40058 	sw	a0,88(sp)
    6140:	8c840000 	lw	a0,0(a0)
    6144:	0c000000 	jal	0 <func_800994A0>
    6148:	24050018 	li	a1,24
    614c:	8faf0058 	lw	t7,88(sp)
    6150:	3c060000 	lui	a2,0x0
    6154:	24c606b8 	addiu	a2,a2,1720
    6158:	8de50000 	lw	a1,0(t7)
    615c:	afa20054 	sw	v0,84(sp)
    6160:	27a40040 	addiu	a0,sp,64
    6164:	24071d25 	li	a3,7461
    6168:	0c000000 	jal	0 <func_800994A0>
    616c:	afa50050 	sw	a1,80(sp)
    6170:	8fa90050 	lw	t1,80(sp)
    6174:	8fa80054 	lw	t0,84(sp)
    6178:	8faa0058 	lw	t2,88(sp)
    617c:	8d2202d0 	lw	v0,720(t1)
    6180:	3c19db06 	lui	t9,0xdb06
    6184:	37390020 	ori	t9,t9,0x20
    6188:	24580008 	addiu	t8,v0,8
    618c:	ad3802d0 	sw	t8,720(t1)
    6190:	ac480004 	sw	t0,4(v0)
    6194:	ac590000 	sw	t9,0(v0)
    6198:	3c020000 	lui	v0,0x0
    619c:	9442000c 	lhu	v0,12(v0)
    61a0:	28414aac 	slti	at,v0,19116
    61a4:	14200007 	bnez	at,61c4 <func_8009F5D4+0x90>
    61a8:	3401c001 	li	at,0xc001
    61ac:	0041082a 	slt	at,v0,at
    61b0:	10200004 	beqz	at,61c4 <func_8009F5D4+0x90>
    61b4:	3c0bdf00 	lui	t3,0xdf00
    61b8:	ad0b0000 	sw	t3,0(t0)
    61bc:	1000003b 	b	62ac <func_8009F5D4+0x178>
    61c0:	ad000004 	sw	zero,4(t0)
    61c4:	3401c001 	li	at,0xc001
    61c8:	0041082a 	slt	at,v0,at
    61cc:	14200011 	bnez	at,6214 <func_8009F5D4+0xe0>
    61d0:	3c0c0001 	lui	t4,0x1
    61d4:	018a6021 	addu	t4,t4,t2
    61d8:	858c1d30 	lh	t4,7472(t4)
    61dc:	240100ff 	li	at,255
    61e0:	240500ff 	li	a1,255
    61e4:	1181001c 	beq	t4,at,6258 <func_8009F5D4+0x124>
    61e8:	24060005 	li	a2,5
    61ec:	3c010001 	lui	at,0x1
    61f0:	34211d30 	ori	at,at,0x1d30
    61f4:	01412021 	addu	a0,t2,at
    61f8:	afa80054 	sw	t0,84(sp)
    61fc:	0c000000 	jal	0 <func_800994A0>
    6200:	afa90050 	sw	t1,80(sp)
    6204:	8fa80054 	lw	t0,84(sp)
    6208:	8fa90050 	lw	t1,80(sp)
    620c:	10000012 	b	6258 <func_8009F5D4+0x124>
    6210:	8faa0058 	lw	t2,88(sp)
    6214:	28414000 	slti	at,v0,16384
    6218:	1420000f 	bnez	at,6258 <func_8009F5D4+0x124>
    621c:	3c0d0001 	lui	t5,0x1
    6220:	01aa6821 	addu	t5,t5,t2
    6224:	85ad1d30 	lh	t5,7472(t5)
    6228:	3c010001 	lui	at,0x1
    622c:	34211d30 	ori	at,at,0x1d30
    6230:	11a00009 	beqz	t5,6258 <func_8009F5D4+0x124>
    6234:	01412021 	addu	a0,t2,at
    6238:	00002825 	move	a1,zero
    623c:	2406000a 	li	a2,10
    6240:	afa80054 	sw	t0,84(sp)
    6244:	0c000000 	jal	0 <func_800994A0>
    6248:	afa90050 	sw	t1,80(sp)
    624c:	8fa80054 	lw	t0,84(sp)
    6250:	8fa90050 	lw	t1,80(sp)
    6254:	8faa0058 	lw	t2,88(sp)
    6258:	3c010001 	lui	at,0x1
    625c:	01001025 	move	v0,t0
    6260:	3c0efa00 	lui	t6,0xfa00
    6264:	ac4e0000 	sw	t6,0(v0)
    6268:	01411821 	addu	v1,t2,at
    626c:	846f1d30 	lh	t7,7472(v1)
    6270:	2401ff00 	li	at,-256
    6274:	25080008 	addiu	t0,t0,8
    6278:	31f800ff 	andi	t8,t7,0xff
    627c:	0301c825 	or	t9,t8,at
    6280:	ac590004 	sw	t9,4(v0)
    6284:	01001025 	move	v0,t0
    6288:	3c0c0000 	lui	t4,0x0
    628c:	258c0000 	addiu	t4,t4,0
    6290:	3c0bde00 	lui	t3,0xde00
    6294:	ac4b0000 	sw	t3,0(v0)
    6298:	ac4c0004 	sw	t4,4(v0)
    629c:	3c0ddf00 	lui	t5,0xdf00
    62a0:	25080008 	addiu	t0,t0,8
    62a4:	ad0d0000 	sw	t5,0(t0)
    62a8:	ad000004 	sw	zero,4(t0)
    62ac:	8d2302c0 	lw	v1,704(t1)
    62b0:	3c04e700 	lui	a0,0xe700
    62b4:	3c068080 	lui	a2,0x8080
    62b8:	246e0008 	addiu	t6,v1,8
    62bc:	ad2e02c0 	sw	t6,704(t1)
    62c0:	ac600004 	sw	zero,4(v1)
    62c4:	ac640000 	sw	a0,0(v1)
    62c8:	8d2302c0 	lw	v1,704(t1)
    62cc:	34c68080 	ori	a2,a2,0x8080
    62d0:	3c05fb00 	lui	a1,0xfb00
    62d4:	246f0008 	addiu	t7,v1,8
    62d8:	ad2f02c0 	sw	t7,704(t1)
    62dc:	ac660004 	sw	a2,4(v1)
    62e0:	ac650000 	sw	a1,0(v1)
    62e4:	8d2202d0 	lw	v0,720(t1)
    62e8:	24071d47 	li	a3,7495
    62ec:	24580008 	addiu	t8,v0,8
    62f0:	ad3802d0 	sw	t8,720(t1)
    62f4:	ac400004 	sw	zero,4(v0)
    62f8:	ac440000 	sw	a0,0(v0)
    62fc:	8d2202d0 	lw	v0,720(t1)
    6300:	27a40040 	addiu	a0,sp,64
    6304:	24590008 	addiu	t9,v0,8
    6308:	ad3902d0 	sw	t9,720(t1)
    630c:	ac460004 	sw	a2,4(v0)
    6310:	3c060000 	lui	a2,0x0
    6314:	ac450000 	sw	a1,0(v0)
    6318:	8d450000 	lw	a1,0(t2)
    631c:	0c000000 	jal	0 <func_800994A0>
    6320:	24c606cc 	addiu	a2,a2,1740
    6324:	8fbf0014 	lw	ra,20(sp)
    6328:	27bd0058 	addiu	sp,sp,88
    632c:	03e00008 	jr	ra
    6330:	00000000 	nop

00006334 <func_8009F7D4>:
    6334:	27bdff90 	addiu	sp,sp,-112
    6338:	3c010001 	lui	at,0x1
    633c:	afbf0034 	sw	ra,52(sp)
    6340:	afa40070 	sw	a0,112(sp)
    6344:	00811021 	addu	v0,a0,at
    6348:	8c441de4 	lw	a0,7652(v0)
    634c:	afa2003c 	sw	v0,60(sp)
    6350:	00800821 	move	at,a0
    6354:	00042080 	sll	a0,a0,0x2
    6358:	00812023 	subu	a0,a0,at
    635c:	00042100 	sll	a0,a0,0x4
    6360:	00812023 	subu	a0,a0,at
    6364:	000420c0 	sll	a0,a0,0x3
    6368:	00812023 	subu	a0,a0,at
    636c:	00042080 	sll	a0,a0,0x2
    6370:	0c000000 	jal	0 <func_800994A0>
    6374:	3084ffff 	andi	a0,a0,0xffff
    6378:	8faf003c 	lw	t7,60(sp)
    637c:	00027203 	sra	t6,v0,0x8
    6380:	a3ae006f 	sb	t6,111(sp)
    6384:	8de41de4 	lw	a0,7652(t7)
    6388:	00800821 	move	at,a0
    638c:	00042080 	sll	a0,a0,0x2
    6390:	00812023 	subu	a0,a0,at
    6394:	00042100 	sll	a0,a0,0x4
    6398:	00812023 	subu	a0,a0,at
    639c:	000420c0 	sll	a0,a0,0x3
    63a0:	00812023 	subu	a0,a0,at
    63a4:	00042080 	sll	a0,a0,0x2
    63a8:	0c000000 	jal	0 <func_800994A0>
    63ac:	3084ffff 	andi	a0,a0,0xffff
    63b0:	8fb80070 	lw	t8,112(sp)
    63b4:	00024a03 	sra	t1,v0,0x8
    63b8:	00094e00 	sll	t1,t1,0x18
    63bc:	8f050000 	lw	a1,0(t8)
    63c0:	00094e03 	sra	t1,t1,0x18
    63c4:	3c060000 	lui	a2,0x0
    63c8:	24c606e0 	addiu	a2,a2,1760
    63cc:	a3a9006e 	sb	t1,110(sp)
    63d0:	27a40054 	addiu	a0,sp,84
    63d4:	24071d58 	li	a3,7512
    63d8:	0c000000 	jal	0 <func_800994A0>
    63dc:	afa50064 	sw	a1,100(sp)
    63e0:	83ab006f 	lb	t3,111(sp)
    63e4:	8fb9003c 	lw	t9,60(sp)
    63e8:	8fa80064 	lw	t0,100(sp)
    63ec:	000b6043 	sra	t4,t3,0x1
    63f0:	8f2a1de4 	lw	t2,7652(t9)
    63f4:	258d00c0 	addiu	t5,t4,192
    63f8:	a3ad006f 	sb	t5,111(sp)
    63fc:	8d0202c0 	lw	v0,704(t0)
    6400:	83a9006e 	lb	t1,110(sp)
    6404:	3c0fdb06 	lui	t7,0xdb06
    6408:	244e0008 	addiu	t6,v0,8
    640c:	35ef0020 	ori	t7,t7,0x20
    6410:	ad0e02c0 	sw	t6,704(t0)
    6414:	ac4f0000 	sw	t7,0(v0)
    6418:	8fb80070 	lw	t8,112(sp)
    641c:	00094843 	sra	t1,t1,0x1
    6420:	252900c0 	addiu	t1,t1,192
    6424:	8f040000 	lw	a0,0(t8)
    6428:	00094e00 	sll	t1,t1,0x18
    642c:	00094e03 	sra	t1,t1,0x18
    6430:	240e0020 	li	t6,32
    6434:	240d0020 	li	t5,32
    6438:	240c0001 	li	t4,1
    643c:	24190020 	li	t9,32
    6440:	240b0020 	li	t3,32
    6444:	3147007f 	andi	a3,t2,0x7f
    6448:	afa70020 	sw	a3,32(sp)
    644c:	afab0014 	sw	t3,20(sp)
    6450:	afb90010 	sw	t9,16(sp)
    6454:	afac0018 	sw	t4,24(sp)
    6458:	afad0024 	sw	t5,36(sp)
    645c:	afae0028 	sw	t6,40(sp)
    6460:	a3a9006e 	sb	t1,110(sp)
    6464:	afa0001c 	sw	zero,28(sp)
    6468:	00002825 	move	a1,zero
    646c:	00003025 	move	a2,zero
    6470:	afa80064 	sw	t0,100(sp)
    6474:	0c000000 	jal	0 <func_800994A0>
    6478:	afa20050 	sw	v0,80(sp)
    647c:	8fa30050 	lw	v1,80(sp)
    6480:	8fa80064 	lw	t0,100(sp)
    6484:	83a9006e 	lb	t1,110(sp)
    6488:	ac620004 	sw	v0,4(v1)
    648c:	8d0202c0 	lw	v0,704(t0)
    6490:	3c04e700 	lui	a0,0xe700
    6494:	3c05fb00 	lui	a1,0xfb00
    6498:	244f0008 	addiu	t7,v0,8
    649c:	ad0f02c0 	sw	t7,704(t0)
    64a0:	ac400004 	sw	zero,4(v0)
    64a4:	ac440000 	sw	a0,0(v0)
    64a8:	8d0202c0 	lw	v0,704(t0)
    64ac:	312d00ff 	andi	t5,t1,0xff
    64b0:	000d7400 	sll	t6,t5,0x10
    64b4:	24580008 	addiu	t8,v0,8
    64b8:	ad1802c0 	sw	t8,704(t0)
    64bc:	ac450000 	sw	a1,0(v0)
    64c0:	83ab006f 	lb	t3,111(sp)
    64c4:	3c060000 	lui	a2,0x0
    64c8:	24c606f4 	addiu	a2,a2,1780
    64cc:	000b6600 	sll	t4,t3,0x18
    64d0:	018ec025 	or	t8,t4,t6
    64d4:	3719ff80 	ori	t9,t8,0xff80
    64d8:	ac590004 	sw	t9,4(v0)
    64dc:	8d0302d0 	lw	v1,720(t0)
    64e0:	3c0c8080 	lui	t4,0x8080
    64e4:	358c8080 	ori	t4,t4,0x8080
    64e8:	246b0008 	addiu	t3,v1,8
    64ec:	ad0b02d0 	sw	t3,720(t0)
    64f0:	ac600004 	sw	zero,4(v1)
    64f4:	ac640000 	sw	a0,0(v1)
    64f8:	8d0302d0 	lw	v1,720(t0)
    64fc:	27a40054 	addiu	a0,sp,84
    6500:	24071d6a 	li	a3,7530
    6504:	246d0008 	addiu	t5,v1,8
    6508:	ad0d02d0 	sw	t5,720(t0)
    650c:	ac6c0004 	sw	t4,4(v1)
    6510:	ac650000 	sw	a1,0(v1)
    6514:	8fae0070 	lw	t6,112(sp)
    6518:	0c000000 	jal	0 <func_800994A0>
    651c:	8dc50000 	lw	a1,0(t6)
    6520:	8fbf0034 	lw	ra,52(sp)
    6524:	27bd0070 	addiu	sp,sp,112
    6528:	03e00008 	jr	ra
    652c:	00000000 	nop

00006530 <func_8009F9D0>:
    6530:	27bdff88 	addiu	sp,sp,-120
    6534:	afbf0034 	sw	ra,52(sp)
    6538:	afa40078 	sw	a0,120(sp)
    653c:	8c850000 	lw	a1,0(a0)
    6540:	3c060000 	lui	a2,0x0
    6544:	24c60708 	addiu	a2,a2,1800
    6548:	27a40060 	addiu	a0,sp,96
    654c:	24071d83 	li	a3,7555
    6550:	0c000000 	jal	0 <func_800994A0>
    6554:	afa50070 	sw	a1,112(sp)
    6558:	8fa80070 	lw	t0,112(sp)
    655c:	8fab0078 	lw	t3,120(sp)
    6560:	3c0a0001 	lui	t2,0x1
    6564:	8d0202c0 	lw	v0,704(t0)
    6568:	014b5021 	addu	t2,t2,t3
    656c:	8d4a1de4 	lw	t2,7652(t2)
    6570:	3c18db06 	lui	t8,0xdb06
    6574:	244f0008 	addiu	t7,v0,8
    6578:	37180020 	ori	t8,t8,0x20
    657c:	ad0f02c0 	sw	t7,704(t0)
    6580:	ac580000 	sw	t8,0(v0)
    6584:	8d640000 	lw	a0,0(t3)
    6588:	24180020 	li	t8,32
    658c:	240f0020 	li	t7,32
    6590:	2419007f 	li	t9,127
    6594:	240c0020 	li	t4,32
    6598:	240d0020 	li	t5,32
    659c:	240e0001 	li	t6,1
    65a0:	3143007f 	andi	v1,t2,0x7f
    65a4:	03233823 	subu	a3,t9,v1
    65a8:	afa3001c 	sw	v1,28(sp)
    65ac:	afae0018 	sw	t6,24(sp)
    65b0:	afad0014 	sw	t5,20(sp)
    65b4:	afac0010 	sw	t4,16(sp)
    65b8:	afaf0024 	sw	t7,36(sp)
    65bc:	afb80028 	sw	t8,40(sp)
    65c0:	afa00020 	sw	zero,32(sp)
    65c4:	00002825 	move	a1,zero
    65c8:	00003025 	move	a2,zero
    65cc:	afa80070 	sw	t0,112(sp)
    65d0:	0c000000 	jal	0 <func_800994A0>
    65d4:	afa2005c 	sw	v0,92(sp)
    65d8:	8fa9005c 	lw	t1,92(sp)
    65dc:	8fa80070 	lw	t0,112(sp)
    65e0:	3c04e700 	lui	a0,0xe700
    65e4:	ad220004 	sw	v0,4(t1)
    65e8:	8d0202c0 	lw	v0,704(t0)
    65ec:	3c068080 	lui	a2,0x8080
    65f0:	34c68080 	ori	a2,a2,0x8080
    65f4:	24590008 	addiu	t9,v0,8
    65f8:	ad1902c0 	sw	t9,704(t0)
    65fc:	ac400004 	sw	zero,4(v0)
    6600:	ac440000 	sw	a0,0(v0)
    6604:	8d0202c0 	lw	v0,704(t0)
    6608:	3c05fb00 	lui	a1,0xfb00
    660c:	3c18db06 	lui	t8,0xdb06
    6610:	244c0008 	addiu	t4,v0,8
    6614:	ad0c02c0 	sw	t4,704(t0)
    6618:	ac460004 	sw	a2,4(v0)
    661c:	ac450000 	sw	a1,0(v0)
    6620:	8d0202d0 	lw	v0,720(t0)
    6624:	37180020 	ori	t8,t8,0x20
    6628:	3c190000 	lui	t9,0x0
    662c:	244d0008 	addiu	t5,v0,8
    6630:	ad0d02d0 	sw	t5,720(t0)
    6634:	ac400004 	sw	zero,4(v0)
    6638:	ac440000 	sw	a0,0(v0)
    663c:	8d0202d0 	lw	v0,720(t0)
    6640:	3c040000 	lui	a0,0x0
    6644:	3c0100ff 	lui	at,0xff
    6648:	244e0008 	addiu	t6,v0,8
    664c:	ad0e02d0 	sw	t6,720(t0)
    6650:	ac460004 	sw	a2,4(v0)
    6654:	ac450000 	sw	a1,0(v0)
    6658:	8d0202d0 	lw	v0,720(t0)
    665c:	3421ffff 	ori	at,at,0xffff
    6660:	3c060000 	lui	a2,0x0
    6664:	244f0008 	addiu	t7,v0,8
    6668:	ad0f02d0 	sw	t7,720(t0)
    666c:	ac580000 	sw	t8,0(v0)
    6670:	8f390010 	lw	t9,16(t9)
    6674:	24c6071c 	addiu	a2,a2,1820
    6678:	24071d9a 	li	a3,7578
    667c:	00196080 	sll	t4,t9,0x2
    6680:	008c2021 	addu	a0,a0,t4
    6684:	8c840000 	lw	a0,0(a0)
    6688:	3c190000 	lui	t9,0x0
    668c:	00047100 	sll	t6,a0,0x4
    6690:	000e7f02 	srl	t7,t6,0x1c
    6694:	000fc080 	sll	t8,t7,0x2
    6698:	0338c821 	addu	t9,t9,t8
    669c:	8f390000 	lw	t9,0(t9)
    66a0:	00816824 	and	t5,a0,at
    66a4:	3c018000 	lui	at,0x8000
    66a8:	01b96021 	addu	t4,t5,t9
    66ac:	01817021 	addu	t6,t4,at
    66b0:	ac4e0004 	sw	t6,4(v0)
    66b4:	8faf0078 	lw	t7,120(sp)
    66b8:	27a40060 	addiu	a0,sp,96
    66bc:	0c000000 	jal	0 <func_800994A0>
    66c0:	8de50000 	lw	a1,0(t7)
    66c4:	8fbf0034 	lw	ra,52(sp)
    66c8:	27bd0078 	addiu	sp,sp,120
    66cc:	03e00008 	jr	ra
    66d0:	00000000 	nop

000066d4 <func_8009FB74>:
    66d4:	27bdffb0 	addiu	sp,sp,-80
    66d8:	afbf0014 	sw	ra,20(sp)
    66dc:	afa40050 	sw	a0,80(sp)
    66e0:	8c850000 	lw	a1,0(a0)
    66e4:	3c060000 	lui	a2,0x0
    66e8:	24c60730 	addiu	a2,a2,1840
    66ec:	27a4003c 	addiu	a0,sp,60
    66f0:	24071db2 	li	a3,7602
    66f4:	0c000000 	jal	0 <func_800994A0>
    66f8:	afa5004c 	sw	a1,76(sp)
    66fc:	8fa8004c 	lw	t0,76(sp)
    6700:	3c18db06 	lui	t8,0xdb06
    6704:	37180020 	ori	t8,t8,0x20
    6708:	8d0202c0 	lw	v0,704(t0)
    670c:	3c190000 	lui	t9,0x0
    6710:	3c040000 	lui	a0,0x0
    6714:	244f0008 	addiu	t7,v0,8
    6718:	ad0f02c0 	sw	t7,704(t0)
    671c:	ac580000 	sw	t8,0(v0)
    6720:	8f390010 	lw	t9,16(t9)
    6724:	3c0e0000 	lui	t6,0x0
    6728:	3c0100ff 	lui	at,0xff
    672c:	00194880 	sll	t1,t9,0x2
    6730:	00892021 	addu	a0,a0,t1
    6734:	8c840000 	lw	a0,0(a0)
    6738:	3421ffff 	ori	at,at,0xffff
    673c:	3c068080 	lui	a2,0x8080
    6740:	00045900 	sll	t3,a0,0x4
    6744:	000b6702 	srl	t4,t3,0x1c
    6748:	000c6880 	sll	t5,t4,0x2
    674c:	01cd7021 	addu	t6,t6,t5
    6750:	8dce0000 	lw	t6,0(t6)
    6754:	00815024 	and	t2,a0,at
    6758:	3c018000 	lui	at,0x8000
    675c:	014e7821 	addu	t7,t2,t6
    6760:	01e1c021 	addu	t8,t7,at
    6764:	ac580004 	sw	t8,4(v0)
    6768:	8d0202c0 	lw	v0,704(t0)
    676c:	3c04e700 	lui	a0,0xe700
    6770:	34c68080 	ori	a2,a2,0x8080
    6774:	24590008 	addiu	t9,v0,8
    6778:	ad1902c0 	sw	t9,704(t0)
    677c:	ac400004 	sw	zero,4(v0)
    6780:	ac440000 	sw	a0,0(v0)
    6784:	8d0202c0 	lw	v0,704(t0)
    6788:	3c05fb00 	lui	a1,0xfb00
    678c:	24071dbf 	li	a3,7615
    6790:	24490008 	addiu	t1,v0,8
    6794:	ad0902c0 	sw	t1,704(t0)
    6798:	ac460004 	sw	a2,4(v0)
    679c:	ac450000 	sw	a1,0(v0)
    67a0:	8d0302d0 	lw	v1,720(t0)
    67a4:	246b0008 	addiu	t3,v1,8
    67a8:	ad0b02d0 	sw	t3,720(t0)
    67ac:	ac600004 	sw	zero,4(v1)
    67b0:	ac640000 	sw	a0,0(v1)
    67b4:	8d0302d0 	lw	v1,720(t0)
    67b8:	27a4003c 	addiu	a0,sp,60
    67bc:	246c0008 	addiu	t4,v1,8
    67c0:	ad0c02d0 	sw	t4,720(t0)
    67c4:	ac660004 	sw	a2,4(v1)
    67c8:	ac650000 	sw	a1,0(v1)
    67cc:	8fad0050 	lw	t5,80(sp)
    67d0:	3c060000 	lui	a2,0x0
    67d4:	24c60744 	addiu	a2,a2,1860
    67d8:	0c000000 	jal	0 <func_800994A0>
    67dc:	8da50000 	lw	a1,0(t5)
    67e0:	8fbf0014 	lw	ra,20(sp)
    67e4:	27bd0050 	addiu	sp,sp,80
    67e8:	03e00008 	jr	ra
    67ec:	00000000 	nop

000067f0 <func_8009FC90>:
    67f0:	27bdff88 	addiu	sp,sp,-120
    67f4:	afbf003c 	sw	ra,60(sp)
    67f8:	afb10038 	sw	s1,56(sp)
    67fc:	afb00034 	sw	s0,52(sp)
    6800:	8c850000 	lw	a1,0(a0)
    6804:	00808825 	move	s1,a0
    6808:	3c060000 	lui	a2,0x0
    680c:	24c60758 	addiu	a2,a2,1880
    6810:	27a40060 	addiu	a0,sp,96
    6814:	24071dce 	li	a3,7630
    6818:	0c000000 	jal	0 <func_800994A0>
    681c:	00a08025 	move	s0,a1
    6820:	8e0202c0 	lw	v0,704(s0)
    6824:	3c080001 	lui	t0,0x1
    6828:	01114021 	addu	t0,t0,s1
    682c:	8d081de4 	lw	t0,7652(t0)
    6830:	3c0fdb06 	lui	t7,0xdb06
    6834:	244e0008 	addiu	t6,v0,8
    6838:	ae0e02c0 	sw	t6,704(s0)
    683c:	35ef0020 	ori	t7,t7,0x20
    6840:	ac4f0000 	sw	t7,0(v0)
    6844:	8e240000 	lw	a0,0(s1)
    6848:	2419007f 	li	t9,127
    684c:	3118007f 	andi	t8,t0,0x7f
    6850:	03383823 	subu	a3,t9,t8
    6854:	240f0020 	li	t7,32
    6858:	240e0020 	li	t6,32
    685c:	240b0020 	li	t3,32
    6860:	240c0020 	li	t4,32
    6864:	240d0001 	li	t5,1
    6868:	afad0018 	sw	t5,24(sp)
    686c:	afac0014 	sw	t4,20(sp)
    6870:	afab0010 	sw	t3,16(sp)
    6874:	afae0024 	sw	t6,36(sp)
    6878:	afaf0028 	sw	t7,40(sp)
    687c:	afa7001c 	sw	a3,28(sp)
    6880:	afa00020 	sw	zero,32(sp)
    6884:	00002825 	move	a1,zero
    6888:	00003025 	move	a2,zero
    688c:	afa2005c 	sw	v0,92(sp)
    6890:	0c000000 	jal	0 <func_800994A0>
    6894:	afa80074 	sw	t0,116(sp)
    6898:	8fa3005c 	lw	v1,92(sp)
    689c:	8fa80074 	lw	t0,116(sp)
    68a0:	3c18db06 	lui	t8,0xdb06
    68a4:	ac620004 	sw	v0,4(v1)
    68a8:	8e0202c0 	lw	v0,704(s0)
    68ac:	37180024 	ori	t8,t8,0x24
    68b0:	00081880 	sll	v1,t0,0x2
    68b4:	24590008 	addiu	t9,v0,8
    68b8:	ae1902c0 	sw	t9,704(s0)
    68bc:	ac580000 	sw	t8,0(v0)
    68c0:	8e240000 	lw	a0,0(s1)
    68c4:	00083080 	sll	a2,t0,0x2
    68c8:	00c83023 	subu	a2,a2,t0
    68cc:	00681823 	subu	v1,v1,t0
    68d0:	240a007f 	li	t2,127
    68d4:	00031840 	sll	v1,v1,0x1
    68d8:	30c6007f 	andi	a2,a2,0x7f
    68dc:	01467023 	subu	t6,t2,a2
    68e0:	3063007f 	andi	v1,v1,0x7f
    68e4:	24190020 	li	t9,32
    68e8:	240b0020 	li	t3,32
    68ec:	240c0020 	li	t4,32
    68f0:	240d0001 	li	t5,1
    68f4:	240f0020 	li	t7,32
    68f8:	afaf0024 	sw	t7,36(sp)
    68fc:	afad0018 	sw	t5,24(sp)
    6900:	afac0014 	sw	t4,20(sp)
    6904:	afab0010 	sw	t3,16(sp)
    6908:	afb90028 	sw	t9,40(sp)
    690c:	01433823 	subu	a3,t2,v1
    6910:	afa3001c 	sw	v1,28(sp)
    6914:	afae0020 	sw	t6,32(sp)
    6918:	00002825 	move	a1,zero
    691c:	0c000000 	jal	0 <func_800994A0>
    6920:	afa20058 	sw	v0,88(sp)
    6924:	8fa90058 	lw	t1,88(sp)
    6928:	3c04e700 	lui	a0,0xe700
    692c:	3c068080 	lui	a2,0x8080
    6930:	ad220004 	sw	v0,4(t1)
    6934:	8e0202c0 	lw	v0,704(s0)
    6938:	34c68040 	ori	a2,a2,0x8040
    693c:	3c05fb00 	lui	a1,0xfb00
    6940:	24580008 	addiu	t8,v0,8
    6944:	ae1802c0 	sw	t8,704(s0)
    6948:	ac400004 	sw	zero,4(v0)
    694c:	ac440000 	sw	a0,0(v0)
    6950:	8e0202c0 	lw	v0,704(s0)
    6954:	24071de5 	li	a3,7653
    6958:	244b0008 	addiu	t3,v0,8
    695c:	ae0b02c0 	sw	t3,704(s0)
    6960:	ac460004 	sw	a2,4(v0)
    6964:	ac450000 	sw	a1,0(v0)
    6968:	8e0302d0 	lw	v1,720(s0)
    696c:	246c0008 	addiu	t4,v1,8
    6970:	ae0c02d0 	sw	t4,720(s0)
    6974:	ac600004 	sw	zero,4(v1)
    6978:	ac640000 	sw	a0,0(v1)
    697c:	8e0302d0 	lw	v1,720(s0)
    6980:	27a40060 	addiu	a0,sp,96
    6984:	246d0008 	addiu	t5,v1,8
    6988:	ae0d02d0 	sw	t5,720(s0)
    698c:	ac660004 	sw	a2,4(v1)
    6990:	3c060000 	lui	a2,0x0
    6994:	ac650000 	sw	a1,0(v1)
    6998:	8e250000 	lw	a1,0(s1)
    699c:	0c000000 	jal	0 <func_800994A0>
    69a0:	24c6076c 	addiu	a2,a2,1900
    69a4:	8fbf003c 	lw	ra,60(sp)
    69a8:	8fb00034 	lw	s0,52(sp)
    69ac:	8fb10038 	lw	s1,56(sp)
    69b0:	03e00008 	jr	ra
    69b4:	27bd0078 	addiu	sp,sp,120

000069b8 <func_8009FE58>:
    69b8:	27bdff68 	addiu	sp,sp,-152
    69bc:	afbf003c 	sw	ra,60(sp)
    69c0:	afb00038 	sw	s0,56(sp)
    69c4:	afa40098 	sw	a0,152(sp)
    69c8:	8c850000 	lw	a1,0(a0)
    69cc:	3c060000 	lui	a2,0x0
    69d0:	24c60000 	addiu	a2,a2,0
    69d4:	27a4007c 	addiu	a0,sp,124
    69d8:	24071e20 	li	a3,7712
    69dc:	0c000000 	jal	0 <func_800994A0>
    69e0:	00a08025 	move	s0,a1
    69e4:	8faa0098 	lw	t2,152(sp)
    69e8:	3c010001 	lui	at,0x1
    69ec:	240c007f 	li	t4,127
    69f0:	01417821 	addu	t7,t2,at
    69f4:	afaf0048 	sw	t7,72(sp)
    69f8:	855900a4 	lh	t9,164(t2)
    69fc:	8de81de4 	lw	t0,7652(t7)
    6a00:	24010002 	li	at,2
    6a04:	1721003f 	bne	t9,at,6b04 <func_8009FE58+0x14c>
    6a08:	01001825 	move	v1,t0
    6a0c:	8e0202c0 	lw	v0,704(s0)
    6a10:	3c0cdb06 	lui	t4,0xdb06
    6a14:	358c0020 	ori	t4,t4,0x20
    6a18:	244b0008 	addiu	t3,v0,8
    6a1c:	ae0b02c0 	sw	t3,704(s0)
    6a20:	ac4c0000 	sw	t4,0(v0)
    6a24:	8d440000 	lw	a0,0(t2)
    6a28:	3106007f 	andi	a2,t0,0x7f
    6a2c:	00083840 	sll	a3,t0,0x1
    6a30:	2418007f 	li	t8,127
    6a34:	0306c823 	subu	t9,t8,a2
    6a38:	30e7007f 	andi	a3,a3,0x7f
    6a3c:	240c0020 	li	t4,32
    6a40:	240b0020 	li	t3,32
    6a44:	240d0020 	li	t5,32
    6a48:	240e0020 	li	t6,32
    6a4c:	240f0001 	li	t7,1
    6a50:	afaf0018 	sw	t7,24(sp)
    6a54:	afae0014 	sw	t6,20(sp)
    6a58:	afad0010 	sw	t5,16(sp)
    6a5c:	afab0024 	sw	t3,36(sp)
    6a60:	afac0028 	sw	t4,40(sp)
    6a64:	afa70020 	sw	a3,32(sp)
    6a68:	afb9001c 	sw	t9,28(sp)
    6a6c:	afa80094 	sw	t0,148(sp)
    6a70:	00002825 	move	a1,zero
    6a74:	0c000000 	jal	0 <func_800994A0>
    6a78:	afa20078 	sw	v0,120(sp)
    6a7c:	8fa30078 	lw	v1,120(sp)
    6a80:	8fa80094 	lw	t0,148(sp)
    6a84:	3c0edb06 	lui	t6,0xdb06
    6a88:	ac620004 	sw	v0,4(v1)
    6a8c:	8e0202c0 	lw	v0,704(s0)
    6a90:	35ce002c 	ori	t6,t6,0x2c
    6a94:	0008c080 	sll	t8,t0,0x2
    6a98:	244d0008 	addiu	t5,v0,8
    6a9c:	ae0d02c0 	sw	t5,704(s0)
    6aa0:	ac4e0000 	sw	t6,0(v0)
    6aa4:	8faf0098 	lw	t7,152(sp)
    6aa8:	331900ff 	andi	t9,t8,0xff
    6aac:	240b00ff 	li	t3,255
    6ab0:	8de40000 	lw	a0,0(t7)
    6ab4:	240f0020 	li	t7,32
    6ab8:	01793823 	subu	a3,t3,t9
    6abc:	24180040 	li	t8,64
    6ac0:	240e0001 	li	t6,1
    6ac4:	240d0040 	li	t5,64
    6ac8:	240c0020 	li	t4,32
    6acc:	afac0010 	sw	t4,16(sp)
    6ad0:	afad0014 	sw	t5,20(sp)
    6ad4:	afae0018 	sw	t6,24(sp)
    6ad8:	afb80028 	sw	t8,40(sp)
    6adc:	afa70020 	sw	a3,32(sp)
    6ae0:	afaf0024 	sw	t7,36(sp)
    6ae4:	afa0001c 	sw	zero,28(sp)
    6ae8:	00002825 	move	a1,zero
    6aec:	00003025 	move	a2,zero
    6af0:	0c000000 	jal	0 <func_800994A0>
    6af4:	afa20074 	sw	v0,116(sp)
    6af8:	8fa30074 	lw	v1,116(sp)
    6afc:	10000012 	b	6b48 <func_8009FE58+0x190>
    6b00:	ac620004 	sw	v0,4(v1)
    6b04:	8e0202c0 	lw	v0,704(s0)
    6b08:	3c19db06 	lui	t9,0xdb06
    6b0c:	37390020 	ori	t9,t9,0x20
    6b10:	244b0008 	addiu	t3,v0,8
    6b14:	ae0b02c0 	sw	t3,704(s0)
    6b18:	ac590000 	sw	t9,0(v0)
    6b1c:	8d440000 	lw	a0,0(t2)
    6b20:	01882823 	subu	a1,t4,t0
    6b24:	240d0020 	li	t5,32
    6b28:	afad0010 	sw	t5,16(sp)
    6b2c:	30a5007f 	andi	a1,a1,0x7f
    6b30:	3106007f 	andi	a2,t0,0x7f
    6b34:	24070020 	li	a3,32
    6b38:	0c000000 	jal	0 <func_800994A0>
    6b3c:	afa20070 	sw	v0,112(sp)
    6b40:	8fa90070 	lw	t1,112(sp)
    6b44:	ad220004 	sw	v0,4(t1)
    6b48:	8e0202c0 	lw	v0,704(s0)
    6b4c:	3c04e700 	lui	a0,0xe700
    6b50:	3c068080 	lui	a2,0x8080
    6b54:	244e0008 	addiu	t6,v0,8
    6b58:	ae0e02c0 	sw	t6,704(s0)
    6b5c:	ac400004 	sw	zero,4(v0)
    6b60:	ac440000 	sw	a0,0(v0)
    6b64:	8e0202c0 	lw	v0,704(s0)
    6b68:	34c68080 	ori	a2,a2,0x8080
    6b6c:	3c05fb00 	lui	a1,0xfb00
    6b70:	244f0008 	addiu	t7,v0,8
    6b74:	ae0f02c0 	sw	t7,704(s0)
    6b78:	ac460004 	sw	a2,4(v0)
    6b7c:	ac450000 	sw	a1,0(v0)
    6b80:	8e0302d0 	lw	v1,720(s0)
    6b84:	24780008 	addiu	t8,v1,8
    6b88:	ae1802d0 	sw	t8,720(s0)
    6b8c:	ac600004 	sw	zero,4(v1)
    6b90:	ac640000 	sw	a0,0(v1)
    6b94:	8e0302d0 	lw	v1,720(s0)
    6b98:	246b0008 	addiu	t3,v1,8
    6b9c:	ae0b02d0 	sw	t3,720(s0)
    6ba0:	ac660004 	sw	a2,4(v1)
    6ba4:	ac650000 	sw	a1,0(v1)
    6ba8:	0c000000 	jal	0 <func_800994A0>
    6bac:	8fa40098 	lw	a0,152(sp)
    6bb0:	24010001 	li	at,1
    6bb4:	1041007d 	beq	v0,at,6dac <func_8009FE58+0x3f4>
    6bb8:	3c040000 	lui	a0,0x0
    6bbc:	3c190000 	lui	t9,0x0
    6bc0:	84840000 	lh	a0,0(a0)
    6bc4:	87390000 	lh	t9,0(t9)
    6bc8:	3c010000 	lui	at,0x0
    6bcc:	2484071c 	addiu	a0,a0,1820
    6bd0:	272c071c 	addiu	t4,t9,1820
    6bd4:	00042400 	sll	a0,a0,0x10
    6bd8:	a42c0000 	sh	t4,0(at)
    6bdc:	00042403 	sra	a0,a0,0x10
    6be0:	3c010000 	lui	at,0x0
    6be4:	0c000000 	jal	0 <func_800994A0>
    6be8:	a4240000 	sh	a0,0(at)
    6bec:	3c040000 	lui	a0,0x0
    6bf0:	84840000 	lh	a0,0(a0)
    6bf4:	0c000000 	jal	0 <func_800994A0>
    6bf8:	e7a00050 	swc1	$f0,80(sp)
    6bfc:	3c040000 	lui	a0,0x0
    6c00:	84840000 	lh	a0,0(a0)
    6c04:	0c000000 	jal	0 <func_800994A0>
    6c08:	e7a00054 	swc1	$f0,84(sp)
    6c0c:	3c010000 	lui	at,0x0
    6c10:	c4240000 	lwc1	$f4,0(at)
    6c14:	3c010000 	lui	at,0x0
    6c18:	c4260000 	lwc1	$f6,0(at)
    6c1c:	c7a80050 	lwc1	$f8,80(sp)
    6c20:	c7b00054 	lwc1	$f16,84(sp)
    6c24:	46062082 	mul.s	$f2,$f4,$f6
    6c28:	8fa40098 	lw	a0,152(sp)
    6c2c:	248400b8 	addiu	a0,a0,184
    6c30:	afa40044 	sw	a0,68(sp)
    6c34:	46024282 	mul.s	$f10,$f8,$f2
    6c38:	00000000 	nop
    6c3c:	46028482 	mul.s	$f18,$f16,$f2
    6c40:	00000000 	nop
    6c44:	46020102 	mul.s	$f4,$f0,$f2
    6c48:	44055000 	mfc1	a1,$f10
    6c4c:	44069000 	mfc1	a2,$f18
    6c50:	44072000 	mfc1	a3,$f4
    6c54:	0c000000 	jal	0 <func_800994A0>
    6c58:	00000000 	nop
    6c5c:	3c040000 	lui	a0,0x0
    6c60:	0c000000 	jal	0 <func_800994A0>
    6c64:	84840000 	lh	a0,0(a0)
    6c68:	3c040000 	lui	a0,0x0
    6c6c:	84840000 	lh	a0,0(a0)
    6c70:	0c000000 	jal	0 <func_800994A0>
    6c74:	e7a00050 	swc1	$f0,80(sp)
    6c78:	3c040000 	lui	a0,0x0
    6c7c:	84840000 	lh	a0,0(a0)
    6c80:	0c000000 	jal	0 <func_800994A0>
    6c84:	e7a00054 	swc1	$f0,84(sp)
    6c88:	3c013f80 	lui	at,0x3f80
    6c8c:	44811000 	mtc1	at,$f2
    6c90:	3c010000 	lui	at,0x0
    6c94:	c42c0000 	lwc1	$f12,0(at)
    6c98:	3c010000 	lui	at,0x0
    6c9c:	c4280000 	lwc1	$f8,0(at)
    6ca0:	c7a60050 	lwc1	$f6,80(sp)
    6ca4:	3c010000 	lui	at,0x0
    6ca8:	460c4282 	mul.s	$f10,$f8,$f12
    6cac:	c4280000 	lwc1	$f8,0(at)
    6cb0:	c7a40054 	lwc1	$f4,84(sp)
    6cb4:	3c013f80 	lui	at,0x3f80
    6cb8:	8fa40044 	lw	a0,68(sp)
    6cbc:	460a3402 	mul.s	$f16,$f6,$f10
    6cc0:	46028480 	add.s	$f18,$f16,$f2
    6cc4:	460c4182 	mul.s	$f6,$f8,$f12
    6cc8:	44059000 	mfc1	a1,$f18
    6ccc:	44819000 	mtc1	at,$f18
    6cd0:	46062282 	mul.s	$f10,$f4,$f6
    6cd4:	00000000 	nop
    6cd8:	460c9202 	mul.s	$f8,$f18,$f12
    6cdc:	46025400 	add.s	$f16,$f10,$f2
    6ce0:	46080102 	mul.s	$f4,$f0,$f8
    6ce4:	44068000 	mfc1	a2,$f16
    6ce8:	46022180 	add.s	$f6,$f4,$f2
    6cec:	44073000 	mfc1	a3,$f6
    6cf0:	0c000000 	jal	0 <func_800994A0>
    6cf4:	00000000 	nop
    6cf8:	3c053f73 	lui	a1,0x3f73
    6cfc:	34a53333 	ori	a1,a1,0x3333
    6d00:	0c000000 	jal	0 <func_800994A0>
    6d04:	8fa40044 	lw	a0,68(sp)
    6d08:	8fa50048 	lw	a1,72(sp)
    6d0c:	24010001 	li	at,1
    6d10:	84a41d30 	lh	a0,7472(a1)
    6d14:	10800017 	beqz	a0,6d74 <func_8009FE58+0x3bc>
    6d18:	00801825 	move	v1,a0
    6d1c:	10810005 	beq	a0,at,6d34 <func_8009FE58+0x37c>
    6d20:	24010002 	li	at,2
    6d24:	5061000d 	beql	v1,at,6d5c <func_8009FE58+0x3a4>
    6d28:	84a21d32 	lh	v0,7474(a1)
    6d2c:	10000012 	b	6d78 <func_8009FE58+0x3c0>
    6d30:	84b81d32 	lh	t8,7474(a1)
    6d34:	84a21d32 	lh	v0,7474(a1)
    6d38:	248e0001 	addiu	t6,a0,1
    6d3c:	284104b0 	slti	at,v0,1200
    6d40:	10200003 	beqz	at,6d50 <func_8009FE58+0x398>
    6d44:	244d00c8 	addiu	t5,v0,200
    6d48:	1000000a 	b	6d74 <func_8009FE58+0x3bc>
    6d4c:	a4ad1d32 	sh	t5,7474(a1)
    6d50:	10000008 	b	6d74 <func_8009FE58+0x3bc>
    6d54:	a4ae1d30 	sh	t6,7472(a1)
    6d58:	84a21d32 	lh	v0,7474(a1)
    6d5c:	18400003 	blez	v0,6d6c <func_8009FE58+0x3b4>
    6d60:	244fffe2 	addiu	t7,v0,-30
    6d64:	10000003 	b	6d74 <func_8009FE58+0x3bc>
    6d68:	a4af1d32 	sh	t7,7474(a1)
    6d6c:	a4a01d32 	sh	zero,7474(a1)
    6d70:	a4a01d30 	sh	zero,7472(a1)
    6d74:	84b81d32 	lh	t8,7474(a1)
    6d78:	3c010000 	lui	at,0x0
    6d7c:	c4320000 	lwc1	$f18,0(at)
    6d80:	44985000 	mtc1	t8,$f10
    6d84:	3c010000 	lui	at,0x0
    6d88:	c4240000 	lwc1	$f4,0(at)
    6d8c:	46805420 	cvt.s.w	$f16,$f10
    6d90:	3c020000 	lui	v0,0x0
    6d94:	24420000 	addiu	v0,v0,0
    6d98:	c44a0000 	lwc1	$f10,0(v0)
    6d9c:	46128202 	mul.s	$f8,$f16,$f18
    6da0:	46082180 	add.s	$f6,$f4,$f8
    6da4:	46065400 	add.s	$f16,$f10,$f6
    6da8:	e4500000 	swc1	$f16,0(v0)
    6dac:	8fa50048 	lw	a1,72(sp)
    6db0:	3c020000 	lui	v0,0x0
    6db4:	24010002 	li	at,2
    6db8:	80ab1cbc 	lb	t3,7356(a1)
    6dbc:	24420000 	addiu	v0,v0,0
    6dc0:	1561000e 	bne	t3,at,6dfc <func_8009FE58+0x444>
    6dc4:	00000000 	nop
    6dc8:	0c000000 	jal	0 <func_800994A0>
    6dcc:	c44c0000 	lwc1	$f12,0(v0)
    6dd0:	3c013f80 	lui	at,0x3f80
    6dd4:	44816000 	mtc1	at,$f12
    6dd8:	3c010000 	lui	at,0x0
    6ddc:	c4320000 	lwc1	$f18,0(at)
    6de0:	44066000 	mfc1	a2,$f12
    6de4:	00003825 	move	a3,zero
    6de8:	46120382 	mul.s	$f14,$f0,$f18
    6dec:	0c000000 	jal	0 <func_800994A0>
    6df0:	00000000 	nop
    6df4:	1000000d 	b	6e2c <func_8009FE58+0x474>
    6df8:	8e0202c0 	lw	v0,704(s0)
    6dfc:	0c000000 	jal	0 <func_800994A0>
    6e00:	c44c0000 	lwc1	$f12,0(v0)
    6e04:	3c010000 	lui	at,0x0
    6e08:	c42c0000 	lwc1	$f12,0(at)
    6e0c:	3c010000 	lui	at,0x0
    6e10:	c4240000 	lwc1	$f4,0(at)
    6e14:	44066000 	mfc1	a2,$f12
    6e18:	00003825 	move	a3,zero
    6e1c:	46040382 	mul.s	$f14,$f0,$f4
    6e20:	0c000000 	jal	0 <func_800994A0>
    6e24:	00000000 	nop
    6e28:	8e0202c0 	lw	v0,704(s0)
    6e2c:	3c0cdb06 	lui	t4,0xdb06
    6e30:	358c0034 	ori	t4,t4,0x34
    6e34:	24590008 	addiu	t9,v0,8
    6e38:	ae1902c0 	sw	t9,704(s0)
    6e3c:	ac4c0000 	sw	t4,0(v0)
    6e40:	8fad0098 	lw	t5,152(sp)
    6e44:	3c050000 	lui	a1,0x0
    6e48:	24a50000 	addiu	a1,a1,0
    6e4c:	8da40000 	lw	a0,0(t5)
    6e50:	24061e81 	li	a2,7809
    6e54:	0c000000 	jal	0 <func_800994A0>
    6e58:	afa2005c 	sw	v0,92(sp)
    6e5c:	8fa3005c 	lw	v1,92(sp)
    6e60:	3c060000 	lui	a2,0x0
    6e64:	24c60000 	addiu	a2,a2,0
    6e68:	ac620004 	sw	v0,4(v1)
    6e6c:	8fae0098 	lw	t6,152(sp)
    6e70:	27a4007c 	addiu	a0,sp,124
    6e74:	24071e83 	li	a3,7811
    6e78:	0c000000 	jal	0 <func_800994A0>
    6e7c:	8dc50000 	lw	a1,0(t6)
    6e80:	8fbf003c 	lw	ra,60(sp)
    6e84:	8fb00038 	lw	s0,56(sp)
    6e88:	27bd0098 	addiu	sp,sp,152
    6e8c:	03e00008 	jr	ra
    6e90:	00000000 	nop

00006e94 <func_800A0334>:
    6e94:	27bdff78 	addiu	sp,sp,-136
    6e98:	afbf003c 	sw	ra,60(sp)
    6e9c:	afb10038 	sw	s1,56(sp)
    6ea0:	afb00034 	sw	s0,52(sp)
    6ea4:	8c850000 	lw	a1,0(a0)
    6ea8:	00808825 	move	s1,a0
    6eac:	3c060000 	lui	a2,0x0
    6eb0:	24c607bc 	addiu	a2,a2,1980
    6eb4:	27a40070 	addiu	a0,sp,112
    6eb8:	24071e91 	li	a3,7825
    6ebc:	0c000000 	jal	0 <func_800994A0>
    6ec0:	00a08025 	move	s0,a1
    6ec4:	8e0202d0 	lw	v0,720(s0)
    6ec8:	3c080001 	lui	t0,0x1
    6ecc:	01114021 	addu	t0,t0,s1
    6ed0:	8d0a1de4 	lw	t2,7652(t0)
    6ed4:	244e0008 	addiu	t6,v0,8
    6ed8:	ae0e02d0 	sw	t6,720(s0)
    6edc:	3c0fdb06 	lui	t7,0xdb06
    6ee0:	35ef0020 	ori	t7,t7,0x20
    6ee4:	ac4f0000 	sw	t7,0(v0)
    6ee8:	8e240000 	lw	a0,0(s1)
    6eec:	2418007f 	li	t8,127
    6ef0:	3143007f 	andi	v1,t2,0x7f
    6ef4:	03033023 	subu	a2,t8,v1
    6ef8:	240e0080 	li	t6,128
    6efc:	24190020 	li	t9,32
    6f00:	240b0080 	li	t3,128
    6f04:	240c0001 	li	t4,1
    6f08:	240d0020 	li	t5,32
    6f0c:	314701ff 	andi	a3,t2,0x1ff
    6f10:	afa70020 	sw	a3,32(sp)
    6f14:	afad0024 	sw	t5,36(sp)
    6f18:	afac0018 	sw	t4,24(sp)
    6f1c:	afab0014 	sw	t3,20(sp)
    6f20:	afb90010 	sw	t9,16(sp)
    6f24:	afae0028 	sw	t6,40(sp)
    6f28:	afa6004c 	sw	a2,76(sp)
    6f2c:	afa3001c 	sw	v1,28(sp)
    6f30:	afa30050 	sw	v1,80(sp)
    6f34:	00002825 	move	a1,zero
    6f38:	afa2006c 	sw	v0,108(sp)
    6f3c:	0c000000 	jal	0 <func_800994A0>
    6f40:	afaa0048 	sw	t2,72(sp)
    6f44:	8fa9006c 	lw	t1,108(sp)
    6f48:	8fa30050 	lw	v1,80(sp)
    6f4c:	8faa0048 	lw	t2,72(sp)
    6f50:	ad220004 	sw	v0,4(t1)
    6f54:	8e0202d0 	lw	v0,720(s0)
    6f58:	3c18db06 	lui	t8,0xdb06
    6f5c:	37180024 	ori	t8,t8,0x24
    6f60:	244f0008 	addiu	t7,v0,8
    6f64:	ae0f02d0 	sw	t7,720(s0)
    6f68:	ac580000 	sw	t8,0(v0)
    6f6c:	8e240000 	lw	a0,0(s1)
    6f70:	24190020 	li	t9,32
    6f74:	240b0020 	li	t3,32
    6f78:	240c0001 	li	t4,1
    6f7c:	240d0020 	li	t5,32
    6f80:	240e0020 	li	t6,32
    6f84:	3147007f 	andi	a3,t2,0x7f
    6f88:	afa70020 	sw	a3,32(sp)
    6f8c:	afa70044 	sw	a3,68(sp)
    6f90:	afae0028 	sw	t6,40(sp)
    6f94:	afad0024 	sw	t5,36(sp)
    6f98:	afac0018 	sw	t4,24(sp)
    6f9c:	afab0014 	sw	t3,20(sp)
    6fa0:	afb90010 	sw	t9,16(sp)
    6fa4:	8fa6004c 	lw	a2,76(sp)
    6fa8:	00002825 	move	a1,zero
    6fac:	afa30050 	sw	v1,80(sp)
    6fb0:	afa3001c 	sw	v1,28(sp)
    6fb4:	0c000000 	jal	0 <func_800994A0>
    6fb8:	afa20068 	sw	v0,104(sp)
    6fbc:	8fa80068 	lw	t0,104(sp)
    6fc0:	8fa30050 	lw	v1,80(sp)
    6fc4:	8fa70044 	lw	a3,68(sp)
    6fc8:	ad020004 	sw	v0,4(t0)
    6fcc:	8e0202c0 	lw	v0,704(s0)
    6fd0:	3c18db06 	lui	t8,0xdb06
    6fd4:	37180028 	ori	t8,t8,0x28
    6fd8:	244f0008 	addiu	t7,v0,8
    6fdc:	ae0f02c0 	sw	t7,704(s0)
    6fe0:	ac580000 	sw	t8,0(v0)
    6fe4:	8e240000 	lw	a0,0(s1)
    6fe8:	24190020 	li	t9,32
    6fec:	240b0020 	li	t3,32
    6ff0:	240c0001 	li	t4,1
    6ff4:	240d0020 	li	t5,32
    6ff8:	240e0020 	li	t6,32
    6ffc:	afae0028 	sw	t6,40(sp)
    7000:	afad0024 	sw	t5,36(sp)
    7004:	afac0018 	sw	t4,24(sp)
    7008:	afab0014 	sw	t3,20(sp)
    700c:	afb90010 	sw	t9,16(sp)
    7010:	8fa6004c 	lw	a2,76(sp)
    7014:	00002825 	move	a1,zero
    7018:	afa3001c 	sw	v1,28(sp)
    701c:	afa70020 	sw	a3,32(sp)
    7020:	0c000000 	jal	0 <func_800994A0>
    7024:	afa20064 	sw	v0,100(sp)
    7028:	8fa80064 	lw	t0,100(sp)
    702c:	3c04e700 	lui	a0,0xe700
    7030:	3c068080 	lui	a2,0x8080
    7034:	ad020004 	sw	v0,4(t0)
    7038:	8e0202c0 	lw	v0,704(s0)
    703c:	34c68080 	ori	a2,a2,0x8080
    7040:	3c05fb00 	lui	a1,0xfb00
    7044:	244f0008 	addiu	t7,v0,8
    7048:	ae0f02c0 	sw	t7,704(s0)
    704c:	ac400004 	sw	zero,4(v0)
    7050:	ac440000 	sw	a0,0(v0)
    7054:	8e0202c0 	lw	v0,704(s0)
    7058:	24071eac 	li	a3,7852
    705c:	24580008 	addiu	t8,v0,8
    7060:	ae1802c0 	sw	t8,704(s0)
    7064:	ac460004 	sw	a2,4(v0)
    7068:	ac450000 	sw	a1,0(v0)
    706c:	8e0202d0 	lw	v0,720(s0)
    7070:	24590008 	addiu	t9,v0,8
    7074:	ae1902d0 	sw	t9,720(s0)
    7078:	ac400004 	sw	zero,4(v0)
    707c:	ac440000 	sw	a0,0(v0)
    7080:	8e0202d0 	lw	v0,720(s0)
    7084:	27a40070 	addiu	a0,sp,112
    7088:	244b0008 	addiu	t3,v0,8
    708c:	ae0b02d0 	sw	t3,720(s0)
    7090:	ac460004 	sw	a2,4(v0)
    7094:	3c060000 	lui	a2,0x0
    7098:	ac450000 	sw	a1,0(v0)
    709c:	8e250000 	lw	a1,0(s1)
    70a0:	0c000000 	jal	0 <func_800994A0>
    70a4:	24c607d0 	addiu	a2,a2,2000
    70a8:	8fbf003c 	lw	ra,60(sp)
    70ac:	8fb00034 	lw	s0,52(sp)
    70b0:	8fb10038 	lw	s1,56(sp)
    70b4:	03e00008 	jr	ra
    70b8:	27bd0088 	addiu	sp,sp,136

000070bc <func_800A055C>:
    70bc:	27bdffe8 	addiu	sp,sp,-24
    70c0:	afbf0014 	sw	ra,20(sp)
    70c4:	0c000000 	jal	0 <func_800994A0>
    70c8:	00000000 	nop
    70cc:	8fbf0014 	lw	ra,20(sp)
    70d0:	27bd0018 	addiu	sp,sp,24
    70d4:	03e00008 	jr	ra
    70d8:	00000000 	nop

000070dc <func_800A057C>:
    70dc:	27bdffe8 	addiu	sp,sp,-24
    70e0:	afbf0014 	sw	ra,20(sp)
    70e4:	0c000000 	jal	0 <func_800994A0>
    70e8:	00000000 	nop
    70ec:	8fbf0014 	lw	ra,20(sp)
    70f0:	27bd0018 	addiu	sp,sp,24
    70f4:	03e00008 	jr	ra
    70f8:	00000000 	nop

000070fc <func_800A059C>:
    70fc:	27bdffa0 	addiu	sp,sp,-96
    7100:	afbf0024 	sw	ra,36(sp)
    7104:	afb10020 	sw	s1,32(sp)
    7108:	afb0001c 	sw	s0,28(sp)
    710c:	8c850000 	lw	a1,0(a0)
    7110:	00808825 	move	s1,a0
    7114:	3c060000 	lui	a2,0x0
    7118:	24c607e4 	addiu	a2,a2,2020
    711c:	27a40048 	addiu	a0,sp,72
    7120:	24071ed5 	li	a3,7893
    7124:	0c000000 	jal	0 <func_800994A0>
    7128:	00a08025 	move	s0,a1
    712c:	8e0202c0 	lw	v0,704(s0)
    7130:	3c090001 	lui	t1,0x1
    7134:	01314821 	addu	t1,t1,s1
    7138:	8d291de4 	lw	t1,7652(t1)
    713c:	3c0fdb06 	lui	t7,0xdb06
    7140:	244e0008 	addiu	t6,v0,8
    7144:	ae0e02c0 	sw	t6,704(s0)
    7148:	35ef0020 	ori	t7,t7,0x20
    714c:	ac4f0000 	sw	t7,0(v0)
    7150:	8e240000 	lw	a0,0(s1)
    7154:	00094040 	sll	t0,t1,0x1
    7158:	3118007f 	andi	t8,t0,0x7f
    715c:	2419007f 	li	t9,127
    7160:	240a0040 	li	t2,64
    7164:	afaa0010 	sw	t2,16(sp)
    7168:	03382823 	subu	a1,t9,t8
    716c:	afa8002c 	sw	t0,44(sp)
    7170:	00003025 	move	a2,zero
    7174:	24070020 	li	a3,32
    7178:	0c000000 	jal	0 <func_800994A0>
    717c:	afa20044 	sw	v0,68(sp)
    7180:	8fa30044 	lw	v1,68(sp)
    7184:	8fa8002c 	lw	t0,44(sp)
    7188:	3c0cdb06 	lui	t4,0xdb06
    718c:	ac620004 	sw	v0,4(v1)
    7190:	8e0202c0 	lw	v0,704(s0)
    7194:	358c0024 	ori	t4,t4,0x24
    7198:	240d0080 	li	t5,128
    719c:	244b0008 	addiu	t3,v0,8
    71a0:	ae0b02c0 	sw	t3,704(s0)
    71a4:	ac4c0000 	sw	t4,0(v0)
    71a8:	8e240000 	lw	a0,0(s1)
    71ac:	afad0010 	sw	t5,16(sp)
    71b0:	00002825 	move	a1,zero
    71b4:	24070080 	li	a3,128
    71b8:	310601ff 	andi	a2,t0,0x1ff
    71bc:	0c000000 	jal	0 <func_800994A0>
    71c0:	afa20040 	sw	v0,64(sp)
    71c4:	8fa30040 	lw	v1,64(sp)
    71c8:	3c04e700 	lui	a0,0xe700
    71cc:	3c068080 	lui	a2,0x8080
    71d0:	ac620004 	sw	v0,4(v1)
    71d4:	8e0202c0 	lw	v0,704(s0)
    71d8:	34c68080 	ori	a2,a2,0x8080
    71dc:	3c05fb00 	lui	a1,0xfb00
    71e0:	244e0008 	addiu	t6,v0,8
    71e4:	ae0e02c0 	sw	t6,704(s0)
    71e8:	ac400004 	sw	zero,4(v0)
    71ec:	ac440000 	sw	a0,0(v0)
    71f0:	8e0202c0 	lw	v0,704(s0)
    71f4:	24071ee6 	li	a3,7910
    71f8:	244f0008 	addiu	t7,v0,8
    71fc:	ae0f02c0 	sw	t7,704(s0)
    7200:	ac460004 	sw	a2,4(v0)
    7204:	ac450000 	sw	a1,0(v0)
    7208:	8e0302d0 	lw	v1,720(s0)
    720c:	24790008 	addiu	t9,v1,8
    7210:	ae1902d0 	sw	t9,720(s0)
    7214:	ac600004 	sw	zero,4(v1)
    7218:	ac640000 	sw	a0,0(v1)
    721c:	8e0302d0 	lw	v1,720(s0)
    7220:	27a40048 	addiu	a0,sp,72
    7224:	24780008 	addiu	t8,v1,8
    7228:	ae1802d0 	sw	t8,720(s0)
    722c:	ac660004 	sw	a2,4(v1)
    7230:	3c060000 	lui	a2,0x0
    7234:	ac650000 	sw	a1,0(v1)
    7238:	8e250000 	lw	a1,0(s1)
    723c:	0c000000 	jal	0 <func_800994A0>
    7240:	24c607f8 	addiu	a2,a2,2040
    7244:	8fbf0024 	lw	ra,36(sp)
    7248:	8fb0001c 	lw	s0,28(sp)
    724c:	8fb10020 	lw	s1,32(sp)
    7250:	03e00008 	jr	ra
    7254:	27bd0060 	addiu	sp,sp,96

00007258 <Scene_Draw>:
    7258:	3c020000 	lui	v0,0x0
    725c:	24420000 	addiu	v0,v0,0
    7260:	8c430000 	lw	v1,0(v0)
    7264:	27bdffb8 	addiu	sp,sp,-72
    7268:	afbf001c 	sw	ra,28(sp)
    726c:	afb00018 	sw	s0,24(sp)
    7270:	846e1074 	lh	t6,4212(v1)
    7274:	00808025 	move	s0,a0
    7278:	24050011 	li	a1,17
    727c:	14ae0053 	bne	a1,t6,73cc <Scene_Draw+0x174>
    7280:	27a40034 	addiu	a0,sp,52
    7284:	846f1092 	lh	t7,4242(v1)
    7288:	3c060000 	lui	a2,0x0
    728c:	24c6080c 	addiu	a2,a2,2060
    7290:	50af001f 	beql	a1,t7,7310 <Scene_Draw+0xb8>
    7294:	8e050000 	lw	a1,0(s0)
    7298:	a4651092 	sh	a1,4242(v1)
    729c:	8c590000 	lw	t9,0(v0)
    72a0:	24180001 	li	t8,1
    72a4:	24090001 	li	t1,1
    72a8:	a7381076 	sh	t8,4214(t9)
    72ac:	8c4a0000 	lw	t2,0(v0)
    72b0:	a5491078 	sh	t1,4216(t2)
    72b4:	8c4b0000 	lw	t3,0(v0)
    72b8:	a560107a 	sh	zero,4218(t3)
    72bc:	8c4c0000 	lw	t4,0(v0)
    72c0:	a580107c 	sh	zero,4220(t4)
    72c4:	8c4d0000 	lw	t5,0(v0)
    72c8:	a5a0107e 	sh	zero,4222(t5)
    72cc:	8c4e0000 	lw	t6,0(v0)
    72d0:	a5c01080 	sh	zero,4224(t6)
    72d4:	8c4f0000 	lw	t7,0(v0)
    72d8:	a5e01082 	sh	zero,4226(t7)
    72dc:	8c580000 	lw	t8,0(v0)
    72e0:	a7001084 	sh	zero,4228(t8)
    72e4:	8c590000 	lw	t9,0(v0)
    72e8:	a7201086 	sh	zero,4230(t9)
    72ec:	8c490000 	lw	t1,0(v0)
    72f0:	a520108a 	sh	zero,4234(t1)
    72f4:	8c4a0000 	lw	t2,0(v0)
    72f8:	a540108c 	sh	zero,4236(t2)
    72fc:	8c4b0000 	lw	t3,0(v0)
    7300:	a560108e 	sh	zero,4238(t3)
    7304:	8c4c0000 	lw	t4,0(v0)
    7308:	a5801090 	sh	zero,4240(t4)
    730c:	8e050000 	lw	a1,0(s0)
    7310:	24071fa8 	li	a3,8104
    7314:	0c000000 	jal	0 <func_800994A0>
    7318:	afa50044 	sw	a1,68(sp)
    731c:	3c020000 	lui	v0,0x0
    7320:	24420000 	addiu	v0,v0,0
    7324:	8c4d0000 	lw	t5,0(v0)
    7328:	24010001 	li	at,1
    732c:	8fa80044 	lw	t0,68(sp)
    7330:	85ae1076 	lh	t6,4214(t5)
    7334:	3c06de00 	lui	a2,0xde00
    7338:	24071fad 	li	a3,8109
    733c:	15c1000d 	bne	t6,at,7374 <Scene_Draw+0x11c>
    7340:	00000000 	nop
    7344:	8d0402c0 	lw	a0,704(t0)
    7348:	3c050000 	lui	a1,0x0
    734c:	24a50000 	addiu	a1,a1,0
    7350:	248f0008 	addiu	t7,a0,8
    7354:	ad0f02c0 	sw	t7,704(t0)
    7358:	ac850004 	sw	a1,4(a0)
    735c:	ac860000 	sw	a2,0(a0)
    7360:	8d0402d0 	lw	a0,720(t0)
    7364:	24980008 	addiu	t8,a0,8
    7368:	ad1802d0 	sw	t8,720(t0)
    736c:	ac850004 	sw	a1,4(a0)
    7370:	ac860000 	sw	a2,0(a0)
    7374:	3c060000 	lui	a2,0x0
    7378:	24c60820 	addiu	a2,a2,2080
    737c:	27a40034 	addiu	a0,sp,52
    7380:	0c000000 	jal	0 <func_800994A0>
    7384:	8e050000 	lw	a1,0(s0)
    7388:	3c020000 	lui	v0,0x0
    738c:	24420000 	addiu	v0,v0,0
    7390:	8c590000 	lw	t9,0(v0)
    7394:	24010001 	li	at,1
    7398:	87291078 	lh	t1,4216(t9)
    739c:	55210014 	bnel	t1,at,73f0 <Scene_Draw+0x198>
    73a0:	8fbf001c 	lw	ra,28(sp)
    73a4:	920a00a6 	lbu	t2,166(s0)
    73a8:	3c190000 	lui	t9,0x0
    73ac:	02002025 	move	a0,s0
    73b0:	000a5880 	sll	t3,t2,0x2
    73b4:	032bc821 	addu	t9,t9,t3
    73b8:	8f390000 	lw	t9,0(t9)
    73bc:	0320f809 	jalr	t9
    73c0:	00000000 	nop
    73c4:	1000000a 	b	73f0 <Scene_Draw+0x198>
    73c8:	8fbf001c 	lw	ra,28(sp)
    73cc:	920c00a6 	lbu	t4,166(s0)
    73d0:	3c190000 	lui	t9,0x0
    73d4:	02002025 	move	a0,s0
    73d8:	000c6880 	sll	t5,t4,0x2
    73dc:	032dc821 	addu	t9,t9,t5
    73e0:	8f390000 	lw	t9,0(t9)
    73e4:	0320f809 	jalr	t9
    73e8:	00000000 	nop
    73ec:	8fbf001c 	lw	ra,28(sp)
    73f0:	8fb00018 	lw	s0,24(sp)
    73f4:	27bd0048 	addiu	sp,sp,72
    73f8:	03e00008 	jr	ra
    73fc:	00000000 	nop
