
build/src/overlays/actors/ovl_Boss_Va/z_boss_va.o:     file format elf32-tradbigmips


Disassembly of section .text:

00000000 <func_8094F2C0>:
       0:	03e00008 	jr	ra
       4:	ac850190 	sw	a1,400(a0)

00000008 <func_8094F2C8>:
       8:	27bdffd8 	addiu	sp,sp,-40
       c:	afbf001c 	sw	ra,28(sp)
      10:	afb10018 	sw	s1,24(sp)
      14:	afb00014 	sw	s0,20(sp)
      18:	8c910118 	lw	s1,280(a0)
      1c:	00808025 	move	s0,a0
      20:	00003825 	move	a3,zero
      24:	c62c0024 	lwc1	$f12,36(s1)
      28:	c62e0028 	lwc1	$f14,40(s1)
      2c:	0c000000 	jal	0 <func_8094F2C0>
      30:	8e26002c 	lw	a2,44(s1)
      34:	862400b4 	lh	a0,180(s1)
      38:	00002825 	move	a1,zero
      3c:	862600b8 	lh	a2,184(s1)
      40:	0c000000 	jal	0 <func_8094F2C0>
      44:	24070001 	li	a3,1
      48:	860e001c 	lh	t6,28(s0)
      4c:	3c180000 	lui	t8,0x0
      50:	27180000 	addiu	t8,t8,0
      54:	000e7880 	sll	t7,t6,0x2
      58:	01ee7823 	subu	t7,t7,t6
      5c:	000f7880 	sll	t7,t7,0x2
      60:	01f82021 	addu	a0,t7,t8
      64:	0c000000 	jal	0 <func_8094F2C0>
      68:	26050024 	addiu	a1,s0,36
      6c:	8603001c 	lh	v1,28(s0)
      70:	2c610006 	sltiu	at,v1,6
      74:	10200067 	beqz	at,214 <L8094F39C+0x138>
      78:	0003c880 	sll	t9,v1,0x2
      7c:	3c010000 	lui	at,0x0
      80:	00390821 	addu	at,at,t9
      84:	8c390000 	lw	t9,0(at)
      88:	03200008 	jr	t9
      8c:	00000000 	nop

00000090 <L8094F350>:
      90:	92080194 	lbu	t0,404(s0)
      94:	00034880 	sll	t1,v1,0x2
      98:	01234823 	subu	t1,t1,v1
      9c:	1500005d 	bnez	t0,214 <L8094F39C+0x138>
      a0:	00094840 	sll	t1,t1,0x1
      a4:	3c0a0000 	lui	t2,0x0
      a8:	254a0000 	addiu	t2,t2,0
      ac:	012a1021 	addu	v0,t1,t2
      b0:	844b0000 	lh	t3,0(v0)
      b4:	862c00b4 	lh	t4,180(s1)
      b8:	016c6821 	addu	t5,t3,t4
      bc:	a60d00b4 	sh	t5,180(s0)
      c0:	844e0002 	lh	t6,2(v0)
      c4:	a60e00b6 	sh	t6,182(s0)
      c8:	863800b8 	lh	t8,184(s1)
      cc:	844f0004 	lh	t7,4(v0)
      d0:	01f8c821 	addu	t9,t7,t8
      d4:	1000004f 	b	214 <L8094F39C+0x138>
      d8:	a61900b8 	sh	t9,184(s0)

000000dc <L8094F39C>:
      dc:	00034080 	sll	t0,v1,0x2
      e0:	01034023 	subu	t0,t0,v1
      e4:	3c090000 	lui	t1,0x0
      e8:	25290000 	addiu	t1,t1,0
      ec:	00084040 	sll	t0,t0,0x1
      f0:	01091021 	addu	v0,t0,t1
      f4:	844a0002 	lh	t2,2(v0)
      f8:	a60a00b6 	sh	t2,182(s0)
      fc:	0c000000 	jal	0 <func_8094F2C0>
     100:	84440002 	lh	a0,2(v0)
     104:	e7a00020 	swc1	$f0,32(sp)
     108:	860b001c 	lh	t3,28(s0)
     10c:	3c040000 	lui	a0,0x0
     110:	000b6080 	sll	t4,t3,0x2
     114:	018b6023 	subu	t4,t4,t3
     118:	000c6040 	sll	t4,t4,0x1
     11c:	008c2021 	addu	a0,a0,t4
     120:	0c000000 	jal	0 <func_8094F2C0>
     124:	84840000 	lh	a0,0(a0)
     128:	860d001c 	lh	t5,28(s0)
     12c:	863800b4 	lh	t8,180(s1)
     130:	c7a40020 	lwc1	$f4,32(sp)
     134:	000d7080 	sll	t6,t5,0x2
     138:	01cd7023 	subu	t6,t6,t5
     13c:	862d00b8 	lh	t5,184(s1)
     140:	44983000 	mtc1	t8,$f6
     144:	3c0f0000 	lui	t7,0x0
     148:	448d9000 	mtc1	t5,$f18
     14c:	46803220 	cvt.s.w	$f8,$f6
     150:	25ef0000 	addiu	t7,t7,0
     154:	000e7040 	sll	t6,t6,0x1
     158:	01cf1021 	addu	v0,t6,t7
     15c:	844b0000 	lh	t3,0(v0)
     160:	468091a0 	cvt.s.w	$f6,$f18
     164:	46082282 	mul.s	$f10,$f4,$f8
     168:	00000000 	nop
     16c:	46060102 	mul.s	$f4,$f0,$f6
     170:	4600540d 	trunc.w.s	$f16,$f10
     174:	4600220d 	trunc.w.s	$f8,$f4
     178:	440a8000 	mfc1	t2,$f16
     17c:	44194000 	mfc1	t9,$f8
     180:	016a6021 	addu	t4,t3,t2
     184:	01994023 	subu	t0,t4,t9
     188:	a60800b4 	sh	t0,180(s0)
     18c:	0c000000 	jal	0 <func_8094F2C0>
     190:	84440002 	lh	a0,2(v0)
     194:	e7a00020 	swc1	$f0,32(sp)
     198:	8609001c 	lh	t1,28(s0)
     19c:	3c040000 	lui	a0,0x0
     1a0:	00095880 	sll	t3,t1,0x2
     1a4:	01695823 	subu	t3,t3,t1
     1a8:	000b5840 	sll	t3,t3,0x1
     1ac:	008b2021 	addu	a0,a0,t3
     1b0:	0c000000 	jal	0 <func_8094F2C0>
     1b4:	84840000 	lh	a0,0(a0)
     1b8:	862a00b4 	lh	t2,180(s1)
     1bc:	862b00b8 	lh	t3,184(s1)
     1c0:	c7a40020 	lwc1	$f4,32(sp)
     1c4:	448a5000 	mtc1	t2,$f10
     1c8:	448b4000 	mtc1	t3,$f8
     1cc:	860c001c 	lh	t4,28(s0)
     1d0:	46805420 	cvt.s.w	$f16,$f10
     1d4:	3c080000 	lui	t0,0x0
     1d8:	000cc880 	sll	t9,t4,0x2
     1dc:	032cc823 	subu	t9,t9,t4
     1e0:	0019c840 	sll	t9,t9,0x1
     1e4:	468042a0 	cvt.s.w	$f10,$f8
     1e8:	46100482 	mul.s	$f18,$f0,$f16
     1ec:	01194021 	addu	t0,t0,t9
     1f0:	85080000 	lh	t0,0(t0)
     1f4:	460a2402 	mul.s	$f16,$f4,$f10
     1f8:	4600918d 	trunc.w.s	$f6,$f18
     1fc:	4600848d 	trunc.w.s	$f18,$f16
     200:	44183000 	mfc1	t8,$f6
     204:	440f9000 	mfc1	t7,$f18
     208:	03084821 	addu	t1,t8,t0
     20c:	012f6021 	addu	t4,t1,t7
     210:	a60c00b8 	sh	t4,184(s0)
     214:	8a1800b4 	lwl	t8,180(s0)
     218:	9a1800b7 	lwr	t8,183(s0)
     21c:	8e080118 	lw	t0,280(s0)
     220:	aa180030 	swl	t8,48(s0)
     224:	ba180033 	swr	t8,51(s0)
     228:	961800b8 	lhu	t8,184(s0)
     22c:	a6180034 	sh	t8,52(s0)
     230:	c50600bc 	lwc1	$f6,188(t0)
     234:	e60600bc 	swc1	$f6,188(s0)
     238:	8fbf001c 	lw	ra,28(sp)
     23c:	8fb10018 	lw	s1,24(sp)
     240:	8fb00014 	lw	s0,20(sp)
     244:	03e00008 	jr	ra
     248:	27bd0028 	addiu	sp,sp,40

0000024c <func_8094F50C>:
     24c:	27bdffa0 	addiu	sp,sp,-96
     250:	f7b60028 	sdc1	$f22,40(sp)
     254:	3c014170 	lui	at,0x4170
     258:	4481b000 	mtc1	at,$f22
     25c:	afb60048 	sw	s6,72(sp)
     260:	afb50044 	sw	s5,68(sp)
     264:	afb20038 	sw	s2,56(sp)
     268:	f7b40020 	sdc1	$f20,32(sp)
     26c:	3c014120 	lui	at,0x4120
     270:	0006ac00 	sll	s5,a2,0x10
     274:	0007b400 	sll	s6,a3,0x10
     278:	afb40040 	sw	s4,64(sp)
     27c:	afb3003c 	sw	s3,60(sp)
     280:	afb10034 	sw	s1,52(sp)
     284:	afb00030 	sw	s0,48(sp)
     288:	3c120000 	lui	s2,0x0
     28c:	4481a000 	mtc1	at,$f20
     290:	00a08825 	move	s1,a1
     294:	0080a025 	move	s4,a0
     298:	0016b403 	sra	s6,s6,0x10
     29c:	0015ac03 	sra	s5,s5,0x10
     2a0:	afbf004c 	sw	ra,76(sp)
     2a4:	afa60068 	sw	a2,104(sp)
     2a8:	afa7006c 	sw	a3,108(sp)
     2ac:	26520000 	addiu	s2,s2,0
     2b0:	24100002 	li	s0,2
     2b4:	27b30050 	addiu	s3,sp,80
     2b8:	0c000000 	jal	0 <func_8094F2C0>
     2bc:	4600a306 	mov.s	$f12,$f20
     2c0:	c6240000 	lwc1	$f4,0(s1)
     2c4:	46040180 	add.s	$f6,$f0,$f4
     2c8:	0c000000 	jal	0 <func_8094F2C0>
     2cc:	e7a60050 	swc1	$f6,80(sp)
     2d0:	46160282 	mul.s	$f10,$f0,$f22
     2d4:	c6280004 	lwc1	$f8,4(s1)
     2d8:	4600a306 	mov.s	$f12,$f20
     2dc:	460a4401 	sub.s	$f16,$f8,$f10
     2e0:	0c000000 	jal	0 <func_8094F2C0>
     2e4:	e7b00054 	swc1	$f16,84(sp)
     2e8:	c6320008 	lwc1	$f18,8(s1)
     2ec:	afb60014 	sw	s6,20(sp)
     2f0:	afb50010 	sw	s5,16(sp)
     2f4:	46120100 	add.s	$f4,$f0,$f18
     2f8:	02802025 	move	a0,s4
     2fc:	02402825 	move	a1,s2
     300:	02603025 	move	a2,s3
     304:	e7a40058 	swc1	$f4,88(sp)
     308:	0c000000 	jal	0 <func_8094F2C0>
     30c:	24070041 	li	a3,65
     310:	2610ffff 	addiu	s0,s0,-1
     314:	1600ffe8 	bnez	s0,2b8 <func_8094F50C+0x6c>
     318:	00000000 	nop
     31c:	8fbf004c 	lw	ra,76(sp)
     320:	d7b40020 	ldc1	$f20,32(sp)
     324:	d7b60028 	ldc1	$f22,40(sp)
     328:	8fb00030 	lw	s0,48(sp)
     32c:	8fb10034 	lw	s1,52(sp)
     330:	8fb20038 	lw	s2,56(sp)
     334:	8fb3003c 	lw	s3,60(sp)
     338:	8fb40040 	lw	s4,64(sp)
     33c:	8fb50044 	lw	s5,68(sp)
     340:	8fb60048 	lw	s6,72(sp)
     344:	03e00008 	jr	ra
     348:	27bd0060 	addiu	sp,sp,96

0000034c <func_8094F60C>:
     34c:	27bdff90 	addiu	sp,sp,-112
     350:	afb00038 	sw	s0,56(sp)
     354:	8fb00080 	lw	s0,128(sp)
     358:	afb40048 	sw	s4,72(sp)
     35c:	afb30044 	sw	s3,68(sp)
     360:	00069c00 	sll	s3,a2,0x10
     364:	0007a400 	sll	s4,a3,0x10
     368:	afb20040 	sw	s2,64(sp)
     36c:	afb1003c 	sw	s1,60(sp)
     370:	00a08825 	move	s1,a1
     374:	00809025 	move	s2,a0
     378:	0014a403 	sra	s4,s4,0x10
     37c:	00139c03 	sra	s3,s3,0x10
     380:	afbf0054 	sw	ra,84(sp)
     384:	afb60050 	sw	s6,80(sp)
     388:	afb5004c 	sw	s5,76(sp)
     38c:	f7b80030 	sdc1	$f24,48(sp)
     390:	f7b60028 	sdc1	$f22,40(sp)
     394:	f7b40020 	sdc1	$f20,32(sp)
     398:	afa60078 	sw	a2,120(sp)
     39c:	1a000028 	blez	s0,440 <func_8094F60C+0xf4>
     3a0:	afa7007c 	sw	a3,124(sp)
     3a4:	3c010000 	lui	at,0x0
     3a8:	c4380000 	lwc1	$f24,0(at)
     3ac:	3c014170 	lui	at,0x4170
     3b0:	4481b000 	mtc1	at,$f22
     3b4:	3c014120 	lui	at,0x4120
     3b8:	3c150000 	lui	s5,0x0
     3bc:	4481a000 	mtc1	at,$f20
     3c0:	26b50000 	addiu	s5,s5,0
     3c4:	27b60060 	addiu	s6,sp,96
     3c8:	0c000000 	jal	0 <func_8094F2C0>
     3cc:	4600a306 	mov.s	$f12,$f20
     3d0:	c6240000 	lwc1	$f4,0(s1)
     3d4:	46040180 	add.s	$f6,$f0,$f4
     3d8:	0c000000 	jal	0 <func_8094F2C0>
     3dc:	e7a60060 	swc1	$f6,96(sp)
     3e0:	46160282 	mul.s	$f10,$f0,$f22
     3e4:	c6280004 	lwc1	$f8,4(s1)
     3e8:	4600a306 	mov.s	$f12,$f20
     3ec:	460a4401 	sub.s	$f16,$f8,$f10
     3f0:	0c000000 	jal	0 <func_8094F2C0>
     3f4:	e7b00064 	swc1	$f16,100(sp)
     3f8:	c6320008 	lwc1	$f18,8(s1)
     3fc:	4600c306 	mov.s	$f12,$f24
     400:	46120100 	add.s	$f4,$f0,$f18
     404:	0c000000 	jal	0 <func_8094F2C0>
     408:	e7a40068 	swc1	$f4,104(sp)
     40c:	4600018d 	trunc.w.s	$f6,$f0
     410:	02402025 	move	a0,s2
     414:	02a02825 	move	a1,s5
     418:	02c03025 	move	a2,s6
     41c:	44193000 	mfc1	t9,$f6
     420:	afb40010 	sw	s4,16(sp)
     424:	03333821 	addu	a3,t9,s3
     428:	00073c00 	sll	a3,a3,0x10
     42c:	0c000000 	jal	0 <func_8094F2C0>
     430:	00073c03 	sra	a3,a3,0x10
     434:	2610ffff 	addiu	s0,s0,-1
     438:	1600ffe3 	bnez	s0,3c8 <func_8094F60C+0x7c>
     43c:	00000000 	nop
     440:	8fbf0054 	lw	ra,84(sp)
     444:	d7b40020 	ldc1	$f20,32(sp)
     448:	d7b60028 	ldc1	$f22,40(sp)
     44c:	d7b80030 	ldc1	$f24,48(sp)
     450:	8fb00038 	lw	s0,56(sp)
     454:	8fb1003c 	lw	s1,60(sp)
     458:	8fb20040 	lw	s2,64(sp)
     45c:	8fb30044 	lw	s3,68(sp)
     460:	8fb40048 	lw	s4,72(sp)
     464:	8fb5004c 	lw	s5,76(sp)
     468:	8fb60050 	lw	s6,80(sp)
     46c:	03e00008 	jr	ra
     470:	27bd0070 	addiu	sp,sp,112

00000474 <func_8094F734>:
     474:	27bdff98 	addiu	sp,sp,-104
     478:	3c0e0000 	lui	t6,0x0
     47c:	81ce0000 	lb	t6,0(t6)
     480:	afb60048 	sw	s6,72(sp)
     484:	afb50044 	sw	s5,68(sp)
     488:	0006ac00 	sll	s5,a2,0x10
     48c:	0007b400 	sll	s6,a3,0x10
     490:	afb40040 	sw	s4,64(sp)
     494:	afb10034 	sw	s1,52(sp)
     498:	29c10014 	slti	at,t6,20
     49c:	00a08825 	move	s1,a1
     4a0:	0080a025 	move	s4,a0
     4a4:	0016b403 	sra	s6,s6,0x10
     4a8:	0015ac03 	sra	s5,s5,0x10
     4ac:	afbf004c 	sw	ra,76(sp)
     4b0:	afb3003c 	sw	s3,60(sp)
     4b4:	afb20038 	sw	s2,56(sp)
     4b8:	afb00030 	sw	s0,48(sp)
     4bc:	f7b60028 	sdc1	$f22,40(sp)
     4c0:	f7b40020 	sdc1	$f20,32(sp)
     4c4:	afa60070 	sw	a2,112(sp)
     4c8:	10200003 	beqz	at,4d8 <func_8094F734+0x64>
     4cc:	afa70074 	sw	a3,116(sp)
     4d0:	10000002 	b	4dc <func_8094F734+0x68>
     4d4:	24100002 	li	s0,2
     4d8:	24100001 	li	s0,1
     4dc:	1a000025 	blez	s0,574 <func_8094F734+0x100>
     4e0:	3c010000 	lui	at,0x0
     4e4:	c4360000 	lwc1	$f22,0(at)
     4e8:	3c014120 	lui	at,0x4120
     4ec:	3c120000 	lui	s2,0x0
     4f0:	4481a000 	mtc1	at,$f20
     4f4:	26520000 	addiu	s2,s2,0
     4f8:	27b30058 	addiu	s3,sp,88
     4fc:	0c000000 	jal	0 <func_8094F2C0>
     500:	4600a306 	mov.s	$f12,$f20
     504:	c6240000 	lwc1	$f4,0(s1)
     508:	4600a306 	mov.s	$f12,$f20
     50c:	46040180 	add.s	$f6,$f0,$f4
     510:	0c000000 	jal	0 <func_8094F2C0>
     514:	e7a60058 	swc1	$f6,88(sp)
     518:	c6280004 	lwc1	$f8,4(s1)
     51c:	4600a306 	mov.s	$f12,$f20
     520:	46080280 	add.s	$f10,$f0,$f8
     524:	0c000000 	jal	0 <func_8094F2C0>
     528:	e7aa005c 	swc1	$f10,92(sp)
     52c:	c6300008 	lwc1	$f16,8(s1)
     530:	4600b306 	mov.s	$f12,$f22
     534:	46100480 	add.s	$f18,$f0,$f16
     538:	0c000000 	jal	0 <func_8094F2C0>
     53c:	e7b20060 	swc1	$f18,96(sp)
     540:	4600010d 	trunc.w.s	$f4,$f0
     544:	02802025 	move	a0,s4
     548:	02402825 	move	a1,s2
     54c:	02603025 	move	a2,s3
     550:	44082000 	mfc1	t0,$f4
     554:	afb60010 	sw	s6,16(sp)
     558:	01153821 	addu	a3,t0,s5
     55c:	00073c00 	sll	a3,a3,0x10
     560:	0c000000 	jal	0 <func_8094F2C0>
     564:	00073c03 	sra	a3,a3,0x10
     568:	2610ffff 	addiu	s0,s0,-1
     56c:	1e00ffe3 	bgtz	s0,4fc <func_8094F734+0x88>
     570:	00000000 	nop
     574:	8fbf004c 	lw	ra,76(sp)
     578:	d7b40020 	ldc1	$f20,32(sp)
     57c:	d7b60028 	ldc1	$f22,40(sp)
     580:	8fb00030 	lw	s0,48(sp)
     584:	8fb10034 	lw	s1,52(sp)
     588:	8fb20038 	lw	s2,56(sp)
     58c:	8fb3003c 	lw	s3,60(sp)
     590:	8fb40040 	lw	s4,64(sp)
     594:	8fb50044 	lw	s5,68(sp)
     598:	8fb60048 	lw	s6,72(sp)
     59c:	03e00008 	jr	ra
     5a0:	27bd0068 	addiu	sp,sp,104

000005a4 <func_8094F864>:
     5a4:	27bdff80 	addiu	sp,sp,-128
     5a8:	afb30044 	sw	s3,68(sp)
     5ac:	afb20040 	sw	s2,64(sp)
     5b0:	00a09025 	move	s2,a1
     5b4:	afbf005c 	sw	ra,92(sp)
     5b8:	afbe0058 	sw	s8,88(sp)
     5bc:	afb70054 	sw	s7,84(sp)
     5c0:	afb60050 	sw	s6,80(sp)
     5c4:	afb5004c 	sw	s5,76(sp)
     5c8:	afb40048 	sw	s4,72(sp)
     5cc:	afb1003c 	sw	s1,60(sp)
     5d0:	afb00038 	sw	s0,56(sp)
     5d4:	f7b80030 	sdc1	$f24,48(sp)
     5d8:	f7b60028 	sdc1	$f22,40(sp)
     5dc:	f7b40020 	sdc1	$f20,32(sp)
     5e0:	afa40080 	sw	a0,128(sp)
     5e4:	afa7008c 	sw	a3,140(sp)
     5e8:	18c00040 	blez	a2,6ec <func_8094F864+0x148>
     5ec:	00c09825 	move	s3,a2
     5f0:	3c010000 	lui	at,0x0
     5f4:	c4260000 	lwc1	$f6,0(at)
     5f8:	c7a4009c 	lwc1	$f4,156(sp)
     5fc:	3c170000 	lui	s7,0x0
     600:	26f70000 	addiu	s7,s7,0
     604:	c7b80094 	lwc1	$f24,148(sp)
     608:	c7b40090 	lwc1	$f20,144(sp)
     60c:	27be006c 	addiu	s8,sp,108
     610:	2416000c 	li	s6,12
     614:	93b5009b 	lbu	s5,155(sp)
     618:	93b400a3 	lbu	s4,163(sp)
     61c:	46062581 	sub.s	$f22,$f4,$f6
     620:	5680000b 	bnezl	s4,650 <func_8094F864+0xac>
     624:	4600b40d 	trunc.w.s	$f16,$f22
     628:	0c000000 	jal	0 <func_8094F2C0>
     62c:	00000000 	nop
     630:	46160202 	mul.s	$f8,$f0,$f22
     634:	4600428d 	trunc.w.s	$f10,$f8
     638:	44115000 	mfc1	s1,$f10
     63c:	00000000 	nop
     640:	00118c00 	sll	s1,s1,0x10
     644:	10000006 	b	660 <func_8094F864+0xbc>
     648:	00118c03 	sra	s1,s1,0x10
     64c:	4600b40d 	trunc.w.s	$f16,$f22
     650:	44118000 	mfc1	s1,$f16
     654:	00000000 	nop
     658:	00118c00 	sll	s1,s1,0x10
     65c:	00118c03 	sra	s1,s1,0x10
     660:	0c000000 	jal	0 <func_8094F2C0>
     664:	4600a306 	mov.s	$f12,$f20
     668:	02360019 	multu	s1,s6
     66c:	c6460024 	lwc1	$f6,36(s2)
     670:	4600c306 	mov.s	$f12,$f24
     674:	0000c012 	mflo	t8
     678:	02588021 	addu	s0,s2,t8
     67c:	c61201fc 	lwc1	$f18,508(s0)
     680:	46009100 	add.s	$f4,$f18,$f0
     684:	46062201 	sub.s	$f8,$f4,$f6
     688:	0c000000 	jal	0 <func_8094F2C0>
     68c:	e7a8006c 	swc1	$f8,108(sp)
     690:	c60a0200 	lwc1	$f10,512(s0)
     694:	c6520028 	lwc1	$f18,40(s2)
     698:	4600a306 	mov.s	$f12,$f20
     69c:	46005400 	add.s	$f16,$f10,$f0
     6a0:	46128101 	sub.s	$f4,$f16,$f18
     6a4:	0c000000 	jal	0 <func_8094F2C0>
     6a8:	e7a40070 	swc1	$f4,112(sp)
     6ac:	c6060204 	lwc1	$f6,516(s0)
     6b0:	c64a002c 	lwc1	$f10,44(s2)
     6b4:	87b9008e 	lh	t9,142(sp)
     6b8:	46003200 	add.s	$f8,$f6,$f0
     6bc:	afb50014 	sw	s5,20(sp)
     6c0:	8fa40080 	lw	a0,128(sp)
     6c4:	02e02825 	move	a1,s7
     6c8:	460a4401 	sub.s	$f16,$f8,$f10
     6cc:	02403025 	move	a2,s2
     6d0:	03c03825 	move	a3,s8
     6d4:	afb90010 	sw	t9,16(sp)
     6d8:	0c000000 	jal	0 <func_8094F2C0>
     6dc:	e7b00074 	swc1	$f16,116(sp)
     6e0:	2673ffff 	addiu	s3,s3,-1
     6e4:	1660ffce 	bnez	s3,620 <func_8094F864+0x7c>
     6e8:	00000000 	nop
     6ec:	8fbf005c 	lw	ra,92(sp)
     6f0:	d7b40020 	ldc1	$f20,32(sp)
     6f4:	d7b60028 	ldc1	$f22,40(sp)
     6f8:	d7b80030 	ldc1	$f24,48(sp)
     6fc:	8fb00038 	lw	s0,56(sp)
     700:	8fb1003c 	lw	s1,60(sp)
     704:	8fb20040 	lw	s2,64(sp)
     708:	8fb30044 	lw	s3,68(sp)
     70c:	8fb40048 	lw	s4,72(sp)
     710:	8fb5004c 	lw	s5,76(sp)
     714:	8fb60050 	lw	s6,80(sp)
     718:	8fb70054 	lw	s7,84(sp)
     71c:	8fbe0058 	lw	s8,88(sp)
     720:	03e00008 	jr	ra
     724:	27bd0080 	addiu	sp,sp,128

00000728 <func_8094F9E8>:
     728:	27bdff80 	addiu	sp,sp,-128
     72c:	afb30044 	sw	s3,68(sp)
     730:	afb20040 	sw	s2,64(sp)
     734:	00a09025 	move	s2,a1
     738:	afbf005c 	sw	ra,92(sp)
     73c:	afbe0058 	sw	s8,88(sp)
     740:	afb70054 	sw	s7,84(sp)
     744:	afb60050 	sw	s6,80(sp)
     748:	afb5004c 	sw	s5,76(sp)
     74c:	afb40048 	sw	s4,72(sp)
     750:	afb1003c 	sw	s1,60(sp)
     754:	afb00038 	sw	s0,56(sp)
     758:	f7b80030 	sdc1	$f24,48(sp)
     75c:	f7b60028 	sdc1	$f22,40(sp)
     760:	f7b40020 	sdc1	$f20,32(sp)
     764:	afa40080 	sw	a0,128(sp)
     768:	afa7008c 	sw	a3,140(sp)
     76c:	18c00040 	blez	a2,870 <func_8094F9E8+0x148>
     770:	00c09825 	move	s3,a2
     774:	3c010000 	lui	at,0x0
     778:	c4260000 	lwc1	$f6,0(at)
     77c:	c7a4009c 	lwc1	$f4,156(sp)
     780:	3c170000 	lui	s7,0x0
     784:	26f70000 	addiu	s7,s7,0
     788:	c7b80094 	lwc1	$f24,148(sp)
     78c:	c7b40090 	lwc1	$f20,144(sp)
     790:	27be006c 	addiu	s8,sp,108
     794:	2416000c 	li	s6,12
     798:	93b5009b 	lbu	s5,155(sp)
     79c:	93b400a3 	lbu	s4,163(sp)
     7a0:	46062581 	sub.s	$f22,$f4,$f6
     7a4:	5680000b 	bnezl	s4,7d4 <func_8094F9E8+0xac>
     7a8:	4600b40d 	trunc.w.s	$f16,$f22
     7ac:	0c000000 	jal	0 <func_8094F2C0>
     7b0:	00000000 	nop
     7b4:	46160202 	mul.s	$f8,$f0,$f22
     7b8:	4600428d 	trunc.w.s	$f10,$f8
     7bc:	44115000 	mfc1	s1,$f10
     7c0:	00000000 	nop
     7c4:	00118c00 	sll	s1,s1,0x10
     7c8:	10000006 	b	7e4 <func_8094F9E8+0xbc>
     7cc:	00118c03 	sra	s1,s1,0x10
     7d0:	4600b40d 	trunc.w.s	$f16,$f22
     7d4:	44118000 	mfc1	s1,$f16
     7d8:	00000000 	nop
     7dc:	00118c00 	sll	s1,s1,0x10
     7e0:	00118c03 	sra	s1,s1,0x10
     7e4:	0c000000 	jal	0 <func_8094F2C0>
     7e8:	4600a306 	mov.s	$f12,$f20
     7ec:	02360019 	multu	s1,s6
     7f0:	c6460024 	lwc1	$f6,36(s2)
     7f4:	4600c306 	mov.s	$f12,$f24
     7f8:	0000c012 	mflo	t8
     7fc:	02588021 	addu	s0,s2,t8
     800:	c61201fc 	lwc1	$f18,508(s0)
     804:	46009100 	add.s	$f4,$f18,$f0
     808:	46062201 	sub.s	$f8,$f4,$f6
     80c:	0c000000 	jal	0 <func_8094F2C0>
     810:	e7a8006c 	swc1	$f8,108(sp)
     814:	c60a0200 	lwc1	$f10,512(s0)
     818:	c6520028 	lwc1	$f18,40(s2)
     81c:	4600a306 	mov.s	$f12,$f20
     820:	46005400 	add.s	$f16,$f10,$f0
     824:	46128101 	sub.s	$f4,$f16,$f18
     828:	0c000000 	jal	0 <func_8094F2C0>
     82c:	e7a40070 	swc1	$f4,112(sp)
     830:	c6060204 	lwc1	$f6,516(s0)
     834:	c64a002c 	lwc1	$f10,44(s2)
     838:	87b9008e 	lh	t9,142(sp)
     83c:	46003200 	add.s	$f8,$f6,$f0
     840:	afb50014 	sw	s5,20(sp)
     844:	8fa40080 	lw	a0,128(sp)
     848:	02e02825 	move	a1,s7
     84c:	460a4401 	sub.s	$f16,$f8,$f10
     850:	02403025 	move	a2,s2
     854:	03c03825 	move	a3,s8
     858:	afb90010 	sw	t9,16(sp)
     85c:	0c000000 	jal	0 <func_8094F2C0>
     860:	e7b00074 	swc1	$f16,116(sp)
     864:	2673ffff 	addiu	s3,s3,-1
     868:	1660ffce 	bnez	s3,7a4 <func_8094F9E8+0x7c>
     86c:	00000000 	nop
     870:	8fbf005c 	lw	ra,92(sp)
     874:	d7b40020 	ldc1	$f20,32(sp)
     878:	d7b60028 	ldc1	$f22,40(sp)
     87c:	d7b80030 	ldc1	$f24,48(sp)
     880:	8fb00038 	lw	s0,56(sp)
     884:	8fb1003c 	lw	s1,60(sp)
     888:	8fb20040 	lw	s2,64(sp)
     88c:	8fb30044 	lw	s3,68(sp)
     890:	8fb40048 	lw	s4,72(sp)
     894:	8fb5004c 	lw	s5,76(sp)
     898:	8fb60050 	lw	s6,80(sp)
     89c:	8fb70054 	lw	s7,84(sp)
     8a0:	8fbe0058 	lw	s8,88(sp)
     8a4:	03e00008 	jr	ra
     8a8:	27bd0080 	addiu	sp,sp,128

000008ac <func_8094FB6C>:
     8ac:	3c010001 	lui	at,0x1
     8b0:	00811021 	addu	v0,a0,at
     8b4:	2403000a 	li	v1,10
     8b8:	24050078 	li	a1,120
     8bc:	240e0073 	li	t6,115
     8c0:	240f0041 	li	t7,65
     8c4:	24180064 	li	t8,100
     8c8:	24190046 	li	t9,70
     8cc:	a4430ab0 	sh	v1,2736(v0)
     8d0:	a4430ab2 	sh	v1,2738(v0)
     8d4:	a4430ab4 	sh	v1,2740(v0)
     8d8:	a44e0ab6 	sh	t6,2742(v0)
     8dc:	a44f0ab8 	sh	t7,2744(v0)
     8e0:	a4580aba 	sh	t8,2746(v0)
     8e4:	a4450abc 	sh	a1,2748(v0)
     8e8:	a4450abe 	sh	a1,2750(v0)
     8ec:	03e00008 	jr	ra
     8f0:	a4590ac0 	sh	t9,2752(v0)

000008f4 <func_8094FBB4>:
     8f4:	3c010001 	lui	at,0x1
     8f8:	00811021 	addu	v0,a0,at
     8fc:	240300dc 	li	v1,220
     900:	240e0096 	li	t6,150
     904:	a4430abc 	sh	v1,2748(v0)
     908:	a4430abe 	sh	v1,2750(v0)
     90c:	a44e0ac0 	sh	t6,2752(v0)
     910:	00240821 	addu	at,at,a0
     914:	240ffc18 	li	t7,-1000
     918:	a42f0ac2 	sh	t7,2754(at)
     91c:	3c010001 	lui	at,0x1
     920:	00240821 	addu	at,at,a0
     924:	2418fc7c 	li	t8,-900
     928:	a4380ac4 	sh	t8,2756(at)
     92c:	240500c8 	li	a1,200
     930:	240600dc 	li	a2,220
     934:	241900d7 	li	t9,215
     938:	240800a5 	li	t0,165
     93c:	24090096 	li	t1,150
     940:	240a0064 	li	t2,100
     944:	a4450ab0 	sh	a1,2736(v0)
     948:	a4450ab2 	sh	a1,2738(v0)
     94c:	a4450ab4 	sh	a1,2740(v0)
     950:	a4590ab6 	sh	t9,2742(v0)
     954:	a4480ab8 	sh	t0,2744(v0)
     958:	a4450aba 	sh	a1,2746(v0)
     95c:	a0460b06 	sb	a2,2822(v0)
     960:	a0460b07 	sb	a2,2823(v0)
     964:	a0490b08 	sb	t1,2824(v0)
     968:	03e00008 	jr	ra
     96c:	a04a0b09 	sb	t2,2825(v0)

00000970 <func_8094FC30>:
     970:	8c831c74 	lw	v1,7284(a0)
     974:	24020032 	li	v0,50
     978:	5060000b 	beqzl	v1,9a8 <func_8094FC30+0x38>
     97c:	00001025 	move	v0,zero
     980:	846e0000 	lh	t6,0(v1)
     984:	104e0003 	beq	v0,t6,994 <func_8094FC30+0x24>
     988:	00000000 	nop
     98c:	10000003 	b	99c <func_8094FC30+0x2c>
     990:	8c630124 	lw	v1,292(v1)
     994:	03e00008 	jr	ra
     998:	00601025 	move	v0,v1
     99c:	5460fff9 	bnezl	v1,984 <func_8094FC30+0x14>
     9a0:	846e0000 	lh	t6,0(v1)
     9a4:	00001025 	move	v0,zero
     9a8:	03e00008 	jr	ra
     9ac:	00000000 	nop

000009b0 <func_8094FC70>:
     9b0:	27bdff68 	addiu	sp,sp,-152
     9b4:	3c0e0000 	lui	t6,0x0
     9b8:	afbf0064 	sw	ra,100(sp)
     9bc:	afb60060 	sw	s6,96(sp)
     9c0:	afb5005c 	sw	s5,92(sp)
     9c4:	afb40058 	sw	s4,88(sp)
     9c8:	afb30054 	sw	s3,84(sp)
     9cc:	afb20050 	sw	s2,80(sp)
     9d0:	afb1004c 	sw	s1,76(sp)
     9d4:	afb00048 	sw	s0,72(sp)
     9d8:	f7ba0040 	sdc1	$f26,64(sp)
     9dc:	f7b80038 	sdc1	$f24,56(sp)
     9e0:	f7b60030 	sdc1	$f22,48(sp)
     9e4:	f7b40028 	sdc1	$f20,40(sp)
     9e8:	25ce0000 	addiu	t6,t6,0
     9ec:	8dd80000 	lw	t8,0(t6)
     9f0:	27b40078 	addiu	s4,sp,120
     9f4:	3c190000 	lui	t9,0x0
     9f8:	ae980000 	sw	t8,0(s4)
     9fc:	8dcf0004 	lw	t7,4(t6)
     a00:	27390000 	addiu	t9,t9,0
     a04:	27b5006c 	addiu	s5,sp,108
     a08:	ae8f0004 	sw	t7,4(s4)
     a0c:	8dd80008 	lw	t8,8(t6)
     a10:	3c010000 	lui	at,0x0
     a14:	00808825 	move	s1,a0
     a18:	ae980008 	sw	t8,8(s4)
     a1c:	8f290000 	lw	t1,0(t9)
     a20:	00a09825 	move	s3,a1
     a24:	24120007 	li	s2,7
     a28:	aea90000 	sw	t1,0(s5)
     a2c:	8f280004 	lw	t0,4(t9)
     a30:	27b60084 	addiu	s6,sp,132
     a34:	aea80004 	sw	t0,4(s5)
     a38:	8f290008 	lw	t1,8(t9)
     a3c:	aea90008 	sw	t1,8(s5)
     a40:	c43a0000 	lwc1	$f26,0(at)
     a44:	3c013f80 	lui	at,0x3f80
     a48:	4481c000 	mtc1	at,$f24
     a4c:	3c014248 	lui	at,0x4248
     a50:	4481b000 	mtc1	at,$f22
     a54:	3c014270 	lui	at,0x4270
     a58:	4481a000 	mtc1	at,$f20
     a5c:	00000000 	nop
     a60:	0c000000 	jal	0 <func_8094F2C0>
     a64:	4600a306 	mov.s	$f12,$f20
     a68:	c6240024 	lwc1	$f4,36(s1)
     a6c:	4600b306 	mov.s	$f12,$f22
     a70:	46040180 	add.s	$f6,$f0,$f4
     a74:	0c000000 	jal	0 <func_8094F2C0>
     a78:	e7a60084 	swc1	$f6,132(sp)
     a7c:	c62800bc 	lwc1	$f8,188(s1)
     a80:	c62a0054 	lwc1	$f10,84(s1)
     a84:	c6320028 	lwc1	$f18,40(s1)
     a88:	4600a306 	mov.s	$f12,$f20
     a8c:	460a4402 	mul.s	$f16,$f8,$f10
     a90:	46109100 	add.s	$f4,$f18,$f16
     a94:	46040180 	add.s	$f6,$f0,$f4
     a98:	0c000000 	jal	0 <func_8094F2C0>
     a9c:	e7a60088 	swc1	$f6,136(sp)
     aa0:	c628002c 	lwc1	$f8,44(s1)
     aa4:	46080280 	add.s	$f10,$f0,$f8
     aa8:	0c000000 	jal	0 <func_8094F2C0>
     aac:	e7aa008c 	swc1	$f10,140(sp)
     ab0:	46180480 	add.s	$f18,$f0,$f24
     ab4:	24040050 	li	a0,80
     ab8:	24050064 	li	a1,100
     abc:	0c000000 	jal	0 <func_8094F2C0>
     ac0:	e7b2007c 	swc1	$f18,124(sp)
     ac4:	00028400 	sll	s0,v0,0x10
     ac8:	0c000000 	jal	0 <func_8094F2C0>
     acc:	00108403 	sra	s0,s0,0x10
     ad0:	461a003c 	c.lt.s	$f0,$f26
     ad4:	02602025 	move	a0,s3
     ad8:	02c02825 	move	a1,s6
     adc:	02803025 	move	a2,s4
     ae0:	4500000f 	bc1f	b20 <func_8094FC70+0x170>
     ae4:	02a03825 	move	a3,s5
     ae8:	240a0019 	li	t2,25
     aec:	240b0002 	li	t3,2
     af0:	240c0001 	li	t4,1
     af4:	afac001c 	sw	t4,28(sp)
     af8:	afab0018 	sw	t3,24(sp)
     afc:	afaa0014 	sw	t2,20(sp)
     b00:	02602025 	move	a0,s3
     b04:	02c02825 	move	a1,s6
     b08:	02803025 	move	a2,s4
     b0c:	02a03825 	move	a3,s5
     b10:	0c000000 	jal	0 <func_8094F2C0>
     b14:	afb00010 	sw	s0,16(sp)
     b18:	10000009 	b	b40 <func_8094FC70+0x190>
     b1c:	2652ffff 	addiu	s2,s2,-1
     b20:	240d0019 	li	t5,25
     b24:	240e0001 	li	t6,1
     b28:	afae001c 	sw	t6,28(sp)
     b2c:	afad0014 	sw	t5,20(sp)
     b30:	afb00010 	sw	s0,16(sp)
     b34:	0c000000 	jal	0 <func_8094F2C0>
     b38:	afa00018 	sw	zero,24(sp)
     b3c:	2652ffff 	addiu	s2,s2,-1
     b40:	0641ffc7 	bgez	s2,a60 <func_8094FC70+0xb0>
     b44:	00000000 	nop
     b48:	3c020000 	lui	v0,0x0
     b4c:	24420000 	addiu	v0,v0,0
     b50:	904f0000 	lbu	t7,0(v0)
     b54:	02202025 	move	a0,s1
     b58:	25f80001 	addiu	t8,t7,1
     b5c:	0c000000 	jal	0 <func_8094F2C0>
     b60:	a0580000 	sb	t8,0(v0)
     b64:	8fbf0064 	lw	ra,100(sp)
     b68:	d7b40028 	ldc1	$f20,40(sp)
     b6c:	d7b60030 	ldc1	$f22,48(sp)
     b70:	d7b80038 	ldc1	$f24,56(sp)
     b74:	d7ba0040 	ldc1	$f26,64(sp)
     b78:	8fb00048 	lw	s0,72(sp)
     b7c:	8fb1004c 	lw	s1,76(sp)
     b80:	8fb20050 	lw	s2,80(sp)
     b84:	8fb30054 	lw	s3,84(sp)
     b88:	8fb40058 	lw	s4,88(sp)
     b8c:	8fb5005c 	lw	s5,92(sp)
     b90:	8fb60060 	lw	s6,96(sp)
     b94:	03e00008 	jr	ra
     b98:	27bd0098 	addiu	sp,sp,152

00000b9c <BossVa_Init>:
     b9c:	27bdff88 	addiu	sp,sp,-120
     ba0:	afb40048 	sw	s4,72(sp)
     ba4:	00a0a025 	move	s4,a1
     ba8:	afbf004c 	sw	ra,76(sp)
     bac:	afb30044 	sw	s3,68(sp)
     bb0:	3c053dcc 	lui	a1,0x3dcc
     bb4:	00809825 	move	s3,a0
     bb8:	afb20040 	sw	s2,64(sp)
     bbc:	afb1003c 	sw	s1,60(sp)
     bc0:	afb00038 	sw	s0,56(sp)
     bc4:	0c000000 	jal	0 <func_8094F2C0>
     bc8:	34a5cccd 	ori	a1,a1,0xcccd
     bcc:	8678001c 	lh	t8,28(s3)
     bd0:	240e0005 	li	t6,5
     bd4:	240f00ff 	li	t7,255
     bd8:	27190001 	addiu	t9,t8,1
     bdc:	2f210015 	sltiu	at,t9,21
     be0:	a26e001f 	sb	t6,31(s3)
     be4:	1020003a 	beqz	at,cd0 <L8094FF90>
     be8:	a26f00ae 	sb	t7,174(s3)
     bec:	0019c880 	sll	t9,t9,0x2
     bf0:	3c010000 	lui	at,0x0
     bf4:	00390821 	addu	at,at,t9
     bf8:	8c390000 	lw	t9,0(at)
     bfc:	03200008 	jr	t9
     c00:	00000000 	nop

00000c04 <L8094FEC4>:
     c04:	3c060601 	lui	a2,0x601
     c08:	3c070600 	lui	a3,0x600
     c0c:	24e75184 	addiu	a3,a3,20868
     c10:	24c65b18 	addiu	a2,a2,23320
     c14:	02802025 	move	a0,s4
     c18:	2665014c 	addiu	a1,s3,332
     c1c:	afa00010 	sw	zero,16(sp)
     c20:	afa00014 	sw	zero,20(sp)
     c24:	0c000000 	jal	0 <func_8094F2C0>
     c28:	afa00018 	sw	zero,24(sp)
     c2c:	8e690004 	lw	t1,4(s3)
     c30:	3c010100 	lui	at,0x100
     c34:	01215025 	or	t2,t1,at
     c38:	10000037 	b	d18 <L8094FFD8>
     c3c:	ae6a0004 	sw	t2,4(s3)

00000c40 <L8094FF00>:
     c40:	3c060601 	lui	a2,0x601
     c44:	3c070601 	lui	a3,0x601
     c48:	24e766a8 	addiu	a3,a3,26280
     c4c:	24c67498 	addiu	a2,a2,29848
     c50:	02802025 	move	a0,s4
     c54:	2665014c 	addiu	a1,s3,332
     c58:	afa00010 	sw	zero,16(sp)
     c5c:	afa00014 	sw	zero,20(sp)
     c60:	0c000000 	jal	0 <func_8094F2C0>
     c64:	afa00018 	sw	zero,24(sp)
     c68:	1000002c 	b	d1c <L8094FFD8+0x4>
     c6c:	8e6e0024 	lw	t6,36(s3)

00000c70 <L8094FF30>:
     c70:	3c060602 	lui	a2,0x602
     c74:	3c070602 	lui	a3,0x602
     c78:	24e78d18 	addiu	a3,a3,-29416
     c7c:	24c699a0 	addiu	a2,a2,-26208
     c80:	02802025 	move	a0,s4
     c84:	2665014c 	addiu	a1,s3,332
     c88:	afa00010 	sw	zero,16(sp)
     c8c:	afa00014 	sw	zero,20(sp)
     c90:	0c000000 	jal	0 <func_8094F2C0>
     c94:	afa00018 	sw	zero,24(sp)
     c98:	10000020 	b	d1c <L8094FFD8+0x4>
     c9c:	8e6e0024 	lw	t6,36(s3)

00000ca0 <L8094FF60>:
     ca0:	3c060602 	lui	a2,0x602
     ca4:	3c070602 	lui	a3,0x602
     ca8:	24e78150 	addiu	a3,a3,-32432
     cac:	24c68870 	addiu	a2,a2,-30608
     cb0:	02802025 	move	a0,s4
     cb4:	2665014c 	addiu	a1,s3,332
     cb8:	afa00010 	sw	zero,16(sp)
     cbc:	afa00014 	sw	zero,20(sp)
     cc0:	0c000000 	jal	0 <func_8094F2C0>
     cc4:	afa00018 	sw	zero,24(sp)
     cc8:	10000014 	b	d1c <L8094FFD8+0x4>
     ccc:	8e6e0024 	lw	t6,36(s3)

00000cd0 <L8094FF90>:
     cd0:	8e6b0004 	lw	t3,4(s3)
     cd4:	3c010100 	lui	at,0x100
     cd8:	3c060600 	lui	a2,0x600
     cdc:	01616025 	or	t4,t3,at
     ce0:	ae6c0004 	sw	t4,4(s3)
     ce4:	3c070600 	lui	a3,0x600
     ce8:	24e70024 	addiu	a3,a3,36
     cec:	afa00018 	sw	zero,24(sp)
     cf0:	afa00014 	sw	zero,20(sp)
     cf4:	afa00010 	sw	zero,16(sp)
     cf8:	24c64e70 	addiu	a2,a2,20080
     cfc:	02802025 	move	a0,s4
     d00:	0c000000 	jal	0 <func_8094F2C0>
     d04:	2665014c 	addiu	a1,s3,332
     d08:	3c0143c8 	lui	at,0x43c8
     d0c:	44812000 	mtc1	at,$f4
     d10:	00000000 	nop
     d14:	e66400bc 	swc1	$f4,188(s3)

00000d18 <L8094FFD8>:
     d18:	8e6e0024 	lw	t6,36(s3)
     d1c:	8678001c 	lh	t8,28(s3)
     d20:	8e6d0028 	lw	t5,40(s3)
     d24:	ae6e0038 	sw	t6,56(s3)
     d28:	8e6e002c 	lw	t6,44(s3)
     d2c:	27190001 	addiu	t9,t8,1
     d30:	240f0014 	li	t7,20
     d34:	2f210015 	sltiu	at,t9,21
     d38:	a2600194 	sb	zero,404(s3)
     d3c:	a26f0117 	sb	t7,279(s3)
     d40:	ae6d003c 	sw	t5,60(s3)
     d44:	1020016f 	beqz	at,1304 <L809505C4>
     d48:	ae6e0040 	sw	t6,64(s3)
     d4c:	0019c880 	sll	t9,t9,0x2
     d50:	3c010000 	lui	at,0x0
     d54:	00390821 	addu	at,at,t9
     d58:	8c390000 	lw	t9,0(at)
     d5c:	03200008 	jr	t9
     d60:	00000000 	nop

00000d64 <L80950024>:
     d64:	3c0142a0 	lui	at,0x42a0
     d68:	44814000 	mtc1	at,$f8
     d6c:	3c0143c8 	lui	at,0x43c8
     d70:	44815000 	mtc1	at,$f10
     d74:	44803000 	mtc1	zero,$f6
     d78:	26841c24 	addiu	a0,s4,7204
     d7c:	24090013 	li	t1,19
     d80:	afa90028 	sw	t1,40(sp)
     d84:	afa40050 	sw	a0,80(sp)
     d88:	02602825 	move	a1,s3
     d8c:	02803025 	move	a2,s4
     d90:	240700ba 	li	a3,186
     d94:	afa0001c 	sw	zero,28(sp)
     d98:	afa00020 	sw	zero,32(sp)
     d9c:	afa00024 	sw	zero,36(sp)
     da0:	e7a80014 	swc1	$f8,20(sp)
     da4:	e7aa0018 	swc1	$f10,24(sp)
     da8:	0c000000 	jal	0 <func_8094F2C0>
     dac:	e7a60010 	swc1	$f6,16(sp)
     db0:	3c010001 	lui	at,0x1
     db4:	02818021 	addu	s0,s4,at
     db8:	82051cbc 	lb	a1,7356(s0)
     dbc:	0c000000 	jal	0 <func_8094F2C0>
     dc0:	02802025 	move	a0,s4
     dc4:	1040002c 	beqz	v0,e78 <L80950024+0x114>
     dc8:	3c0d0000 	lui	t5,0x0
     dcc:	3c0a0000 	lui	t2,0x0
     dd0:	954a0eda 	lhu	t2,3802(t2)
     dd4:	240600a1 	li	a2,161
     dd8:	8fa40050 	lw	a0,80(sp)
     ddc:	314b0080 	andi	t3,t2,0x80
     de0:	51600003 	beqzl	t3,df0 <L80950024+0x8c>
     de4:	c6700028 	lwc1	$f16,40(s3)
     de8:	2406005d 	li	a2,93
     dec:	c6700028 	lwc1	$f16,40(s3)
     df0:	8e670024 	lw	a3,36(s3)
     df4:	02802825 	move	a1,s4
     df8:	e7b00010 	swc1	$f16,16(sp)
     dfc:	c672002c 	lwc1	$f18,44(s3)
     e00:	afa00024 	sw	zero,36(sp)
     e04:	afa00020 	sw	zero,32(sp)
     e08:	afa0001c 	sw	zero,28(sp)
     e0c:	afa00018 	sw	zero,24(sp)
     e10:	0c000000 	jal	0 <func_8094F2C0>
     e14:	e7b20014 	swc1	$f18,20(sp)
     e18:	3c014320 	lui	at,0x4320
     e1c:	44813000 	mtc1	at,$f6
     e20:	c6640024 	lwc1	$f4,36(s3)
     e24:	c66a0028 	lwc1	$f10,40(s3)
     e28:	8fa40050 	lw	a0,80(sp)
     e2c:	46062200 	add.s	$f8,$f4,$f6
     e30:	e7aa0010 	swc1	$f10,16(sp)
     e34:	c670002c 	lwc1	$f16,44(s3)
     e38:	afa00024 	sw	zero,36(sp)
     e3c:	44074000 	mfc1	a3,$f8
     e40:	afa00020 	sw	zero,32(sp)
     e44:	afa0001c 	sw	zero,28(sp)
     e48:	afa00018 	sw	zero,24(sp)
     e4c:	02802825 	move	a1,s4
     e50:	2406005f 	li	a2,95
     e54:	0c000000 	jal	0 <func_8094F2C0>
     e58:	e7b00014 	swc1	$f16,20(sp)
     e5c:	240c0064 	li	t4,100
     e60:	3c010000 	lui	at,0x0
     e64:	a42c0000 	sh	t4,0(at)
     e68:	0c000000 	jal	0 <func_8094F2C0>
     e6c:	02602025 	move	a0,s3
     e70:	10000156 	b	13cc <L809505C4+0xc8>
     e74:	8fbf004c 	lw	ra,76(sp)
     e78:	25ad0000 	addiu	t5,t5,0
     e7c:	ae6d0098 	sw	t5,152(s3)
     e80:	3c0f0000 	lui	t7,0x0
     e84:	95ef0ee2 	lhu	t7,3810(t7)
     e88:	340effff 	li	t6,0xffff
     e8c:	3c010000 	lui	at,0x0
     e90:	31f80040 	andi	t8,t7,0x40
     e94:	1300008f 	beqz	t8,10d4 <L80950024+0x370>
     e98:	a42e0000 	sh	t6,0(at)
     e9c:	24190008 	li	t9,8
     ea0:	3c010000 	lui	at,0x0
     ea4:	a0390000 	sb	t9,0(at)
     ea8:	3c010000 	lui	at,0x0
     eac:	24090064 	li	t1,100
     eb0:	a4290000 	sh	t1,0(at)
     eb4:	02802025 	move	a0,s4
     eb8:	02602825 	move	a1,s3
     ebc:	0c000000 	jal	0 <func_8094F2C0>
     ec0:	24060001 	li	a2,1
     ec4:	240300dc 	li	v1,220
     ec8:	240a00be 	li	t2,190
     ecc:	240b00d2 	li	t3,210
     ed0:	a2030b06 	sb	v1,2822(s0)
     ed4:	a2030b07 	sb	v1,2823(s0)
     ed8:	a20a0b08 	sb	t2,2824(s0)
     edc:	a20b0b09 	sb	t3,2825(s0)
     ee0:	02802025 	move	a0,s4
     ee4:	0c000000 	jal	0 <func_8094F2C0>
     ee8:	26851d64 	addiu	a1,s4,7524
     eec:	0c000000 	jal	0 <func_8094F2C0>
     ef0:	02802025 	move	a0,s4
     ef4:	3c100000 	lui	s0,0x0
     ef8:	26100000 	addiu	s0,s0,0
     efc:	a6020000 	sh	v0,0(s0)
     f00:	02802025 	move	a0,s4
     f04:	00002825 	move	a1,zero
     f08:	0c000000 	jal	0 <func_8094F2C0>
     f0c:	24060001 	li	a2,1
     f10:	02802025 	move	a0,s4
     f14:	86050000 	lh	a1,0(s0)
     f18:	0c000000 	jal	0 <func_8094F2C0>
     f1c:	24060007 	li	a2,7
     f20:	3c01430c 	lui	at,0x430c
     f24:	44819000 	mtc1	at,$f18
     f28:	3c01434d 	lui	at,0x434d
     f2c:	44813000 	mtc1	at,$f6
     f30:	3c070000 	lui	a3,0x0
     f34:	3c01c1a0 	lui	at,0xc1a0
     f38:	44815000 	mtc1	at,$f10
     f3c:	24e70000 	addiu	a3,a3,0
     f40:	3c014120 	lui	at,0x4120
     f44:	e4f20000 	swc1	$f18,0(a3)
     f48:	44819000 	mtc1	at,$f18
     f4c:	3c060000 	lui	a2,0x0
     f50:	3c014248 	lui	at,0x4248
     f54:	e4e60004 	swc1	$f6,4(a3)
     f58:	44813000 	mtc1	at,$f6
     f5c:	24c60000 	addiu	a2,a2,0
     f60:	e4ea0008 	swc1	$f10,8(a3)
     f64:	3c030000 	lui	v1,0x0
     f68:	3c01c35c 	lui	at,0xc35c
     f6c:	c4e40000 	lwc1	$f4,0(a3)
     f70:	c4e80004 	lwc1	$f8,4(a3)
     f74:	c4f00008 	lwc1	$f16,8(a3)
     f78:	44815000 	mtc1	at,$f10
     f7c:	24630000 	addiu	v1,v1,0
     f80:	3c080000 	lui	t0,0x0
     f84:	e4d20000 	swc1	$f18,0(a2)
     f88:	e4c60004 	swc1	$f6,4(a2)
     f8c:	e4640000 	swc1	$f4,0(v1)
     f90:	e4680004 	swc1	$f8,4(v1)
     f94:	e4700008 	swc1	$f16,8(v1)
     f98:	e4ca0008 	swc1	$f10,8(a2)
     f9c:	c4c40000 	lwc1	$f4,0(a2)
     fa0:	c4c80004 	lwc1	$f8,4(a2)
     fa4:	c4d00008 	lwc1	$f16,8(a2)
     fa8:	25080000 	addiu	t0,t0,0
     fac:	02802025 	move	a0,s4
     fb0:	86050000 	lh	a1,0(s0)
     fb4:	e5040000 	swc1	$f4,0(t0)
     fb8:	e5080004 	swc1	$f8,4(t0)
     fbc:	0c000000 	jal	0 <func_8094F2C0>
     fc0:	e5100008 	swc1	$f16,8(t0)
     fc4:	240c0014 	li	t4,20
     fc8:	3c100000 	lui	s0,0x0
     fcc:	3c110000 	lui	s1,0x0
     fd0:	ae6c0198 	sw	t4,408(s3)
     fd4:	26310000 	addiu	s1,s1,0
     fd8:	26100000 	addiu	s0,s0,0
     fdc:	2412000f 	li	s2,15
     fe0:	c6120000 	lwc1	$f18,0(s0)
     fe4:	c6640024 	lwc1	$f4,36(s3)
     fe8:	c6080004 	lwc1	$f8,4(s0)
     fec:	862d0000 	lh	t5,0(s1)
     ff0:	46049180 	add.s	$f6,$f18,$f4
     ff4:	c6120008 	lwc1	$f18,8(s0)
     ff8:	86380002 	lh	t8,2(s1)
     ffc:	862a0004 	lh	t2,4(s1)
    1000:	e7a60010 	swc1	$f6,16(sp)
    1004:	c66a0028 	lwc1	$f10,40(s3)
    1008:	8fa40050 	lw	a0,80(sp)
    100c:	02602825 	move	a1,s3
    1010:	460a4400 	add.s	$f16,$f8,$f10
    1014:	02803025 	move	a2,s4
    1018:	240700ba 	li	a3,186
    101c:	e7b00014 	swc1	$f16,20(sp)
    1020:	c664002c 	lwc1	$f4,44(s3)
    1024:	46049180 	add.s	$f6,$f18,$f4
    1028:	e7a60018 	swc1	$f6,24(sp)
    102c:	866e0030 	lh	t6,48(s3)
    1030:	01ae7821 	addu	t7,t5,t6
    1034:	afaf001c 	sw	t7,28(sp)
    1038:	86790032 	lh	t9,50(s3)
    103c:	03194821 	addu	t1,t8,t9
    1040:	afa90020 	sw	t1,32(sp)
    1044:	866b0034 	lh	t3,52(s3)
    1048:	afb20028 	sw	s2,40(sp)
    104c:	014b6021 	addu	t4,t2,t3
    1050:	0c000000 	jal	0 <func_8094F2C0>
    1054:	afac0024 	sw	t4,36(sp)
    1058:	2652ffff 	addiu	s2,s2,-1
    105c:	24010005 	li	at,5
    1060:	2610fff4 	addiu	s0,s0,-12
    1064:	1641ffde 	bne	s2,at,fe0 <L80950024+0x27c>
    1068:	2631fffa 	addiu	s1,s1,-6
    106c:	3c0d0000 	lui	t5,0x0
    1070:	25ad0000 	addiu	t5,t5,0
    1074:	8daf0000 	lw	t7,0(t5)
    1078:	27a2005c 	addiu	v0,sp,92
    107c:	3c180000 	lui	t8,0x0
    1080:	ac4f0000 	sw	t7,0(v0)
    1084:	8dae0004 	lw	t6,4(t5)
    1088:	8c490000 	lw	t1,0(v0)
    108c:	27180000 	addiu	t8,t8,0
    1090:	ac4e0004 	sw	t6,4(v0)
    1094:	8daf0008 	lw	t7,8(t5)
    1098:	3c0a0000 	lui	t2,0x0
    109c:	254a0000 	addiu	t2,t2,0
    10a0:	ac4f0008 	sw	t7,8(v0)
    10a4:	af090000 	sw	t1,0(t8)
    10a8:	8c590004 	lw	t9,4(v0)
    10ac:	af190004 	sw	t9,4(t8)
    10b0:	8c490008 	lw	t1,8(v0)
    10b4:	af090008 	sw	t1,8(t8)
    10b8:	8c4c0000 	lw	t4,0(v0)
    10bc:	ad4c0000 	sw	t4,0(t2)
    10c0:	8c4b0004 	lw	t3,4(v0)
    10c4:	ad4b0004 	sw	t3,4(t2)
    10c8:	8c4c0008 	lw	t4,8(v0)
    10cc:	10000007 	b	10ec <L80950024+0x388>
    10d0:	ad4c0008 	sw	t4,8(t2)
    10d4:	240dfffc 	li	t5,-4
    10d8:	3c010000 	lui	at,0x0
    10dc:	a02d0000 	sb	t5,0(at)
    10e0:	3c010000 	lui	at,0x0
    10e4:	240e0005 	li	t6,5
    10e8:	a42e0000 	sh	t6,0(at)
    10ec:	3c013f80 	lui	at,0x3f80
    10f0:	44810000 	mtc1	at,$f0
    10f4:	2670028c 	addiu	s0,s3,652
    10f8:	02002825 	move	a1,s0
    10fc:	02802025 	move	a0,s4
    1100:	0c000000 	jal	0 <func_8094F2C0>
    1104:	e66001cc 	swc1	$f0,460(s3)
    1108:	3c070000 	lui	a3,0x0
    110c:	24e70000 	addiu	a3,a3,0
    1110:	02802025 	move	a0,s4
    1114:	02002825 	move	a1,s0
    1118:	0c000000 	jal	0 <func_8094F2C0>
    111c:	02603025 	move	a2,s3
    1120:	3c100000 	lui	s0,0x0
    1124:	3c110000 	lui	s1,0x0
    1128:	26310000 	addiu	s1,s1,0
    112c:	26100000 	addiu	s0,s0,0
    1130:	24120005 	li	s2,5
    1134:	c6080000 	lwc1	$f8,0(s0)
    1138:	c66a0024 	lwc1	$f10,36(s3)
    113c:	c6120004 	lwc1	$f18,4(s0)
    1140:	862f0000 	lh	t7,0(s1)
    1144:	460a4400 	add.s	$f16,$f8,$f10
    1148:	c6080008 	lwc1	$f8,8(s0)
    114c:	86290002 	lh	t1,2(s1)
    1150:	862c0004 	lh	t4,4(s1)
    1154:	e7b00010 	swc1	$f16,16(sp)
    1158:	c6640028 	lwc1	$f4,40(s3)
    115c:	8fa40050 	lw	a0,80(sp)
    1160:	02602825 	move	a1,s3
    1164:	46049180 	add.s	$f6,$f18,$f4
    1168:	02803025 	move	a2,s4
    116c:	240700ba 	li	a3,186
    1170:	e7a60014 	swc1	$f6,20(sp)
    1174:	c66a002c 	lwc1	$f10,44(s3)
    1178:	460a4400 	add.s	$f16,$f8,$f10
    117c:	e7b00018 	swc1	$f16,24(sp)
    1180:	86780030 	lh	t8,48(s3)
    1184:	01f8c821 	addu	t9,t7,t8
    1188:	afb9001c 	sw	t9,28(sp)
    118c:	866a0032 	lh	t2,50(s3)
    1190:	012a5821 	addu	t3,t1,t2
    1194:	afab0020 	sw	t3,32(sp)
    1198:	866d0034 	lh	t5,52(s3)
    119c:	afb20028 	sw	s2,40(sp)
    11a0:	018d7021 	addu	t6,t4,t5
    11a4:	0c000000 	jal	0 <func_8094F2C0>
    11a8:	afae0024 	sw	t6,36(sp)
    11ac:	2652ffff 	addiu	s2,s2,-1
    11b0:	2610fff4 	addiu	s0,s0,-12
    11b4:	0641ffdf 	bgez	s2,1134 <L80950024+0x3d0>
    11b8:	2631fffa 	addiu	s1,s1,-6
    11bc:	3c040000 	lui	a0,0x0
    11c0:	24840000 	addiu	a0,a0,0
    11c4:	34058980 	li	a1,0x8980
    11c8:	0c000000 	jal	0 <func_8094F2C0>
    11cc:	00003025 	move	a2,zero
    11d0:	3c0f0000 	lui	t7,0x0
    11d4:	81ef0000 	lb	t7,0(t7)
    11d8:	29e1000d 	slti	at,t7,13
    11dc:	10200005 	beqz	at,11f4 <L80950024+0x490>
    11e0:	00000000 	nop
    11e4:	0c000000 	jal	0 <func_8094F2C0>
    11e8:	02602025 	move	a0,s3
    11ec:	10000077 	b	13cc <L809505C4+0xc8>
    11f0:	8fbf004c 	lw	ra,76(sp)
    11f4:	0c000000 	jal	0 <func_8094F2C0>
    11f8:	02602025 	move	a0,s3
    11fc:	10000073 	b	13cc <L809505C4+0xc8>
    1200:	8fbf004c 	lw	ra,76(sp)

00001204 <L809504C4>:
    1204:	267002d8 	addiu	s0,s3,728
    1208:	02002825 	move	a1,s0
    120c:	0c000000 	jal	0 <func_8094F2C0>
    1210:	02802025 	move	a0,s4
    1214:	3c070000 	lui	a3,0x0
    1218:	267802f8 	addiu	t8,s3,760
    121c:	afb80010 	sw	t8,16(sp)
    1220:	24e70000 	addiu	a3,a3,0
    1224:	02802025 	move	a0,s4
    1228:	02002825 	move	a1,s0
    122c:	0c000000 	jal	0 <func_8094F2C0>
    1230:	02603025 	move	a2,s3
    1234:	3c190000 	lui	t9,0x0
    1238:	83390000 	lb	t9,0(t9)
    123c:	02802825 	move	a1,s4
    1240:	02602025 	move	a0,s3
    1244:	2b21000d 	slti	at,t9,13
    1248:	10200005 	beqz	at,1260 <L809504C4+0x5c>
    124c:	00000000 	nop
    1250:	0c000000 	jal	0 <func_8094F2C0>
    1254:	02602025 	move	a0,s3
    1258:	10000004 	b	126c <L809504C4+0x68>
    125c:	92690194 	lbu	t1,404(s3)
    1260:	0c000000 	jal	0 <func_8094F2C0>
    1264:	02802825 	move	a1,s4
    1268:	92690194 	lbu	t1,404(s3)
    126c:	252a0001 	addiu	t2,t1,1
    1270:	10000055 	b	13c8 <L809505C4+0xc4>
    1274:	a26a0194 	sb	t2,404(s3)

00001278 <L80950538>:
    1278:	26700338 	addiu	s0,s3,824
    127c:	02002825 	move	a1,s0
    1280:	0c000000 	jal	0 <func_8094F2C0>
    1284:	02802025 	move	a0,s4
    1288:	3c070000 	lui	a3,0x0
    128c:	24e70000 	addiu	a3,a3,0
    1290:	02802025 	move	a0,s4
    1294:	02002825 	move	a1,s0
    1298:	0c000000 	jal	0 <func_8094F2C0>
    129c:	02603025 	move	a2,s3
    12a0:	3c0b0000 	lui	t3,0x0
    12a4:	816b0000 	lb	t3,0(t3)
    12a8:	02802825 	move	a1,s4
    12ac:	02602025 	move	a0,s3
    12b0:	2961000d 	slti	at,t3,13
    12b4:	10200005 	beqz	at,12cc <L80950538+0x54>
    12b8:	00000000 	nop
    12bc:	0c000000 	jal	0 <func_8094F2C0>
    12c0:	02602025 	move	a0,s3
    12c4:	10000041 	b	13cc <L809505C4+0xc8>
    12c8:	8fbf004c 	lw	ra,76(sp)
    12cc:	0c000000 	jal	0 <func_8094F2C0>
    12d0:	02802825 	move	a1,s4
    12d4:	1000003d 	b	13cc <L809505C4+0xc8>
    12d8:	8fbf004c 	lw	ra,76(sp)

000012dc <L8095059C>:
    12dc:	02602025 	move	a0,s3
    12e0:	0c000000 	jal	0 <func_8094F2C0>
    12e4:	02802825 	move	a1,s4
    12e8:	10000038 	b	13cc <L809505C4+0xc8>
    12ec:	8fbf004c 	lw	ra,76(sp)

000012f0 <L809505B0>:
    12f0:	02602025 	move	a0,s3
    12f4:	0c000000 	jal	0 <func_8094F2C0>
    12f8:	02802825 	move	a1,s4
    12fc:	10000033 	b	13cc <L809505C4+0xc8>
    1300:	8fbf004c 	lw	ra,76(sp)

00001304 <L809505C4>:
    1304:	267002d8 	addiu	s0,s3,728
    1308:	02002825 	move	a1,s0
    130c:	0c000000 	jal	0 <func_8094F2C0>
    1310:	02802025 	move	a0,s4
    1314:	3c070000 	lui	a3,0x0
    1318:	266c02f8 	addiu	t4,s3,760
    131c:	afac0010 	sw	t4,16(sp)
    1320:	24e70000 	addiu	a3,a3,0
    1324:	02802025 	move	a0,s4
    1328:	02002825 	move	a1,s0
    132c:	0c000000 	jal	0 <func_8094F2C0>
    1330:	02603025 	move	a2,s3
    1334:	26700338 	addiu	s0,s3,824
    1338:	02002825 	move	a1,s0
    133c:	0c000000 	jal	0 <func_8094F2C0>
    1340:	02802025 	move	a0,s4
    1344:	3c070000 	lui	a3,0x0
    1348:	24e70000 	addiu	a3,a3,0
    134c:	02802025 	move	a0,s4
    1350:	02002825 	move	a1,s0
    1354:	0c000000 	jal	0 <func_8094F2C0>
    1358:	02603025 	move	a2,s3
    135c:	3c013f80 	lui	at,0x3f80
    1360:	44810000 	mtc1	at,$f0
    1364:	3c0d0000 	lui	t5,0x0
    1368:	02602025 	move	a0,s3
    136c:	e66001d8 	swc1	$f0,472(s3)
    1370:	e66001dc 	swc1	$f0,476(s3)
    1374:	81ad0000 	lb	t5,0(t5)
    1378:	3c0e0000 	lui	t6,0x0
    137c:	29a1000d 	slti	at,t5,13
    1380:	10200005 	beqz	at,1398 <L809505C4+0x94>
    1384:	00000000 	nop
    1388:	0c000000 	jal	0 <func_8094F2C0>
    138c:	02802825 	move	a1,s4
    1390:	1000000e 	b	13cc <L809505C4+0xc8>
    1394:	8fbf004c 	lw	ra,76(sp)
    1398:	91ce0000 	lbu	t6,0(t6)
    139c:	02802825 	move	a1,s4
    13a0:	02602025 	move	a0,s3
    13a4:	29c10009 	slti	at,t6,9
    13a8:	14200005 	bnez	at,13c0 <L809505C4+0xbc>
    13ac:	00000000 	nop
    13b0:	0c000000 	jal	0 <func_8094F2C0>
    13b4:	02602025 	move	a0,s3
    13b8:	10000004 	b	13cc <L809505C4+0xc8>
    13bc:	8fbf004c 	lw	ra,76(sp)
    13c0:	0c000000 	jal	0 <func_8094F2C0>
    13c4:	02802825 	move	a1,s4
    13c8:	8fbf004c 	lw	ra,76(sp)
    13cc:	8fb00038 	lw	s0,56(sp)
    13d0:	8fb1003c 	lw	s1,60(sp)
    13d4:	8fb20040 	lw	s2,64(sp)
    13d8:	8fb30044 	lw	s3,68(sp)
    13dc:	8fb40048 	lw	s4,72(sp)
    13e0:	03e00008 	jr	ra
    13e4:	27bd0078 	addiu	sp,sp,120

000013e8 <BossVa_Destroy>:
    13e8:	27bdffe8 	addiu	sp,sp,-24
    13ec:	afbf0014 	sw	ra,20(sp)
    13f0:	afa40018 	sw	a0,24(sp)
    13f4:	afa5001c 	sw	a1,28(sp)
    13f8:	0c000000 	jal	0 <func_8094F2C0>
    13fc:	2484014c 	addiu	a0,a0,332
    1400:	8fa50018 	lw	a1,24(sp)
    1404:	8fa4001c 	lw	a0,28(sp)
    1408:	0c000000 	jal	0 <func_8094F2C0>
    140c:	24a502d8 	addiu	a1,a1,728
    1410:	8fa50018 	lw	a1,24(sp)
    1414:	8fa4001c 	lw	a0,28(sp)
    1418:	0c000000 	jal	0 <func_8094F2C0>
    141c:	24a5028c 	addiu	a1,a1,652
    1420:	8fbf0014 	lw	ra,20(sp)
    1424:	27bd0018 	addiu	sp,sp,24
    1428:	03e00008 	jr	ra
    142c:	00000000 	nop

00001430 <func_809506F0>:
    1430:	27bdffd0 	addiu	sp,sp,-48
    1434:	afb00028 	sw	s0,40(sp)
    1438:	00808025 	move	s0,a0
    143c:	afbf002c 	sw	ra,44(sp)
    1440:	3c040600 	lui	a0,0x600
    1444:	0c000000 	jal	0 <func_8094F2C0>
    1448:	24845184 	addiu	a0,a0,20868
    144c:	44822000 	mtc1	v0,$f4
    1450:	44803000 	mtc1	zero,$f6
    1454:	3c050600 	lui	a1,0x600
    1458:	46802020 	cvt.s.w	$f0,$f4
    145c:	240e0002 	li	t6,2
    1460:	afae0014 	sw	t6,20(sp)
    1464:	24a55184 	addiu	a1,a1,20868
    1468:	2604014c 	addiu	a0,s0,332
    146c:	3c063f80 	lui	a2,0x3f80
    1470:	44070000 	mfc1	a3,$f0
    1474:	e7a00010 	swc1	$f0,16(sp)
    1478:	0c000000 	jal	0 <func_8094F2C0>
    147c:	e7a60018 	swc1	$f6,24(sp)
    1480:	8e0f0004 	lw	t7,4(s0)
    1484:	3c01c3e1 	lui	at,0xc3e1
    1488:	44814000 	mtc1	at,$f8
    148c:	2401fffe 	li	at,-2
    1490:	3c050000 	lui	a1,0x0
    1494:	01e1c024 	and	t8,t7,at
    1498:	ae180004 	sw	t8,4(s0)
    149c:	24a50000 	addiu	a1,a1,0
    14a0:	02002025 	move	a0,s0
    14a4:	0c000000 	jal	0 <func_8094F2C0>
    14a8:	e60800bc 	swc1	$f8,188(s0)
    14ac:	8fbf002c 	lw	ra,44(sp)
    14b0:	8fb00028 	lw	s0,40(sp)
    14b4:	27bd0030 	addiu	sp,sp,48
    14b8:	03e00008 	jr	ra
    14bc:	00000000 	nop

000014c0 <func_80950780>:
    14c0:	27bdff90 	addiu	sp,sp,-112
    14c4:	afbf0044 	sw	ra,68(sp)
    14c8:	afb30040 	sw	s3,64(sp)
    14cc:	afb2003c 	sw	s2,60(sp)
    14d0:	afb10038 	sw	s1,56(sp)
    14d4:	afb00034 	sw	s0,52(sp)
    14d8:	8cae1c44 	lw	t6,7236(a1)
    14dc:	00808825 	move	s1,a0
    14e0:	00a09025 	move	s2,a1
    14e4:	afae0068 	sw	t6,104(sp)
    14e8:	848f01ac 	lh	t7,428(a0)
    14ec:	25f80c31 	addiu	t8,t7,3121
    14f0:	a49801ac 	sh	t8,428(a0)
    14f4:	0c000000 	jal	0 <func_8094F2C0>
    14f8:	848401ac 	lh	a0,428(a0)
    14fc:	3c010000 	lui	at,0x0
    1500:	c4240000 	lwc1	$f4,0(at)
    1504:	3c013f80 	lui	at,0x3f80
    1508:	44814000 	mtc1	at,$f8
    150c:	46040182 	mul.s	$f6,$f0,$f4
    1510:	8fb00068 	lw	s0,104(sp)
    1514:	862401ac 	lh	a0,428(s1)
    1518:	46083280 	add.s	$f10,$f6,$f8
    151c:	0c000000 	jal	0 <func_8094F2C0>
    1520:	e62a01a0 	swc1	$f10,416(s1)
    1524:	3c010000 	lui	at,0x0
    1528:	c4220000 	lwc1	$f2,0(at)
    152c:	3c013f80 	lui	at,0x3f80
    1530:	44819000 	mtc1	at,$f18
    1534:	46020402 	mul.s	$f16,$f0,$f2
    1538:	3c130000 	lui	s3,0x0
    153c:	26730000 	addiu	s3,s3,0
    1540:	46128100 	add.s	$f4,$f16,$f18
    1544:	e62401a4 	swc1	$f4,420(s1)
    1548:	82630000 	lb	v1,0(s3)
    154c:	24790005 	addiu	t9,v1,5
    1550:	2f210013 	sltiu	at,t9,19
    1554:	10200358 	beqz	at,22b8 <L80951578>
    1558:	0019c880 	sll	t9,t9,0x2
    155c:	3c010000 	lui	at,0x0
    1560:	00390821 	addu	at,at,t9
    1564:	8c390000 	lw	t9,0(at)
    1568:	03200008 	jr	t9
    156c:	00000000 	nop

00001570 <L80950830>:
    1570:	8e2b0198 	lw	t3,408(s1)
    1574:	240efffe 	li	t6,-2
    1578:	240f000a 	li	t7,10
    157c:	256cffff 	addiu	t4,t3,-1
    1580:	15800003 	bnez	t4,1590 <L80950830+0x20>
    1584:	ae2c0198 	sw	t4,408(s1)
    1588:	a26e0000 	sb	t6,0(s3)
    158c:	ae2f0198 	sw	t7,408(s1)
    1590:	10000349 	b	22b8 <L80951578>
    1594:	82630000 	lb	v1,0(s3)

00001598 <L80950858>:
    1598:	3c010001 	lui	at,0x1
    159c:	02411021 	addu	v0,s2,at
    15a0:	240300dc 	li	v1,220
    15a4:	241800be 	li	t8,190
    15a8:	241900d2 	li	t9,210
    15ac:	a0430b06 	sb	v1,2822(v0)
    15b0:	a0430b07 	sb	v1,2823(v0)
    15b4:	a0580b08 	sb	t8,2824(v0)
    15b8:	a0590b09 	sb	t9,2825(v0)
    15bc:	02402025 	move	a0,s2
    15c0:	02202825 	move	a1,s1
    15c4:	0c000000 	jal	0 <func_8094F2C0>
    15c8:	24060008 	li	a2,8
    15cc:	240b7fff 	li	t3,32767
    15d0:	a60b00b6 	sh	t3,182(s0)
    15d4:	860c00b6 	lh	t4,182(s0)
    15d8:	a60c0032 	sh	t4,50(s0)
    15dc:	826d0000 	lb	t5,0(s3)
    15e0:	25ae0001 	addiu	t6,t5,1
    15e4:	a26e0000 	sb	t6,0(s3)
    15e8:	10000333 	b	22b8 <L80951578>
    15ec:	82630000 	lb	v1,0(s3)

000015f0 <L809508B0>:
    15f0:	02402025 	move	a0,s2
    15f4:	0c000000 	jal	0 <func_8094F2C0>
    15f8:	26451d64 	addiu	a1,s2,7524
    15fc:	3c0f0000 	lui	t7,0x0
    1600:	85ef0000 	lh	t7,0(t7)
    1604:	55e00006 	bnezl	t7,1620 <L809508B0+0x30>
    1608:	02402025 	move	a0,s2
    160c:	0c000000 	jal	0 <func_8094F2C0>
    1610:	02402025 	move	a0,s2
    1614:	3c010000 	lui	at,0x0
    1618:	a4220000 	sh	v0,0(at)
    161c:	02402025 	move	a0,s2
    1620:	00002825 	move	a1,zero
    1624:	0c000000 	jal	0 <func_8094F2C0>
    1628:	24060001 	li	a2,1
    162c:	3c050000 	lui	a1,0x0
    1630:	84a50000 	lh	a1,0(a1)
    1634:	02402025 	move	a0,s2
    1638:	0c000000 	jal	0 <func_8094F2C0>
    163c:	24060007 	li	a2,7
    1640:	3c014150 	lui	at,0x4150
    1644:	44813000 	mtc1	at,$f6
    1648:	3c010000 	lui	at,0x0
    164c:	3c180000 	lui	t8,0x0
    1650:	e4260000 	swc1	$f6,0(at)
    1654:	3c010000 	lui	at,0x0
    1658:	e4260000 	swc1	$f6,0(at)
    165c:	3c0142f8 	lui	at,0x42f8
    1660:	44814000 	mtc1	at,$f8
    1664:	3c010000 	lui	at,0x0
    1668:	27180000 	addiu	t8,t8,0
    166c:	e4280000 	swc1	$f8,0(at)
    1670:	3c010000 	lui	at,0x0
    1674:	e4280000 	swc1	$f8,0(at)
    1678:	3c014327 	lui	at,0x4327
    167c:	44815000 	mtc1	at,$f10
    1680:	3c010000 	lui	at,0x0
    1684:	27a5005c 	addiu	a1,sp,92
    1688:	e42a0000 	swc1	$f10,0(at)
    168c:	3c010000 	lui	at,0x0
    1690:	e42a0000 	swc1	$f10,0(at)
    1694:	c6100024 	lwc1	$f16,36(s0)
    1698:	3c010000 	lui	at,0x0
    169c:	3c0c0000 	lui	t4,0x0
    16a0:	e4300000 	swc1	$f16,0(at)
    16a4:	c4320000 	lwc1	$f18,0(at)
    16a8:	3c010000 	lui	at,0x0
    16ac:	258c0000 	addiu	t4,t4,0
    16b0:	e4320000 	swc1	$f18,0(at)
    16b4:	c6040028 	lwc1	$f4,40(s0)
    16b8:	3c010000 	lui	at,0x0
    16bc:	3c0f0000 	lui	t7,0x0
    16c0:	e4240000 	swc1	$f4,0(at)
    16c4:	c4260000 	lwc1	$f6,0(at)
    16c8:	3c010000 	lui	at,0x0
    16cc:	25ef0000 	addiu	t7,t7,0
    16d0:	e4260000 	swc1	$f6,0(at)
    16d4:	c608002c 	lwc1	$f8,44(s0)
    16d8:	3c010000 	lui	at,0x0
    16dc:	e4280000 	swc1	$f8,0(at)
    16e0:	c42a0000 	lwc1	$f10,0(at)
    16e4:	3c010000 	lui	at,0x0
    16e8:	e42a0000 	swc1	$f10,0(at)
    16ec:	8f0b0000 	lw	t3,0(t8)
    16f0:	acab0000 	sw	t3,0(a1)
    16f4:	8f190004 	lw	t9,4(t8)
    16f8:	8cae0000 	lw	t6,0(a1)
    16fc:	acb90004 	sw	t9,4(a1)
    1700:	8f0b0008 	lw	t3,8(t8)
    1704:	acab0008 	sw	t3,8(a1)
    1708:	ad8e0000 	sw	t6,0(t4)
    170c:	8cad0004 	lw	t5,4(a1)
    1710:	240b000a 	li	t3,10
    1714:	ad8d0004 	sw	t5,4(t4)
    1718:	8cae0008 	lw	t6,8(a1)
    171c:	ad8e0008 	sw	t6,8(t4)
    1720:	8cb90000 	lw	t9,0(a1)
    1724:	adf90000 	sw	t9,0(t7)
    1728:	8cb80004 	lw	t8,4(a1)
    172c:	adf80004 	sw	t8,4(t7)
    1730:	8cb90008 	lw	t9,8(a1)
    1734:	adf90008 	sw	t9,8(t7)
    1738:	ae2b0198 	sw	t3,408(s1)
    173c:	826c0000 	lb	t4,0(s3)
    1740:	258d0001 	addiu	t5,t4,1
    1744:	a26d0000 	sb	t5,0(s3)
    1748:	100002db 	b	22b8 <L80951578>
    174c:	82630000 	lb	v1,0(s3)

00001750 <L80950A10>:
    1750:	8e2e0198 	lw	t6,408(s1)
    1754:	02402025 	move	a0,s2
    1758:	02202825 	move	a1,s1
    175c:	25cfffff 	addiu	t7,t6,-1
    1760:	15e00008 	bnez	t7,1784 <L80950A10+0x34>
    1764:	ae2f0198 	sw	t7,408(s1)
    1768:	0c000000 	jal	0 <func_8094F2C0>
    176c:	24060002 	li	a2,2
    1770:	82790000 	lb	t9,0(s3)
    1774:	240c001e 	li	t4,30
    1778:	272b0001 	addiu	t3,t9,1
    177c:	a26b0000 	sb	t3,0(s3)
    1780:	ae2c0198 	sw	t4,408(s1)
    1784:	100002cc 	b	22b8 <L80951578>
    1788:	82630000 	lb	v1,0(s3)

0000178c <L80950A4C>:
    178c:	8e2d0198 	lw	t5,408(s1)
    1790:	25aeffff 	addiu	t6,t5,-1
    1794:	15c00004 	bnez	t6,17a8 <L80950A4C+0x1c>
    1798:	ae2e0198 	sw	t6,408(s1)
    179c:	82780000 	lb	t8,0(s3)
    17a0:	27190001 	addiu	t9,t8,1
    17a4:	a2790000 	sb	t9,0(s3)
    17a8:	0c000000 	jal	0 <func_8094F2C0>
    17ac:	00000000 	nop
    17b0:	3c010000 	lui	at,0x0
    17b4:	c4300000 	lwc1	$f16,0(at)
    17b8:	02202025 	move	a0,s1
    17bc:	4610003c 	c.lt.s	$f0,$f16
    17c0:	00000000 	nop
    17c4:	45000003 	bc1f	17d4 <L80950A4C+0x48>
    17c8:	00000000 	nop
    17cc:	0c000000 	jal	0 <func_8094F2C0>
    17d0:	24053143 	li	a1,12611
    17d4:	100002b8 	b	22b8 <L80951578>
    17d8:	82630000 	lb	v1,0(s3)

000017dc <L80950A9C>:
    17dc:	02402025 	move	a0,s2
    17e0:	02202825 	move	a1,s1
    17e4:	0c000000 	jal	0 <func_8094F2C0>
    17e8:	24060001 	li	a2,1
    17ec:	826b0000 	lb	t3,0(s3)
    17f0:	256c0001 	addiu	t4,t3,1
    17f4:	a26c0000 	sb	t4,0(s3)
    17f8:	100002af 	b	22b8 <L80951578>
    17fc:	82630000 	lb	v1,0(s3)

00001800 <L80950AC0>:
    1800:	02402025 	move	a0,s2
    1804:	0c000000 	jal	0 <func_8094F2C0>
    1808:	26451d64 	addiu	a1,s2,7524
    180c:	3c0d0000 	lui	t5,0x0
    1810:	85ad0000 	lh	t5,0(t5)
    1814:	55a00006 	bnezl	t5,1830 <L80950AC0+0x30>
    1818:	02402025 	move	a0,s2
    181c:	0c000000 	jal	0 <func_8094F2C0>
    1820:	02402025 	move	a0,s2
    1824:	3c010000 	lui	at,0x0
    1828:	a4220000 	sh	v0,0(at)
    182c:	02402025 	move	a0,s2
    1830:	00002825 	move	a1,zero
    1834:	0c000000 	jal	0 <func_8094F2C0>
    1838:	24060001 	li	a2,1
    183c:	3c050000 	lui	a1,0x0
    1840:	84a50000 	lh	a1,0(a1)
    1844:	02402025 	move	a0,s2
    1848:	0c000000 	jal	0 <func_8094F2C0>
    184c:	24060007 	li	a2,7
    1850:	3c014150 	lui	at,0x4150
    1854:	44819000 	mtc1	at,$f18
    1858:	3c090000 	lui	t1,0x0
    185c:	25290000 	addiu	t1,t1,0
    1860:	e5320000 	swc1	$f18,0(t1)
    1864:	c5240000 	lwc1	$f4,0(t1)
    1868:	3c010000 	lui	at,0x0
    186c:	8fa60068 	lw	a2,104(sp)
    1870:	e4240000 	swc1	$f4,0(at)
    1874:	3c0142f8 	lui	at,0x42f8
    1878:	44813000 	mtc1	at,$f6
    187c:	3c010000 	lui	at,0x0
    1880:	3c0a0000 	lui	t2,0x0
    1884:	e5260004 	swc1	$f6,4(t1)
    1888:	c5280004 	lwc1	$f8,4(t1)
    188c:	254a0000 	addiu	t2,t2,0
    1890:	3c0e0000 	lui	t6,0x0
    1894:	e4280000 	swc1	$f8,0(at)
    1898:	3c014327 	lui	at,0x4327
    189c:	44815000 	mtc1	at,$f10
    18a0:	3c010000 	lui	at,0x0
    18a4:	25ce0000 	addiu	t6,t6,0
    18a8:	e52a0008 	swc1	$f10,8(t1)
    18ac:	c5300008 	lwc1	$f16,8(t1)
    18b0:	27a5005c 	addiu	a1,sp,92
    18b4:	3c190000 	lui	t9,0x0
    18b8:	e4300000 	swc1	$f16,0(at)
    18bc:	c4d20024 	lwc1	$f18,36(a2)
    18c0:	3c010000 	lui	at,0x0
    18c4:	27390000 	addiu	t9,t9,0
    18c8:	e5520000 	swc1	$f18,0(t2)
    18cc:	c5440000 	lwc1	$f4,0(t2)
    18d0:	3c0d0000 	lui	t5,0x0
    18d4:	25ad0000 	addiu	t5,t5,0
    18d8:	e4240000 	swc1	$f4,0(at)
    18dc:	c4c60028 	lwc1	$f6,40(a2)
    18e0:	26441c24 	addiu	a0,s2,7204
    18e4:	3c030000 	lui	v1,0x0
    18e8:	e5460004 	swc1	$f6,4(t2)
    18ec:	c5480004 	lwc1	$f8,4(t2)
    18f0:	3c080000 	lui	t0,0x0
    18f4:	25080000 	addiu	t0,t0,0
    18f8:	e4280000 	swc1	$f8,0(at)
    18fc:	c4ca002c 	lwc1	$f10,44(a2)
    1900:	3c010000 	lui	at,0x0
    1904:	24630000 	addiu	v1,v1,0
    1908:	e54a0008 	swc1	$f10,8(t2)
    190c:	c5500008 	lwc1	$f16,8(t2)
    1910:	2410000f 	li	s0,15
    1914:	e4300000 	swc1	$f16,0(at)
    1918:	8dd80000 	lw	t8,0(t6)
    191c:	acb80000 	sw	t8,0(a1)
    1920:	8dcf0004 	lw	t7,4(t6)
    1924:	8cac0000 	lw	t4,0(a1)
    1928:	acaf0004 	sw	t7,4(a1)
    192c:	8dd80008 	lw	t8,8(t6)
    1930:	acb80008 	sw	t8,8(a1)
    1934:	af2c0000 	sw	t4,0(t9)
    1938:	8cab0004 	lw	t3,4(a1)
    193c:	af2b0004 	sw	t3,4(t9)
    1940:	8cac0008 	lw	t4,8(a1)
    1944:	af2c0008 	sw	t4,8(t9)
    1948:	8caf0000 	lw	t7,0(a1)
    194c:	adaf0000 	sw	t7,0(t5)
    1950:	8cae0004 	lw	t6,4(a1)
    1954:	adae0004 	sw	t6,4(t5)
    1958:	8caf0008 	lw	t7,8(a1)
    195c:	adaf0008 	sw	t7,8(t5)
    1960:	afa40054 	sw	a0,84(sp)
    1964:	c4720000 	lwc1	$f18,0(v1)
    1968:	c6240024 	lwc1	$f4,36(s1)
    196c:	c4680004 	lwc1	$f8,4(v1)
    1970:	85180000 	lh	t8,0(t0)
    1974:	46049180 	add.s	$f6,$f18,$f4
    1978:	c4720008 	lwc1	$f18,8(v1)
    197c:	850c0002 	lh	t4,2(t0)
    1980:	850f0004 	lh	t7,4(t0)
    1984:	e7a60010 	swc1	$f6,16(sp)
    1988:	c62a0028 	lwc1	$f10,40(s1)
    198c:	8fa40054 	lw	a0,84(sp)
    1990:	02202825 	move	a1,s1
    1994:	460a4400 	add.s	$f16,$f8,$f10
    1998:	02403025 	move	a2,s2
    199c:	240700ba 	li	a3,186
    19a0:	e7b00014 	swc1	$f16,20(sp)
    19a4:	c624002c 	lwc1	$f4,44(s1)
    19a8:	46049180 	add.s	$f6,$f18,$f4
    19ac:	e7a60018 	swc1	$f6,24(sp)
    19b0:	86390030 	lh	t9,48(s1)
    19b4:	03195821 	addu	t3,t8,t9
    19b8:	afab001c 	sw	t3,28(sp)
    19bc:	862d0032 	lh	t5,50(s1)
    19c0:	018d7021 	addu	t6,t4,t5
    19c4:	afae0020 	sw	t6,32(sp)
    19c8:	86380034 	lh	t8,52(s1)
    19cc:	afa8004c 	sw	t0,76(sp)
    19d0:	afa30050 	sw	v1,80(sp)
    19d4:	01f8c821 	addu	t9,t7,t8
    19d8:	afb90024 	sw	t9,36(sp)
    19dc:	0c000000 	jal	0 <func_8094F2C0>
    19e0:	afb00028 	sw	s0,40(sp)
    19e4:	8fa30050 	lw	v1,80(sp)
    19e8:	8fa8004c 	lw	t0,76(sp)
    19ec:	2610ffff 	addiu	s0,s0,-1
    19f0:	24010005 	li	at,5
    19f4:	2463fff4 	addiu	v1,v1,-12
    19f8:	1601ffda 	bne	s0,at,1964 <L80950AC0+0x164>
    19fc:	2508fffa 	addiu	t0,t0,-6
    1a00:	240b005a 	li	t3,90
    1a04:	ae2b0198 	sw	t3,408(s1)
    1a08:	826c0000 	lb	t4,0(s3)
    1a0c:	258d0001 	addiu	t5,t4,1
    1a10:	a26d0000 	sb	t5,0(s3)
    1a14:	10000228 	b	22b8 <L80951578>
    1a18:	82630000 	lb	v1,0(s3)

00001a1c <L80950CDC>:
    1a1c:	3c01c2b8 	lui	at,0xc2b8
    1a20:	44814000 	mtc1	at,$f8
    1a24:	3c0141b0 	lui	at,0x41b0
    1a28:	44815000 	mtc1	at,$f10
    1a2c:	3c0143b4 	lui	at,0x43b4
    1a30:	44818000 	mtc1	at,$f16
    1a34:	3c020000 	lui	v0,0x0
    1a38:	24420000 	addiu	v0,v0,0
    1a3c:	3c01427c 	lui	at,0x427c
    1a40:	44819000 	mtc1	at,$f18
    1a44:	3c010000 	lui	at,0x0
    1a48:	e4480000 	swc1	$f8,0(v0)
    1a4c:	e44a0004 	swc1	$f10,4(v0)
    1a50:	e4500008 	swc1	$f16,8(v0)
    1a54:	e4320000 	swc1	$f18,0(at)
    1a58:	3c0142d0 	lui	at,0x42d0
    1a5c:	44812000 	mtc1	at,$f4
    1a60:	3c010000 	lui	at,0x0
    1a64:	3c040000 	lui	a0,0x0
    1a68:	e4240000 	swc1	$f4,0(at)
    1a6c:	3c014378 	lui	at,0x4378
    1a70:	44813000 	mtc1	at,$f6
    1a74:	3c010000 	lui	at,0x0
    1a78:	3c063e99 	lui	a2,0x3e99
    1a7c:	3c073f33 	lui	a3,0x3f33
    1a80:	34e73333 	ori	a3,a3,0x3333
    1a84:	34c6999a 	ori	a2,a2,0x999a
    1a88:	24840000 	addiu	a0,a0,0
    1a8c:	3c0540e0 	lui	a1,0x40e0
    1a90:	e7a20010 	swc1	$f2,16(sp)
    1a94:	0c000000 	jal	0 <func_8094F2C0>
    1a98:	e4260000 	swc1	$f6,0(at)
    1a9c:	3c010000 	lui	at,0x0
    1aa0:	c4280000 	lwc1	$f8,0(at)
    1aa4:	3c010000 	lui	at,0x0
    1aa8:	3c0f0000 	lui	t7,0x0
    1aac:	e4280000 	swc1	$f8,0(at)
    1ab0:	3c010000 	lui	at,0x0
    1ab4:	25ef0000 	addiu	t7,t7,0
    1ab8:	e4280000 	swc1	$f8,0(at)
    1abc:	8df90000 	lw	t9,0(t7)
    1ac0:	3c0e0000 	lui	t6,0x0
    1ac4:	25ce0000 	addiu	t6,t6,0
    1ac8:	add90000 	sw	t9,0(t6)
    1acc:	8df90008 	lw	t9,8(t7)
    1ad0:	8df80004 	lw	t8,4(t7)
    1ad4:	add90008 	sw	t9,8(t6)
    1ad8:	add80004 	sw	t8,4(t6)
    1adc:	8e2b0198 	lw	t3,408(s1)
    1ae0:	256cffff 	addiu	t4,t3,-1
    1ae4:	15800006 	bnez	t4,1b00 <L80950CDC+0xe4>
    1ae8:	ae2c0198 	sw	t4,408(s1)
    1aec:	826e0000 	lb	t6,0(s3)
    1af0:	2418003c 	li	t8,60
    1af4:	25cf0001 	addiu	t7,t6,1
    1af8:	a26f0000 	sb	t7,0(s3)
    1afc:	ae380198 	sw	t8,408(s1)
    1b00:	100001ed 	b	22b8 <L80951578>
    1b04:	82630000 	lb	v1,0(s3)

00001b08 <L80950DC8>:
    1b08:	3c01430c 	lui	at,0x430c
    1b0c:	44815000 	mtc1	at,$f10
    1b10:	3c01434d 	lui	at,0x434d
    1b14:	44819000 	mtc1	at,$f18
    1b18:	3c020000 	lui	v0,0x0
    1b1c:	3c01c1a0 	lui	at,0xc1a0
    1b20:	44813000 	mtc1	at,$f6
    1b24:	24420000 	addiu	v0,v0,0
    1b28:	3c014120 	lui	at,0x4120
    1b2c:	e44a0000 	swc1	$f10,0(v0)
    1b30:	44815000 	mtc1	at,$f10
    1b34:	3c070000 	lui	a3,0x0
    1b38:	3c014377 	lui	at,0x4377
    1b3c:	e4520004 	swc1	$f18,4(v0)
    1b40:	44819000 	mtc1	at,$f18
    1b44:	24e70000 	addiu	a3,a3,0
    1b48:	e4460008 	swc1	$f6,8(v0)
    1b4c:	3c040000 	lui	a0,0x0
    1b50:	3c01c35c 	lui	at,0xc35c
    1b54:	c4500000 	lwc1	$f16,0(v0)
    1b58:	c4440004 	lwc1	$f4,4(v0)
    1b5c:	c4480008 	lwc1	$f8,8(v0)
    1b60:	44813000 	mtc1	at,$f6
    1b64:	24840000 	addiu	a0,a0,0
    1b68:	3c050000 	lui	a1,0x0
    1b6c:	e4ea0000 	swc1	$f10,0(a3)
    1b70:	e4f20004 	swc1	$f18,4(a3)
    1b74:	e4900000 	swc1	$f16,0(a0)
    1b78:	e4840004 	swc1	$f4,4(a0)
    1b7c:	e4880008 	swc1	$f8,8(a0)
    1b80:	e4e60008 	swc1	$f6,8(a3)
    1b84:	c4f00000 	lwc1	$f16,0(a3)
    1b88:	c4e40004 	lwc1	$f4,4(a3)
    1b8c:	c4e80008 	lwc1	$f8,8(a3)
    1b90:	24a50000 	addiu	a1,a1,0
    1b94:	24790001 	addiu	t9,v1,1
    1b98:	a2790000 	sb	t9,0(s3)
    1b9c:	240b0001 	li	t3,1
    1ba0:	e4b00000 	swc1	$f16,0(a1)
    1ba4:	e4a40004 	swc1	$f4,4(a1)
    1ba8:	e4a80008 	swc1	$f8,8(a1)
    1bac:	ae2b0198 	sw	t3,408(s1)
    1bb0:	100001c1 	b	22b8 <L80951578>
    1bb4:	82630000 	lb	v1,0(s3)

00001bb8 <L80950E78>:
    1bb8:	3c014120 	lui	at,0x4120
    1bbc:	44815000 	mtc1	at,$f10
    1bc0:	3c014377 	lui	at,0x4377
    1bc4:	44818000 	mtc1	at,$f16
    1bc8:	3c020000 	lui	v0,0x0
    1bcc:	3c01c35c 	lui	at,0xc35c
    1bd0:	44819000 	mtc1	at,$f18
    1bd4:	24420000 	addiu	v0,v0,0
    1bd8:	3c040000 	lui	a0,0x0
    1bdc:	3c063e99 	lui	a2,0x3e99
    1be0:	3c073f33 	lui	a3,0x3f33
    1be4:	34e73333 	ori	a3,a3,0x3333
    1be8:	34c6999a 	ori	a2,a2,0x999a
    1bec:	24840000 	addiu	a0,a0,0
    1bf0:	3c0540e0 	lui	a1,0x40e0
    1bf4:	e7a20010 	swc1	$f2,16(sp)
    1bf8:	e44a0000 	swc1	$f10,0(v0)
    1bfc:	e4500004 	swc1	$f16,4(v0)
    1c00:	0c000000 	jal	0 <func_8094F2C0>
    1c04:	e4520008 	swc1	$f18,8(v0)
    1c08:	3c020000 	lui	v0,0x0
    1c0c:	24420000 	addiu	v0,v0,0
    1c10:	c4440000 	lwc1	$f4,0(v0)
    1c14:	8c4e0000 	lw	t6,0(v0)
    1c18:	3c0c0000 	lui	t4,0x0
    1c1c:	e4440008 	swc1	$f4,8(v0)
    1c20:	c4460008 	lwc1	$f6,8(v0)
    1c24:	258c0000 	addiu	t4,t4,0
    1c28:	e4460004 	swc1	$f6,4(v0)
    1c2c:	ad8e0000 	sw	t6,0(t4)
    1c30:	8c4d0004 	lw	t5,4(v0)
    1c34:	ad8d0004 	sw	t5,4(t4)
    1c38:	8c4e0008 	lw	t6,8(v0)
    1c3c:	ad8e0008 	sw	t6,8(t4)
    1c40:	8e2f0198 	lw	t7,408(s1)
    1c44:	25f8ffff 	addiu	t8,t7,-1
    1c48:	17000006 	bnez	t8,1c64 <L80950E78+0xac>
    1c4c:	ae380198 	sw	t8,408(s1)
    1c50:	826b0000 	lb	t3,0(s3)
    1c54:	240d0028 	li	t5,40
    1c58:	256c0001 	addiu	t4,t3,1
    1c5c:	a26c0000 	sb	t4,0(s3)
    1c60:	ae2d0198 	sw	t5,408(s1)
    1c64:	10000194 	b	22b8 <L80951578>
    1c68:	82630000 	lb	v1,0(s3)

00001c6c <L80950F2C>:
    1c6c:	8e2e0198 	lw	t6,408(s1)
    1c70:	3c014120 	lui	at,0x4120
    1c74:	25cfffff 	addiu	t7,t6,-1
    1c78:	15e0002d 	bnez	t7,1d30 <L80950F2C+0xc4>
    1c7c:	ae2f0198 	sw	t7,408(s1)
    1c80:	44814000 	mtc1	at,$f8
    1c84:	3c010000 	lui	at,0x0
    1c88:	3c190000 	lui	t9,0x0
    1c8c:	e4280000 	swc1	$f8,0(at)
    1c90:	3c014248 	lui	at,0x4248
    1c94:	44815000 	mtc1	at,$f10
    1c98:	3c010000 	lui	at,0x0
    1c9c:	27390000 	addiu	t9,t9,0
    1ca0:	e42a0000 	swc1	$f10,0(at)
    1ca4:	3c01c35c 	lui	at,0xc35c
    1ca8:	44818000 	mtc1	at,$f16
    1cac:	3c010000 	lui	at,0x0
    1cb0:	27a5005c 	addiu	a1,sp,92
    1cb4:	e4300000 	swc1	$f16,0(at)
    1cb8:	8f2c0000 	lw	t4,0(t9)
    1cbc:	3c0d0000 	lui	t5,0x0
    1cc0:	25ad0000 	addiu	t5,t5,0
    1cc4:	acac0000 	sw	t4,0(a1)
    1cc8:	8f2b0004 	lw	t3,4(t9)
    1ccc:	8caf0000 	lw	t7,0(a1)
    1cd0:	3c180000 	lui	t8,0x0
    1cd4:	acab0004 	sw	t3,4(a1)
    1cd8:	8f2c0008 	lw	t4,8(t9)
    1cdc:	27180000 	addiu	t8,t8,0
    1ce0:	acac0008 	sw	t4,8(a1)
    1ce4:	adaf0000 	sw	t7,0(t5)
    1ce8:	8cae0004 	lw	t6,4(a1)
    1cec:	adae0004 	sw	t6,4(t5)
    1cf0:	8caf0008 	lw	t7,8(a1)
    1cf4:	adaf0008 	sw	t7,8(t5)
    1cf8:	8cab0000 	lw	t3,0(a1)
    1cfc:	af0b0000 	sw	t3,0(t8)
    1d00:	8cb90004 	lw	t9,4(a1)
    1d04:	af190004 	sw	t9,4(t8)
    1d08:	8cab0008 	lw	t3,8(a1)
    1d0c:	af0b0008 	sw	t3,8(t8)
    1d10:	826c0000 	lb	t4,0(s3)
    1d14:	24180014 	li	t8,20
    1d18:	258d0001 	addiu	t5,t4,1
    1d1c:	a26d0000 	sb	t5,0(s3)
    1d20:	826e0000 	lb	t6,0(s3)
    1d24:	25cf0001 	addiu	t7,t6,1
    1d28:	a26f0000 	sb	t7,0(s3)
    1d2c:	ae380198 	sw	t8,408(s1)
    1d30:	10000161 	b	22b8 <L80951578>
    1d34:	82630000 	lb	v1,0(s3)

00001d38 <L80950FF8>:
    1d38:	3c013e80 	lui	at,0x3e80
    1d3c:	44819000 	mtc1	at,$f18
    1d40:	3c040000 	lui	a0,0x0
    1d44:	3c063e99 	lui	a2,0x3e99
    1d48:	34c6999a 	ori	a2,a2,0x999a
    1d4c:	24840000 	addiu	a0,a0,0
    1d50:	3c054160 	lui	a1,0x4160
    1d54:	3c073f80 	lui	a3,0x3f80
    1d58:	0c000000 	jal	0 <func_8094F2C0>
    1d5c:	e7b20010 	swc1	$f18,16(sp)
    1d60:	3c080000 	lui	t0,0x0
    1d64:	25080000 	addiu	t0,t0,0
    1d68:	3c010000 	lui	at,0x0
    1d6c:	c4240000 	lwc1	$f4,0(at)
    1d70:	c5020000 	lwc1	$f2,0(t0)
    1d74:	8d0c0000 	lw	t4,0(t0)
    1d78:	3c190000 	lui	t9,0x0
    1d7c:	46041182 	mul.s	$f6,$f2,$f4
    1d80:	27390000 	addiu	t9,t9,0
    1d84:	e5020008 	swc1	$f2,8(t0)
    1d88:	3c010000 	lui	at,0x0
    1d8c:	e5060004 	swc1	$f6,4(t0)
    1d90:	af2c0000 	sw	t4,0(t9)
    1d94:	8d0b0004 	lw	t3,4(t0)
    1d98:	af2b0004 	sw	t3,4(t9)
    1d9c:	8d0c0008 	lw	t4,8(t0)
    1da0:	af2c0008 	sw	t4,8(t9)
    1da4:	c4280000 	lwc1	$f8,0(at)
    1da8:	3c013fe0 	lui	at,0x3fe0
    1dac:	44815000 	mtc1	at,$f10
    1db0:	3c010000 	lui	at,0x0
    1db4:	460a4402 	mul.s	$f16,$f8,$f10
    1db8:	e4300000 	swc1	$f16,0(at)
    1dbc:	8e2d0198 	lw	t5,408(s1)
    1dc0:	25aeffff 	addiu	t6,t5,-1
    1dc4:	15c00007 	bnez	t6,1de4 <L80950FF8+0xac>
    1dc8:	ae2e0198 	sw	t6,408(s1)
    1dcc:	82780000 	lb	t8,0(s3)
    1dd0:	240b1d4c 	li	t3,7500
    1dd4:	27190001 	addiu	t9,t8,1
    1dd8:	a2790000 	sb	t9,0(s3)
    1ddc:	ae2b0198 	sw	t3,408(s1)
    1de0:	a62001f2 	sh	zero,498(s1)
    1de4:	10000134 	b	22b8 <L80951578>
    1de8:	82630000 	lb	v1,0(s3)

00001dec <L809510AC>:
    1dec:	3c080000 	lui	t0,0x0
    1df0:	25080000 	addiu	t0,t0,0
    1df4:	2410000a 	li	s0,10
    1df8:	9103ffff 	lbu	v1,-1(t0)
    1dfc:	24010001 	li	at,1
    1e00:	5060002f 	beqzl	v1,1ec0 <L809510AC+0xd4>
    1e04:	2610ffff 	addiu	s0,s0,-1
    1e08:	14610010 	bne	v1,at,1e4c <L809510AC+0x60>
    1e0c:	00601025 	move	v0,v1
    1e10:	02202025 	move	a0,s1
    1e14:	24053941 	li	a1,14657
    1e18:	0c000000 	jal	0 <func_8094F2C0>
    1e1c:	afa80054 	sw	t0,84(sp)
    1e20:	0c000000 	jal	0 <func_8094F2C0>
    1e24:	02402025 	move	a0,s2
    1e28:	922c0194 	lbu	t4,404(s1)
    1e2c:	8fa80054 	lw	t0,84(sp)
    1e30:	240d0002 	li	t5,2
    1e34:	55800003 	bnezl	t4,1e44 <L809510AC+0x58>
    1e38:	9103ffff 	lbu	v1,-1(t0)
    1e3c:	a22d0194 	sb	t5,404(s1)
    1e40:	9103ffff 	lbu	v1,-1(t0)
    1e44:	10000019 	b	1eac <L809510AC+0xc0>
    1e48:	00601025 	move	v0,v1
    1e4c:	24010002 	li	at,2
    1e50:	14410016 	bne	v0,at,1eac <L809510AC+0xc0>
    1e54:	02402025 	move	a0,s2
    1e58:	44903000 	mtc1	s0,$f6
    1e5c:	3c014248 	lui	at,0x4248
    1e60:	44819000 	mtc1	at,$f18
    1e64:	46803220 	cvt.s.w	$f8,$f6
    1e68:	3c0141f0 	lui	at,0x41f0
    1e6c:	44812000 	mtc1	at,$f4
    1e70:	240e0002 	li	t6,2
    1e74:	240f0001 	li	t7,1
    1e78:	afaf0020 	sw	t7,32(sp)
    1e7c:	afae0018 	sw	t6,24(sp)
    1e80:	e7a8001c 	swc1	$f8,28(sp)
    1e84:	02202825 	move	a1,s1
    1e88:	24060006 	li	a2,6
    1e8c:	2407008c 	li	a3,140
    1e90:	afa80054 	sw	t0,84(sp)
    1e94:	e7b20010 	swc1	$f18,16(sp)
    1e98:	0c000000 	jal	0 <func_8094F2C0>
    1e9c:	e7a40014 	swc1	$f4,20(sp)
    1ea0:	8fa80054 	lw	t0,84(sp)
    1ea4:	9103ffff 	lbu	v1,-1(t0)
    1ea8:	00601025 	move	v0,v1
    1eac:	28410003 	slti	at,v0,3
    1eb0:	10200002 	beqz	at,1ebc <L809510AC+0xd0>
    1eb4:	24780001 	addiu	t8,v1,1
    1eb8:	a118ffff 	sb	t8,-1(t0)
    1ebc:	2610ffff 	addiu	s0,s0,-1
    1ec0:	1600ffcd 	bnez	s0,1df8 <L809510AC+0xc>
    1ec4:	2508ffff 	addiu	t0,t0,-1
    1ec8:	262401f2 	addiu	a0,s1,498
    1ecc:	24050280 	li	a1,640
    1ed0:	24060001 	li	a2,1
    1ed4:	24070032 	li	a3,50
    1ed8:	0c000000 	jal	0 <func_8094F2C0>
    1edc:	afa00010 	sw	zero,16(sp)
    1ee0:	3c013e80 	lui	at,0x3e80
    1ee4:	44815000 	mtc1	at,$f10
    1ee8:	3c040000 	lui	a0,0x0
    1eec:	3c063e99 	lui	a2,0x3e99
    1ef0:	34c6999a 	ori	a2,a2,0x999a
    1ef4:	24840000 	addiu	a0,a0,0
    1ef8:	3c054160 	lui	a1,0x4160
    1efc:	3c073f80 	lui	a3,0x3f80
    1f00:	0c000000 	jal	0 <func_8094F2C0>
    1f04:	e7aa0010 	swc1	$f10,16(sp)
    1f08:	3c080000 	lui	t0,0x0
    1f0c:	25080000 	addiu	t0,t0,0
    1f10:	c5100000 	lwc1	$f16,0(t0)
    1f14:	8d0c0000 	lw	t4,0(t0)
    1f18:	3c190000 	lui	t9,0x0
    1f1c:	27390000 	addiu	t9,t9,0
    1f20:	e5100008 	swc1	$f16,8(t0)
    1f24:	af2c0000 	sw	t4,0(t9)
    1f28:	8d0b0004 	lw	t3,4(t0)
    1f2c:	3401afc8 	li	at,0xafc8
    1f30:	240d0001 	li	t5,1
    1f34:	af2b0004 	sw	t3,4(t9)
    1f38:	8d0c0008 	lw	t4,8(t0)
    1f3c:	02402025 	move	a0,s2
    1f40:	02202825 	move	a1,s1
    1f44:	af2c0008 	sw	t4,8(t9)
    1f48:	8e230198 	lw	v1,408(s1)
    1f4c:	24060008 	li	a2,8
    1f50:	0061082a 	slt	at,v1,at
    1f54:	14200008 	bnez	at,1f78 <L809510AC+0x18c>
    1f58:	3c010001 	lui	at,0x1
    1f5c:	00320821 	addu	at,at,s2
    1f60:	0c000000 	jal	0 <func_8094F2C0>
    1f64:	a02d0ae3 	sb	t5,2787(at)
    1f68:	3c080000 	lui	t0,0x0
    1f6c:	25080000 	addiu	t0,t0,0
    1f70:	1000000a 	b	1f9c <L809510AC+0x1b0>
    1f74:	8e230198 	lw	v1,408(s1)
    1f78:	340188b8 	li	at,0x88b8
    1f7c:	0061082a 	slt	at,v1,at
    1f80:	54200007 	bnezl	at,1fa0 <L809510AC+0x1b4>
    1f84:	862e01f2 	lh	t6,498(s1)
    1f88:	0c000000 	jal	0 <func_8094F2C0>
    1f8c:	2404001b 	li	a0,27
    1f90:	3c080000 	lui	t0,0x0
    1f94:	25080000 	addiu	t0,t0,0
    1f98:	8e230198 	lw	v1,408(s1)
    1f9c:	862e01f2 	lh	t6,498(s1)
    1fa0:	3c010001 	lui	at,0x1
    1fa4:	3c050000 	lui	a1,0x0
    1fa8:	006e7821 	addu	t7,v1,t6
    1fac:	01e1082a 	slt	at,t7,at
    1fb0:	14200045 	bnez	at,20c8 <L809510AC+0x2dc>
    1fb4:	ae2f0198 	sw	t7,408(s1)
    1fb8:	3c010000 	lui	at,0x0
    1fbc:	c4320000 	lwc1	$f18,0(at)
    1fc0:	3c010000 	lui	at,0x0
    1fc4:	44803000 	mtc1	zero,$f6
    1fc8:	e4320000 	swc1	$f18,0(at)
    1fcc:	82790000 	lb	t9,0(s3)
    1fd0:	3c014120 	lui	at,0x4120
    1fd4:	44812000 	mtc1	at,$f4
    1fd8:	272b0001 	addiu	t3,t9,1
    1fdc:	a26b0000 	sb	t3,0(s3)
    1fe0:	3c010000 	lui	at,0x0
    1fe4:	e5120004 	swc1	$f18,4(t0)
    1fe8:	e4240000 	swc1	$f4,0(at)
    1fec:	3c010000 	lui	at,0x0
    1ff0:	e4260000 	swc1	$f6,0(at)
    1ff4:	3c014120 	lui	at,0x4120
    1ff8:	44814000 	mtc1	at,$f8
    1ffc:	24a50000 	addiu	a1,a1,0
    2000:	3c01430c 	lui	at,0x430c
    2004:	44815000 	mtc1	at,$f10
    2008:	94ac0ee2 	lhu	t4,3810(a1)
    200c:	3c030000 	lui	v1,0x0
    2010:	3c01c348 	lui	at,0xc348
    2014:	44818000 	mtc1	at,$f16
    2018:	24630000 	addiu	v1,v1,0
    201c:	318d0040 	andi	t5,t4,0x40
    2020:	e4680000 	swc1	$f8,0(v1)
    2024:	e46a0004 	swc1	$f10,4(v1)
    2028:	15a00019 	bnez	t5,2090 <L809510AC+0x2a4>
    202c:	e4700008 	swc1	$f16,8(v1)
    2030:	3c020600 	lui	v0,0x600
    2034:	24421230 	addiu	v0,v0,4656
    2038:	00027100 	sll	t6,v0,0x4
    203c:	000e7f02 	srl	t7,t6,0x1c
    2040:	000fc080 	sll	t8,t7,0x2
    2044:	3c190000 	lui	t9,0x0
    2048:	0338c821 	addu	t9,t9,t8
    204c:	3c0100ff 	lui	at,0xff
    2050:	8f390000 	lw	t9,0(t9)
    2054:	3421ffff 	ori	at,at,0xffff
    2058:	00415824 	and	t3,v0,at
    205c:	3c018000 	lui	at,0x8000
    2060:	240e0028 	li	t6,40
    2064:	240c00b4 	li	t4,180
    2068:	240d0080 	li	t5,128
    206c:	032b3021 	addu	a2,t9,t3
    2070:	00c13021 	addu	a2,a2,at
    2074:	afad0014 	sw	t5,20(sp)
    2078:	afac0010 	sw	t4,16(sp)
    207c:	afae0018 	sw	t6,24(sp)
    2080:	02402025 	move	a0,s2
    2084:	26451d4c 	addiu	a1,s2,7500
    2088:	0c000000 	jal	0 <func_8094F2C0>
    208c:	240700a0 	li	a3,160
    2090:	0c000000 	jal	0 <func_8094F2C0>
    2094:	00000000 	nop
    2098:	3c010000 	lui	at,0x0
    209c:	c4320000 	lwc1	$f18,0(at)
    20a0:	02202025 	move	a0,s1
    20a4:	4612003c 	c.lt.s	$f0,$f18
    20a8:	00000000 	nop
    20ac:	45020004 	bc1fl	20c0 <L809510AC+0x2d4>
    20b0:	240f0028 	li	t7,40
    20b4:	0c000000 	jal	0 <func_8094F2C0>
    20b8:	24053143 	li	a1,12611
    20bc:	240f0028 	li	t7,40
    20c0:	10000019 	b	2128 <L809510AC+0x33c>
    20c4:	ae2f0198 	sw	t7,408(s1)
    20c8:	3c010000 	lui	at,0x0
    20cc:	c4240000 	lwc1	$f4,0(at)
    20d0:	3c0140a0 	lui	at,0x40a0
    20d4:	44813000 	mtc1	at,$f6
    20d8:	3c010000 	lui	at,0x0
    20dc:	e5040004 	swc1	$f4,4(t0)
    20e0:	e4260000 	swc1	$f6,0(at)
    20e4:	0c000000 	jal	0 <func_8094F2C0>
    20e8:	8624019a 	lh	a0,410(s1)
    20ec:	3c014348 	lui	at,0x4348
    20f0:	44814000 	mtc1	at,$f8
    20f4:	3c010000 	lui	at,0x0
    20f8:	46080282 	mul.s	$f10,$f0,$f8
    20fc:	e42a0000 	swc1	$f10,0(at)
    2100:	0c000000 	jal	0 <func_8094F2C0>
    2104:	8624019a 	lh	a0,410(s1)
    2108:	3c014348 	lui	at,0x4348
    210c:	44818000 	mtc1	at,$f16
    2110:	3c01c348 	lui	at,0xc348
    2114:	44812000 	mtc1	at,$f4
    2118:	46100482 	mul.s	$f18,$f0,$f16
    211c:	3c010000 	lui	at,0x0
    2120:	46049180 	add.s	$f6,$f18,$f4
    2124:	e4260000 	swc1	$f6,0(at)
    2128:	10000063 	b	22b8 <L80951578>
    212c:	82630000 	lb	v1,0(s3)

00002130 <L809513F0>:
    2130:	3c014248 	lui	at,0x4248
    2134:	44814000 	mtc1	at,$f8
    2138:	3c0141f0 	lui	at,0x41f0
    213c:	44815000 	mtc1	at,$f10
    2140:	3c014120 	lui	at,0x4120
    2144:	44818000 	mtc1	at,$f16
    2148:	24180002 	li	t8,2
    214c:	afb80018 	sw	t8,24(sp)
    2150:	02402025 	move	a0,s2
    2154:	02202825 	move	a1,s1
    2158:	24060003 	li	a2,3
    215c:	2407008c 	li	a3,140
    2160:	afa00020 	sw	zero,32(sp)
    2164:	e7a80010 	swc1	$f8,16(sp)
    2168:	e7aa0014 	swc1	$f10,20(sp)
    216c:	0c000000 	jal	0 <func_8094F2C0>
    2170:	e7b0001c 	swc1	$f16,28(sp)
    2174:	8e390198 	lw	t9,408(s1)
    2178:	272bffff 	addiu	t3,t9,-1
    217c:	15600006 	bnez	t3,2198 <L809513F0+0x68>
    2180:	ae2b0198 	sw	t3,408(s1)
    2184:	826d0000 	lb	t5,0(s3)
    2188:	240f002d 	li	t7,45
    218c:	25ae0001 	addiu	t6,t5,1
    2190:	a26e0000 	sb	t6,0(s3)
    2194:	ae2f0198 	sw	t7,408(s1)
    2198:	10000047 	b	22b8 <L80951578>
    219c:	82630000 	lb	v1,0(s3)

000021a0 <L80951460>:
    21a0:	3c014248 	lui	at,0x4248
    21a4:	44819000 	mtc1	at,$f18
    21a8:	3c0141f0 	lui	at,0x41f0
    21ac:	44812000 	mtc1	at,$f4
    21b0:	3c014120 	lui	at,0x4120
    21b4:	44813000 	mtc1	at,$f6
    21b8:	24180002 	li	t8,2
    21bc:	afb80018 	sw	t8,24(sp)
    21c0:	02402025 	move	a0,s2
    21c4:	02202825 	move	a1,s1
    21c8:	24060003 	li	a2,3
    21cc:	2407008c 	li	a3,140
    21d0:	afa00020 	sw	zero,32(sp)
    21d4:	e7b20010 	swc1	$f18,16(sp)
    21d8:	e7a40014 	swc1	$f4,20(sp)
    21dc:	0c000000 	jal	0 <func_8094F2C0>
    21e0:	e7a6001c 	swc1	$f6,28(sp)
    21e4:	8e390198 	lw	t9,408(s1)
    21e8:	272bffff 	addiu	t3,t9,-1
    21ec:	15600006 	bnez	t3,2208 <L80951460+0x68>
    21f0:	ae2b0198 	sw	t3,408(s1)
    21f4:	826d0000 	lb	t5,0(s3)
    21f8:	240f000b 	li	t7,11
    21fc:	25ae0001 	addiu	t6,t5,1
    2200:	a26e0000 	sb	t6,0(s3)
    2204:	ae2f0198 	sw	t7,408(s1)
    2208:	1000002b 	b	22b8 <L80951578>
    220c:	82630000 	lb	v1,0(s3)

00002210 <L809514D0>:
    2210:	8e380198 	lw	t8,408(s1)
    2214:	02402025 	move	a0,s2
    2218:	3c050000 	lui	a1,0x0
    221c:	2719ffff 	addiu	t9,t8,-1
    2220:	17200020 	bnez	t9,22a4 <L809514D0+0x94>
    2224:	ae390198 	sw	t9,408(s1)
    2228:	0c000000 	jal	0 <func_8094F2C0>
    222c:	84a50000 	lh	a1,0(a1)
    2230:	3c010000 	lui	at,0x0
    2234:	a4200000 	sh	zero,0(at)
    2238:	02402025 	move	a0,s2
    223c:	0c000000 	jal	0 <func_8094F2C0>
    2240:	26451d64 	addiu	a1,s2,7524
    2244:	02402025 	move	a0,s2
    2248:	00002825 	move	a1,zero
    224c:	0c000000 	jal	0 <func_8094F2C0>
    2250:	24060007 	li	a2,7
    2254:	02402025 	move	a0,s2
    2258:	02202825 	move	a1,s1
    225c:	0c000000 	jal	0 <func_8094F2C0>
    2260:	24060007 	li	a2,7
    2264:	3c050000 	lui	a1,0x0
    2268:	24a50000 	addiu	a1,a1,0
    226c:	826c0000 	lb	t4,0(s3)
    2270:	94ae0ee2 	lhu	t6,3810(a1)
    2274:	34018000 	li	at,0x8000
    2278:	258d0001 	addiu	t5,t4,1
    227c:	35cf0040 	ori	t7,t6,0x40
    2280:	a26d0000 	sb	t5,0(s3)
    2284:	a4af0ee2 	sh	t7,3810(a1)
    2288:	8623008a 	lh	v1,138(s1)
    228c:	8fa40068 	lw	a0,104(sp)
    2290:	00611821 	addu	v1,v1,at
    2294:	00031c00 	sll	v1,v1,0x10
    2298:	00031c03 	sra	v1,v1,0x10
    229c:	a4830032 	sh	v1,50(a0)
    22a0:	a48300b6 	sh	v1,182(a0)
    22a4:	10000004 	b	22b8 <L80951578>
    22a8:	82630000 	lb	v1,0(s3)

000022ac <L8095156C>:
    22ac:	0c000000 	jal	0 <func_8094F2C0>
    22b0:	02202025 	move	a0,s1
    22b4:	82630000 	lb	v1,0(s3)

000022b8 <L80951578>:
    22b8:	28610005 	slti	at,v1,5
    22bc:	1420001d 	bnez	at,2334 <L80951578+0x7c>
    22c0:	262400e4 	addiu	a0,s1,228
    22c4:	2405313c 	li	a1,12604
    22c8:	0c000000 	jal	0 <func_8094F2C0>
    22cc:	3c063f80 	lui	a2,0x3f80
    22d0:	82780000 	lb	t8,0(s3)
    22d4:	3c190001 	lui	t9,0x1
    22d8:	0332c821 	addu	t9,t9,s2
    22dc:	2b010008 	slti	at,t8,8
    22e0:	54200015 	bnezl	at,2338 <L80951578+0x80>
    22e4:	862d01b0 	lh	t5,432(s1)
    22e8:	8f391de4 	lw	t9,7652(t9)
    22ec:	02402025 	move	a0,s2
    22f0:	02202825 	move	a1,s1
    22f4:	332b0003 	andi	t3,t9,0x3
    22f8:	1560000e 	bnez	t3,2334 <L80951578+0x7c>
    22fc:	24060001 	li	a2,1
    2300:	3c014248 	lui	at,0x4248
    2304:	44814000 	mtc1	at,$f8
    2308:	3c014120 	lui	at,0x4120
    230c:	44815000 	mtc1	at,$f10
    2310:	44818000 	mtc1	at,$f16
    2314:	240c0005 	li	t4,5
    2318:	afac0018 	sw	t4,24(sp)
    231c:	24070064 	li	a3,100
    2320:	afa00020 	sw	zero,32(sp)
    2324:	e7a80010 	swc1	$f8,16(sp)
    2328:	e7aa0014 	swc1	$f10,20(sp)
    232c:	0c000000 	jal	0 <func_8094F2C0>
    2330:	e7b0001c 	swc1	$f16,28(sp)
    2334:	862d01b0 	lh	t5,432(s1)
    2338:	25ae0ce4 	addiu	t6,t5,3300
    233c:	a62e01b0 	sh	t6,432(s1)
    2340:	0c000000 	jal	0 <func_8094F2C0>
    2344:	862401b0 	lh	a0,432(s1)
    2348:	3c014248 	lui	at,0x4248
    234c:	44819000 	mtc1	at,$f18
    2350:	3c0d0000 	lui	t5,0x0
    2354:	46120102 	mul.s	$f4,$f0,$f18
    2358:	4600218d 	trunc.w.s	$f6,$f4
    235c:	440b3000 	mfc1	t3,$f6
    2360:	00000000 	nop
    2364:	256c0096 	addiu	t4,t3,150
    2368:	a62c01ae 	sh	t4,430(s1)
    236c:	85ad0000 	lh	t5,0(t5)
    2370:	51a00055 	beqzl	t5,24c8 <L80951578+0x210>
    2374:	8fbf0044 	lw	ra,68(sp)
    2378:	826e0000 	lb	t6,0(s3)
    237c:	3c040000 	lui	a0,0x0
    2380:	24840000 	addiu	a0,a0,0
    2384:	29c1000b 	slti	at,t6,11
    2388:	1020004e 	beqz	at,24c4 <L80951578+0x20c>
    238c:	3c050000 	lui	a1,0x0
    2390:	3c010000 	lui	at,0x0
    2394:	c4280000 	lwc1	$f8,0(at)
    2398:	3c063e99 	lui	a2,0x3e99
    239c:	3c070000 	lui	a3,0x0
    23a0:	8ce70000 	lw	a3,0(a3)
    23a4:	34c6999a 	ori	a2,a2,0x999a
    23a8:	8ca50000 	lw	a1,0(a1)
    23ac:	0c000000 	jal	0 <func_8094F2C0>
    23b0:	e7a80010 	swc1	$f8,16(sp)
    23b4:	3c010000 	lui	at,0x0
    23b8:	c42a0000 	lwc1	$f10,0(at)
    23bc:	3c040000 	lui	a0,0x0
    23c0:	3c050000 	lui	a1,0x0
    23c4:	3c063e99 	lui	a2,0x3e99
    23c8:	3c070000 	lui	a3,0x0
    23cc:	8ce70000 	lw	a3,0(a3)
    23d0:	34c6999a 	ori	a2,a2,0x999a
    23d4:	8ca50000 	lw	a1,0(a1)
    23d8:	24840000 	addiu	a0,a0,0
    23dc:	0c000000 	jal	0 <func_8094F2C0>
    23e0:	e7aa0010 	swc1	$f10,16(sp)
    23e4:	3c010000 	lui	at,0x0
    23e8:	c4300000 	lwc1	$f16,0(at)
    23ec:	3c040000 	lui	a0,0x0
    23f0:	3c050000 	lui	a1,0x0
    23f4:	3c063e99 	lui	a2,0x3e99
    23f8:	3c070000 	lui	a3,0x0
    23fc:	8ce70000 	lw	a3,0(a3)
    2400:	34c6999a 	ori	a2,a2,0x999a
    2404:	8ca50000 	lw	a1,0(a1)
    2408:	24840000 	addiu	a0,a0,0
    240c:	0c000000 	jal	0 <func_8094F2C0>
    2410:	e7b00010 	swc1	$f16,16(sp)
    2414:	3c010000 	lui	at,0x0
    2418:	c4320000 	lwc1	$f18,0(at)
    241c:	3c040000 	lui	a0,0x0
    2420:	3c050000 	lui	a1,0x0
    2424:	3c063e99 	lui	a2,0x3e99
    2428:	3c070000 	lui	a3,0x0
    242c:	8ce70000 	lw	a3,0(a3)
    2430:	34c6999a 	ori	a2,a2,0x999a
    2434:	8ca50000 	lw	a1,0(a1)
    2438:	24840000 	addiu	a0,a0,0
    243c:	0c000000 	jal	0 <func_8094F2C0>
    2440:	e7b20010 	swc1	$f18,16(sp)
    2444:	3c010000 	lui	at,0x0
    2448:	c4240000 	lwc1	$f4,0(at)
    244c:	3c040000 	lui	a0,0x0
    2450:	3c050000 	lui	a1,0x0
    2454:	3c063e99 	lui	a2,0x3e99
    2458:	3c070000 	lui	a3,0x0
    245c:	8ce70000 	lw	a3,0(a3)
    2460:	34c6999a 	ori	a2,a2,0x999a
    2464:	8ca50000 	lw	a1,0(a1)
    2468:	24840000 	addiu	a0,a0,0
    246c:	0c000000 	jal	0 <func_8094F2C0>
    2470:	e7a40010 	swc1	$f4,16(sp)
    2474:	3c010000 	lui	at,0x0
    2478:	c4260000 	lwc1	$f6,0(at)
    247c:	3c040000 	lui	a0,0x0
    2480:	3c050000 	lui	a1,0x0
    2484:	3c063e99 	lui	a2,0x3e99
    2488:	3c070000 	lui	a3,0x0
    248c:	8ce70000 	lw	a3,0(a3)
    2490:	34c6999a 	ori	a2,a2,0x999a
    2494:	8ca50000 	lw	a1,0(a1)
    2498:	24840000 	addiu	a0,a0,0
    249c:	0c000000 	jal	0 <func_8094F2C0>
    24a0:	e7a60010 	swc1	$f6,16(sp)
    24a4:	3c050000 	lui	a1,0x0
    24a8:	3c060000 	lui	a2,0x0
    24ac:	3c070000 	lui	a3,0x0
    24b0:	24e70000 	addiu	a3,a3,0
    24b4:	24c60000 	addiu	a2,a2,0
    24b8:	84a50000 	lh	a1,0(a1)
    24bc:	0c000000 	jal	0 <func_8094F2C0>
    24c0:	02402025 	move	a0,s2
    24c4:	8fbf0044 	lw	ra,68(sp)
    24c8:	8fb00034 	lw	s0,52(sp)
    24cc:	8fb10038 	lw	s1,56(sp)
    24d0:	8fb2003c 	lw	s2,60(sp)
    24d4:	8fb30040 	lw	s3,64(sp)
    24d8:	03e00008 	jr	ra
    24dc:	27bd0070 	addiu	sp,sp,112

000024e0 <func_809517A0>:
    24e0:	27bdffd0 	addiu	sp,sp,-48
    24e4:	afb00028 	sw	s0,40(sp)
    24e8:	00808025 	move	s0,a0
    24ec:	afbf002c 	sw	ra,44(sp)
    24f0:	3c040600 	lui	a0,0x600
    24f4:	0c000000 	jal	0 <func_8094F2C0>
    24f8:	24845184 	addiu	a0,a0,20868
    24fc:	44822000 	mtc1	v0,$f4
    2500:	44803000 	mtc1	zero,$f6
    2504:	3c050600 	lui	a1,0x600
    2508:	46802020 	cvt.s.w	$f0,$f4
    250c:	240e0002 	li	t6,2
    2510:	afae0014 	sw	t6,20(sp)
    2514:	24a55184 	addiu	a1,a1,20868
    2518:	2604014c 	addiu	a0,s0,332
    251c:	3c063f80 	lui	a2,0x3f80
    2520:	44070000 	mfc1	a3,$f0
    2524:	e7a00010 	swc1	$f0,16(sp)
    2528:	0c000000 	jal	0 <func_8094F2C0>
    252c:	e7a60018 	swc1	$f6,24(sp)
    2530:	8e0f0004 	lw	t7,4(s0)
    2534:	3c01c3e1 	lui	at,0xc3e1
    2538:	44814000 	mtc1	at,$f8
    253c:	2401fffe 	li	at,-2
    2540:	01e1c024 	and	t8,t7,at
    2544:	24190019 	li	t9,25
    2548:	ae180004 	sw	t8,4(s0)
    254c:	ae190198 	sw	t9,408(s0)
    2550:	3c010000 	lui	at,0x0
    2554:	24080080 	li	t0,128
    2558:	3c050000 	lui	a1,0x0
    255c:	e60800bc 	swc1	$f8,188(s0)
    2560:	a0280000 	sb	t0,0(at)
    2564:	24a50000 	addiu	a1,a1,0
    2568:	0c000000 	jal	0 <func_8094F2C0>
    256c:	02002025 	move	a0,s0
    2570:	8fbf002c 	lw	ra,44(sp)
    2574:	8fb00028 	lw	s0,40(sp)
    2578:	27bd0030 	addiu	sp,sp,48
    257c:	03e00008 	jr	ra
    2580:	00000000 	nop

00002584 <func_80951844>:
    2584:	27bdffb8 	addiu	sp,sp,-72
    2588:	afbf0034 	sw	ra,52(sp)
    258c:	afb00030 	sw	s0,48(sp)
    2590:	afa5004c 	sw	a1,76(sp)
    2594:	8caf1c44 	lw	t7,7236(a1)
    2598:	00808025 	move	s0,a0
    259c:	afaf0044 	sw	t7,68(sp)
    25a0:	849801b0 	lh	t8,432(a0)
    25a4:	27190ce4 	addiu	t9,t8,3300
    25a8:	a49901b0 	sh	t9,432(a0)
    25ac:	0c000000 	jal	0 <func_8094F2C0>
    25b0:	848401b0 	lh	a0,432(a0)
    25b4:	3c014248 	lui	at,0x4248
    25b8:	44812000 	mtc1	at,$f4
    25bc:	8e020198 	lw	v0,408(s0)
    25c0:	46040182 	mul.s	$f6,$f0,$f4
    25c4:	4600320d 	trunc.w.s	$f8,$f6
    25c8:	440b4000 	mfc1	t3,$f8
    25cc:	00000000 	nop
    25d0:	256c0096 	addiu	t4,t3,150
    25d4:	10400009 	beqz	v0,25fc <func_80951844+0x78>
    25d8:	a60c01ae 	sh	t4,430(s0)
    25dc:	244dffff 	addiu	t5,v0,-1
    25e0:	15a00006 	bnez	t5,25fc <func_80951844+0x78>
    25e4:	ae0d0198 	sw	t5,408(s0)
    25e8:	3c0f0000 	lui	t7,0x0
    25ec:	91ef0000 	lbu	t7,0(t7)
    25f0:	3c010000 	lui	at,0x0
    25f4:	31f8007f 	andi	t8,t7,0x7f
    25f8:	a0380000 	sb	t8,0(at)
    25fc:	9202029c 	lbu	v0,668(s0)
    2600:	30590002 	andi	t9,v0,0x2
    2604:	1320000e 	beqz	t9,2640 <func_80951844+0xbc>
    2608:	3048fffd 	andi	t0,v0,0xfffd
    260c:	a208029c 	sb	t0,668(s0)
    2610:	8fa90044 	lw	t1,68(sp)
    2614:	8e0a0290 	lw	t2,656(s0)
    2618:	3c014100 	lui	at,0x4100
    261c:	8fa4004c 	lw	a0,76(sp)
    2620:	152a0007 	bne	t1,t2,2640 <func_80951844+0xbc>
    2624:	00000000 	nop
    2628:	44810000 	mtc1	at,$f0
    262c:	8607008a 	lh	a3,138(s0)
    2630:	02002825 	move	a1,s0
    2634:	44060000 	mfc1	a2,$f0
    2638:	0c000000 	jal	0 <func_8094F2C0>
    263c:	e7a00010 	swc1	$f0,16(sp)
    2640:	3c0b0000 	lui	t3,0x0
    2644:	916b0000 	lbu	t3,0(t3)
    2648:	316c007f 	andi	t4,t3,0x7f
    264c:	1180000d 	beqz	t4,2684 <func_80951844+0x100>
    2650:	00000000 	nop
    2654:	44805000 	mtc1	zero,$f10
    2658:	240d000c 	li	t5,12
    265c:	02002025 	move	a0,s0
    2660:	e60a0164 	swc1	$f10,356(s0)
    2664:	afad0010 	sw	t5,16(sp)
    2668:	00002825 	move	a1,zero
    266c:	240600ff 	li	a2,255
    2670:	0c000000 	jal	0 <func_8094F2C0>
    2674:	00003825 	move	a3,zero
    2678:	02002025 	move	a0,s0
    267c:	0c000000 	jal	0 <func_8094F2C0>
    2680:	2405393d 	li	a1,14653
    2684:	0c000000 	jal	0 <func_8094F2C0>
    2688:	2604014c 	addiu	a0,s0,332
    268c:	10400008 	beqz	v0,26b0 <func_80951844+0x12c>
    2690:	3c0e0000 	lui	t6,0x0
    2694:	91ce0000 	lbu	t6,0(t6)
    2698:	02002025 	move	a0,s0
    269c:	29c10003 	slti	at,t6,3
    26a0:	54200004 	bnezl	at,26b4 <func_80951844+0x130>
    26a4:	86050030 	lh	a1,48(s0)
    26a8:	0c000000 	jal	0 <func_8094F2C0>
    26ac:	8fa5004c 	lw	a1,76(sp)
    26b0:	86050030 	lh	a1,48(s0)
    26b4:	afa00010 	sw	zero,16(sp)
    26b8:	260400b4 	addiu	a0,s0,180
    26bc:	24060001 	li	a2,1
    26c0:	0c000000 	jal	0 <func_8094F2C0>
    26c4:	240700c8 	li	a3,200
    26c8:	86050034 	lh	a1,52(s0)
    26cc:	afa00010 	sw	zero,16(sp)
    26d0:	260400b8 	addiu	a0,s0,184
    26d4:	24060001 	li	a2,1
    26d8:	0c000000 	jal	0 <func_8094F2C0>
    26dc:	240700c8 	li	a3,200
    26e0:	860f01ac 	lh	t7,428(s0)
    26e4:	25f80c31 	addiu	t8,t7,3121
    26e8:	a61801ac 	sh	t8,428(s0)
    26ec:	0c000000 	jal	0 <func_8094F2C0>
    26f0:	860401ac 	lh	a0,428(s0)
    26f4:	3c010000 	lui	at,0x0
    26f8:	c4300000 	lwc1	$f16,0(at)
    26fc:	3c013f80 	lui	at,0x3f80
    2700:	44812000 	mtc1	at,$f4
    2704:	46100482 	mul.s	$f18,$f0,$f16
    2708:	860401ac 	lh	a0,428(s0)
    270c:	46049180 	add.s	$f6,$f18,$f4
    2710:	0c000000 	jal	0 <func_8094F2C0>
    2714:	e60601a0 	swc1	$f6,416(s0)
    2718:	3c010000 	lui	at,0x0
    271c:	c4280000 	lwc1	$f8,0(at)
    2720:	3c013f80 	lui	at,0x3f80
    2724:	44818000 	mtc1	at,$f16
    2728:	46080282 	mul.s	$f10,$f0,$f8
    272c:	3c080001 	lui	t0,0x1
    2730:	3c014120 	lui	at,0x4120
    2734:	02002825 	move	a1,s0
    2738:	24060001 	li	a2,1
    273c:	24070064 	li	a3,100
    2740:	240a0002 	li	t2,2
    2744:	46105480 	add.s	$f18,$f10,$f16
    2748:	e61201a4 	swc1	$f18,420(s0)
    274c:	8fb9004c 	lw	t9,76(sp)
    2750:	01194021 	addu	t0,t0,t9
    2754:	8d081de4 	lw	t0,7652(t0)
    2758:	03202025 	move	a0,t9
    275c:	31090003 	andi	t1,t0,0x3
    2760:	1520000a 	bnez	t1,278c <func_80951844+0x208>
    2764:	00000000 	nop
    2768:	44810000 	mtc1	at,$f0
    276c:	3c014248 	lui	at,0x4248
    2770:	44812000 	mtc1	at,$f4
    2774:	afaa0018 	sw	t2,24(sp)
    2778:	afa00020 	sw	zero,32(sp)
    277c:	e7a00014 	swc1	$f0,20(sp)
    2780:	e7a0001c 	swc1	$f0,28(sp)
    2784:	0c000000 	jal	0 <func_8094F2C0>
    2788:	e7a40010 	swc1	$f4,16(sp)
    278c:	0c000000 	jal	0 <func_8094F2C0>
    2790:	00000000 	nop
    2794:	3c010000 	lui	at,0x0
    2798:	c4260000 	lwc1	$f6,0(at)
    279c:	02002025 	move	a0,s0
    27a0:	4606003c 	c.lt.s	$f0,$f6
    27a4:	00000000 	nop
    27a8:	45020004 	bc1fl	27bc <func_80951844+0x238>
    27ac:	2605028c 	addiu	a1,s0,652
    27b0:	0c000000 	jal	0 <func_8094F2C0>
    27b4:	24053143 	li	a1,12611
    27b8:	2605028c 	addiu	a1,s0,652
    27bc:	afa50040 	sw	a1,64(sp)
    27c0:	0c000000 	jal	0 <func_8094F2C0>
    27c4:	02002025 	move	a0,s0
    27c8:	8fa4004c 	lw	a0,76(sp)
    27cc:	3c010001 	lui	at,0x1
    27d0:	34211e60 	ori	at,at,0x1e60
    27d4:	00812821 	addu	a1,a0,at
    27d8:	afa5003c 	sw	a1,60(sp)
    27dc:	0c000000 	jal	0 <func_8094F2C0>
    27e0:	8fa60040 	lw	a2,64(sp)
    27e4:	8fa5003c 	lw	a1,60(sp)
    27e8:	8fa4004c 	lw	a0,76(sp)
    27ec:	0c000000 	jal	0 <func_8094F2C0>
    27f0:	8fa60040 	lw	a2,64(sp)
    27f4:	260400e4 	addiu	a0,s0,228
    27f8:	2405313c 	li	a1,12604
    27fc:	0c000000 	jal	0 <func_8094F2C0>
    2800:	3c063f80 	lui	a2,0x3f80
    2804:	8fbf0034 	lw	ra,52(sp)
    2808:	8fb00030 	lw	s0,48(sp)
    280c:	27bd0048 	addiu	sp,sp,72
    2810:	03e00008 	jr	ra
    2814:	00000000 	nop

00002818 <func_80951AD8>:
    2818:	27bdffa8 	addiu	sp,sp,-88
    281c:	3c020000 	lui	v0,0x0
    2820:	24420000 	addiu	v0,v0,0
    2824:	904e0000 	lbu	t6,0(v0)
    2828:	afb20040 	sw	s2,64(sp)
    282c:	afb1003c 	sw	s1,60(sp)
    2830:	afb60050 	sw	s6,80(sp)
    2834:	afb5004c 	sw	s5,76(sp)
    2838:	afb40048 	sw	s4,72(sp)
    283c:	afb30044 	sw	s3,68(sp)
    2840:	afb00038 	sw	s0,56(sp)
    2844:	3c110000 	lui	s1,0x0
    2848:	3c120000 	lui	s2,0x0
    284c:	25cf0001 	addiu	t7,t6,1
    2850:	00808025 	move	s0,a0
    2854:	00a0a025 	move	s4,a1
    2858:	afbf0054 	sw	ra,84(sp)
    285c:	a04f0000 	sb	t7,0(v0)
    2860:	26520000 	addiu	s2,s2,0
    2864:	26310000 	addiu	s1,s1,0
    2868:	2413000a 	li	s3,10
    286c:	24b51c24 	addiu	s5,a1,7204
    2870:	24160005 	li	s6,5
    2874:	c6240000 	lwc1	$f4,0(s1)
    2878:	c6060024 	lwc1	$f6,36(s0)
    287c:	c62a0004 	lwc1	$f10,4(s1)
    2880:	86580000 	lh	t8,0(s2)
    2884:	46062200 	add.s	$f8,$f4,$f6
    2888:	c6240008 	lwc1	$f4,8(s1)
    288c:	86490002 	lh	t1,2(s2)
    2890:	864c0004 	lh	t4,4(s2)
    2894:	e7a80010 	swc1	$f8,16(sp)
    2898:	c6100028 	lwc1	$f16,40(s0)
    289c:	02a02025 	move	a0,s5
    28a0:	02002825 	move	a1,s0
    28a4:	46105480 	add.s	$f18,$f10,$f16
    28a8:	02803025 	move	a2,s4
    28ac:	240700ba 	li	a3,186
    28b0:	e7b20014 	swc1	$f18,20(sp)
    28b4:	c606002c 	lwc1	$f6,44(s0)
    28b8:	46062200 	add.s	$f8,$f4,$f6
    28bc:	e7a80018 	swc1	$f8,24(sp)
    28c0:	86190030 	lh	t9,48(s0)
    28c4:	03194021 	addu	t0,t8,t9
    28c8:	afa8001c 	sw	t0,28(sp)
    28cc:	860a0032 	lh	t2,50(s0)
    28d0:	012a5821 	addu	t3,t1,t2
    28d4:	afab0020 	sw	t3,32(sp)
    28d8:	860d0034 	lh	t5,52(s0)
    28dc:	afb30028 	sw	s3,40(sp)
    28e0:	018d7021 	addu	t6,t4,t5
    28e4:	0c000000 	jal	0 <func_8094F2C0>
    28e8:	afae0024 	sw	t6,36(sp)
    28ec:	2673ffff 	addiu	s3,s3,-1
    28f0:	2631fff4 	addiu	s1,s1,-12
    28f4:	1676ffdf 	bne	s3,s6,2874 <func_80951AD8+0x5c>
    28f8:	2652fffa 	addiu	s2,s2,-6
    28fc:	8e0f0004 	lw	t7,4(s0)
    2900:	3c050000 	lui	a1,0x0
    2904:	a2000196 	sb	zero,406(s0)
    2908:	35f80001 	ori	t8,t7,0x1
    290c:	ae180004 	sw	t8,4(s0)
    2910:	24a50000 	addiu	a1,a1,0
    2914:	0c000000 	jal	0 <func_8094F2C0>
    2918:	02002025 	move	a0,s0
    291c:	8fbf0054 	lw	ra,84(sp)
    2920:	8fb00038 	lw	s0,56(sp)
    2924:	8fb1003c 	lw	s1,60(sp)
    2928:	8fb20040 	lw	s2,64(sp)
    292c:	8fb30044 	lw	s3,68(sp)
    2930:	8fb40048 	lw	s4,72(sp)
    2934:	8fb5004c 	lw	s5,76(sp)
    2938:	8fb60050 	lw	s6,80(sp)
    293c:	03e00008 	jr	ra
    2940:	27bd0058 	addiu	sp,sp,88

00002944 <func_80951C04>:
    2944:	27bdffa8 	addiu	sp,sp,-88
    2948:	afbf0034 	sw	ra,52(sp)
    294c:	afb00030 	sw	s0,48(sp)
    2950:	afa5005c 	sw	a1,92(sp)
    2954:	8caf1c44 	lw	t7,7236(a1)
    2958:	00808025 	move	s0,a0
    295c:	afaf0054 	sw	t7,84(sp)
    2960:	90980114 	lbu	t8,276(a0)
    2964:	17000016 	bnez	t8,29c0 <func_80951C04+0x7c>
    2968:	3c080000 	lui	t0,0x0
    296c:	25080000 	addiu	t0,t0,0
    2970:	95190000 	lhu	t9,0(t0)
    2974:	240f0010 	li	t7,16
    2978:	27290001 	addiu	t1,t9,1
    297c:	a5090000 	sh	t1,0(t0)
    2980:	808a0196 	lb	t2,406(a0)
    2984:	5140000e 	beqzl	t2,29c0 <func_80951C04+0x7c>
    2988:	ae0f02ac 	sw	t7,684(s0)
    298c:	948b0112 	lhu	t3,274(a0)
    2990:	00002825 	move	a1,zero
    2994:	240600ff 	li	a2,255
    2998:	316c4000 	andi	t4,t3,0x4000
    299c:	11800007 	beqz	t4,29bc <func_80951C04+0x78>
    29a0:	00003825 	move	a3,zero
    29a4:	240d00a0 	li	t5,160
    29a8:	0c000000 	jal	0 <func_8094F2C0>
    29ac:	afad0010 	sw	t5,16(sp)
    29b0:	820e0196 	lb	t6,406(s0)
    29b4:	10000002 	b	29c0 <func_80951C04+0x7c>
    29b8:	a20e0114 	sb	t6,276(s0)
    29bc:	ae0f02ac 	sw	t7,684(s0)
    29c0:	9202029d 	lbu	v0,669(s0)
    29c4:	3c080000 	lui	t0,0x0
    29c8:	25080000 	addiu	t0,t0,0
    29cc:	30580002 	andi	t8,v0,0x2
    29d0:	53000034 	beqzl	t8,2aa4 <func_80951C04+0x160>
    29d4:	9202029c 	lbu	v0,668(s0)
    29d8:	8e090294 	lw	t1,660(s0)
    29dc:	3059fffd 	andi	t9,v0,0xfffd
    29e0:	a219029d 	sb	t9,669(s0)
    29e4:	852a0000 	lh	t2,0(t1)
    29e8:	24010032 	li	at,50
    29ec:	3c020000 	lui	v0,0x0
    29f0:	1541000f 	bne	t2,at,2a30 <func_80951C04+0xec>
    29f4:	24420000 	addiu	v0,v0,0
    29f8:	950b0000 	lhu	t3,0(t0)
    29fc:	240d00a0 	li	t5,160
    2a00:	afad0010 	sw	t5,16(sp)
    2a04:	316cfe00 	andi	t4,t3,0xfe00
    2a08:	a50c0000 	sh	t4,0(t0)
    2a0c:	02002025 	move	a0,s0
    2a10:	00002825 	move	a1,zero
    2a14:	240600ff 	li	a2,255
    2a18:	0c000000 	jal	0 <func_8094F2C0>
    2a1c:	00003825 	move	a3,zero
    2a20:	3c0e0fc0 	lui	t6,0xfc0
    2a24:	35ce0712 	ori	t6,t6,0x712
    2a28:	10000018 	b	2a8c <func_80951C04+0x148>
    2a2c:	ae0e02ac 	sw	t6,684(s0)
    2a30:	904f0000 	lbu	t7,0(v0)
    2a34:	02002025 	move	a0,s0
    2a38:	24054000 	li	a1,16384
    2a3c:	25f80001 	addiu	t8,t7,1
    2a40:	a0580000 	sb	t8,0(v0)
    2a44:	92030114 	lbu	v1,276(s0)
    2a48:	240600ff 	li	a2,255
    2a4c:	00003825 	move	a3,zero
    2a50:	1060000c 	beqz	v1,2a84 <func_80951C04+0x140>
    2a54:	240c000c 	li	t4,12
    2a58:	96190112 	lhu	t9,274(s0)
    2a5c:	246afffb 	addiu	t2,v1,-5
    2a60:	33294000 	andi	t1,t9,0x4000
    2a64:	15200007 	bnez	t1,2a84 <func_80951C04+0x140>
    2a68:	00000000 	nop
    2a6c:	a20a0196 	sb	t2,406(s0)
    2a70:	820b0196 	lb	t3,406(s0)
    2a74:	296100a1 	slti	at,t3,161
    2a78:	14200002 	bnez	at,2a84 <func_80951C04+0x140>
    2a7c:	00000000 	nop
    2a80:	a2000196 	sb	zero,406(s0)
    2a84:	0c000000 	jal	0 <func_8094F2C0>
    2a88:	afac0010 	sw	t4,16(sp)
    2a8c:	02002025 	move	a0,s0
    2a90:	0c000000 	jal	0 <func_8094F2C0>
    2a94:	2405393e 	li	a1,14654
    2a98:	3c080000 	lui	t0,0x0
    2a9c:	25080000 	addiu	t0,t0,0
    2aa0:	9202029c 	lbu	v0,668(s0)
    2aa4:	304d0002 	andi	t5,v0,0x2
    2aa8:	11a00017 	beqz	t5,2b08 <func_80951C04+0x1c4>
    2aac:	304efffd 	andi	t6,v0,0xfffd
    2ab0:	a20e029c 	sb	t6,668(s0)
    2ab4:	950f0000 	lhu	t7,0(t0)
    2ab8:	8fa90054 	lw	t1,84(sp)
    2abc:	3c014100 	lui	at,0x4100
    2ac0:	25f80018 	addiu	t8,t7,24
    2ac4:	3319fff0 	andi	t9,t8,0xfff0
    2ac8:	a5190000 	sh	t9,0(t0)
    2acc:	8e0a0290 	lw	t2,656(s0)
    2ad0:	8fa4005c 	lw	a0,92(sp)
    2ad4:	552a000d 	bnel	t1,t2,2b0c <func_80951C04+0x1c8>
    2ad8:	95020000 	lhu	v0,0(t0)
    2adc:	44810000 	mtc1	at,$f0
    2ae0:	8607008a 	lh	a3,138(s0)
    2ae4:	02002825 	move	a1,s0
    2ae8:	44060000 	mfc1	a2,$f0
    2aec:	0c000000 	jal	0 <func_8094F2C0>
    2af0:	e7a00010 	swc1	$f0,16(sp)
    2af4:	8fa40054 	lw	a0,84(sp)
    2af8:	0c000000 	jal	0 <func_8094F2C0>
    2afc:	2405083e 	li	a1,2110
    2b00:	3c080000 	lui	t0,0x0
    2b04:	25080000 	addiu	t0,t0,0
    2b08:	95020000 	lhu	v0,0(t0)
    2b0c:	2841000b 	slti	at,v0,11
    2b10:	1420002b 	bnez	at,2bc0 <func_80951C04+0x27c>
    2b14:	304b0007 	andi	t3,v0,0x7
    2b18:	15600029 	bnez	t3,2bc0 <func_80951C04+0x27c>
    2b1c:	3c013f80 	lui	at,0x3f80
    2b20:	44812000 	mtc1	at,$f4
    2b24:	c6060068 	lwc1	$f6,104(s0)
    2b28:	46062032 	c.eq.s	$f4,$f6
    2b2c:	00000000 	nop
    2b30:	45020024 	bc1fl	2bc4 <func_80951C04+0x280>
    2b34:	260f0024 	addiu	t7,s0,36
    2b38:	8e0d0024 	lw	t5,36(s0)
    2b3c:	27a70048 	addiu	a3,sp,72
    2b40:	3c01439b 	lui	at,0x439b
    2b44:	aced0000 	sw	t5,0(a3)
    2b48:	8e0c0028 	lw	t4,40(s0)
    2b4c:	44819000 	mtc1	at,$f18
    2b50:	3c01c120 	lui	at,0xc120
    2b54:	acec0004 	sw	t4,4(a3)
    2b58:	8e0d002c 	lw	t5,44(s0)
    2b5c:	3c050000 	lui	a1,0x0
    2b60:	240e0004 	li	t6,4
    2b64:	aced0008 	sw	t5,8(a3)
    2b68:	c60a0054 	lwc1	$f10,84(s0)
    2b6c:	c60800bc 	lwc1	$f8,188(s0)
    2b70:	c7a6004c 	lwc1	$f6,76(sp)
    2b74:	afa00014 	sw	zero,20(sp)
    2b78:	460a4402 	mul.s	$f16,$f8,$f10
    2b7c:	c7aa0048 	lwc1	$f10,72(sp)
    2b80:	afae0010 	sw	t6,16(sp)
    2b84:	8fa4005c 	lw	a0,92(sp)
    2b88:	24a50000 	addiu	a1,a1,0
    2b8c:	02003025 	move	a2,s0
    2b90:	46109100 	add.s	$f4,$f18,$f16
    2b94:	44819000 	mtc1	at,$f18
    2b98:	3c01435c 	lui	at,0x435c
    2b9c:	46043200 	add.s	$f8,$f6,$f4
    2ba0:	44812000 	mtc1	at,$f4
    2ba4:	c7a60050 	lwc1	$f6,80(sp)
    2ba8:	46125400 	add.s	$f16,$f10,$f18
    2bac:	e7a8004c 	swc1	$f8,76(sp)
    2bb0:	46043200 	add.s	$f8,$f6,$f4
    2bb4:	e7b00048 	swc1	$f16,72(sp)
    2bb8:	0c000000 	jal	0 <func_8094F2C0>
    2bbc:	e7a80050 	swc1	$f8,80(sp)
    2bc0:	260f0024 	addiu	t7,s0,36
    2bc4:	0c000000 	jal	0 <func_8094F2C0>
    2bc8:	afaf0044 	sw	t7,68(sp)
    2bcc:	3c010000 	lui	at,0x0
    2bd0:	c42a0000 	lwc1	$f10,0(at)
    2bd4:	460a003c 	c.lt.s	$f0,$f10
    2bd8:	00000000 	nop
    2bdc:	45000003 	bc1f	2bec <func_80951C04+0x2a8>
    2be0:	02002025 	move	a0,s0
    2be4:	0c000000 	jal	0 <func_8094F2C0>
    2be8:	24053143 	li	a1,12611
    2bec:	86050030 	lh	a1,48(s0)
    2bf0:	afa00010 	sw	zero,16(sp)
    2bf4:	260400b4 	addiu	a0,s0,180
    2bf8:	24060001 	li	a2,1
    2bfc:	0c000000 	jal	0 <func_8094F2C0>
    2c00:	240700c8 	li	a3,200
    2c04:	86050034 	lh	a1,52(s0)
    2c08:	afa00010 	sw	zero,16(sp)
    2c0c:	260400b8 	addiu	a0,s0,184
    2c10:	24060001 	li	a2,1
    2c14:	0c000000 	jal	0 <func_8094F2C0>
    2c18:	240700c8 	li	a3,200
    2c1c:	44809000 	mtc1	zero,$f18
    2c20:	260400bc 	addiu	a0,s0,188
    2c24:	3c05c47a 	lui	a1,0xc47a
    2c28:	3c063f80 	lui	a2,0x3f80
    2c2c:	3c0741a0 	lui	a3,0x41a0
    2c30:	0c000000 	jal	0 <func_8094F2C0>
    2c34:	e7b20010 	swc1	$f18,16(sp)
    2c38:	3c180000 	lui	t8,0x0
    2c3c:	97180000 	lhu	t8,0(t8)
    2c40:	33190100 	andi	t9,t8,0x100
    2c44:	57200009 	bnezl	t9,2c6c <func_80951C04+0x328>
    2c48:	8e0b0004 	lw	t3,4(s0)
    2c4c:	8e090004 	lw	t1,4(s0)
    2c50:	3c013f80 	lui	at,0x3f80
    2c54:	44818000 	mtc1	at,$f16
    2c58:	352a0001 	ori	t2,t1,0x1
    2c5c:	ae0a0004 	sw	t2,4(s0)
    2c60:	10000007 	b	2c80 <func_80951C04+0x33c>
    2c64:	e6100068 	swc1	$f16,104(s0)
    2c68:	8e0b0004 	lw	t3,4(s0)
    2c6c:	44803000 	mtc1	zero,$f6
    2c70:	2401fffe 	li	at,-2
    2c74:	01616024 	and	t4,t3,at
    2c78:	ae0c0004 	sw	t4,4(s0)
    2c7c:	e6060068 	swc1	$f6,104(s0)
    2c80:	0c000000 	jal	0 <func_8094F2C0>
    2c84:	2604014c 	addiu	a0,s0,332
    2c88:	10400007 	beqz	v0,2ca8 <func_80951C04+0x364>
    2c8c:	3c0d0000 	lui	t5,0x0
    2c90:	91ad0000 	lbu	t5,0(t5)
    2c94:	29a10009 	slti	at,t5,9
    2c98:	54200004 	bnezl	at,2cac <func_80951C04+0x368>
    2c9c:	860e01ac 	lh	t6,428(s0)
    2ca0:	0c000000 	jal	0 <func_8094F2C0>
    2ca4:	02002025 	move	a0,s0
    2ca8:	860e01ac 	lh	t6,428(s0)
    2cac:	25cf0c31 	addiu	t7,t6,3121
    2cb0:	a60f01ac 	sh	t7,428(s0)
    2cb4:	0c000000 	jal	0 <func_8094F2C0>
    2cb8:	860401ac 	lh	a0,428(s0)
    2cbc:	3c010000 	lui	at,0x0
    2cc0:	c4240000 	lwc1	$f4,0(at)
    2cc4:	3c013f80 	lui	at,0x3f80
    2cc8:	44815000 	mtc1	at,$f10
    2ccc:	46040202 	mul.s	$f8,$f0,$f4
    2cd0:	860401ac 	lh	a0,428(s0)
    2cd4:	460a4480 	add.s	$f18,$f8,$f10
    2cd8:	0c000000 	jal	0 <func_8094F2C0>
    2cdc:	e61201a0 	swc1	$f18,416(s0)
    2ce0:	3c010000 	lui	at,0x0
    2ce4:	c4300000 	lwc1	$f16,0(at)
    2ce8:	3c013f80 	lui	at,0x3f80
    2cec:	44812000 	mtc1	at,$f4
    2cf0:	46100182 	mul.s	$f6,$f0,$f16
    2cf4:	3c190001 	lui	t9,0x1
    2cf8:	3c014120 	lui	at,0x4120
    2cfc:	02002825 	move	a1,s0
    2d00:	24060001 	li	a2,1
    2d04:	24070064 	li	a3,100
    2d08:	240a0005 	li	t2,5
    2d0c:	46043200 	add.s	$f8,$f6,$f4
    2d10:	e60801a4 	swc1	$f8,420(s0)
    2d14:	8fb8005c 	lw	t8,92(sp)
    2d18:	0338c821 	addu	t9,t9,t8
    2d1c:	8f391de4 	lw	t9,7652(t9)
    2d20:	03002025 	move	a0,t8
    2d24:	33290003 	andi	t1,t9,0x3
    2d28:	5520000b 	bnezl	t1,2d58 <func_80951C04+0x414>
    2d2c:	8fab0044 	lw	t3,68(sp)
    2d30:	44810000 	mtc1	at,$f0
    2d34:	3c014248 	lui	at,0x4248
    2d38:	44815000 	mtc1	at,$f10
    2d3c:	afaa0018 	sw	t2,24(sp)
    2d40:	afa00020 	sw	zero,32(sp)
    2d44:	e7a00014 	swc1	$f0,20(sp)
    2d48:	e7a0001c 	swc1	$f0,28(sp)
    2d4c:	0c000000 	jal	0 <func_8094F2C0>
    2d50:	e7aa0010 	swc1	$f10,16(sp)
    2d54:	8fab0044 	lw	t3,68(sp)
    2d58:	3c014234 	lui	at,0x4234
    2d5c:	44818000 	mtc1	at,$f16
    2d60:	8d6d0000 	lw	t5,0(t3)
    2d64:	2605028c 	addiu	a1,s0,652
    2d68:	02002025 	move	a0,s0
    2d6c:	ae0d0038 	sw	t5,56(s0)
    2d70:	8d6c0004 	lw	t4,4(t3)
    2d74:	ae0c003c 	sw	t4,60(s0)
    2d78:	c612003c 	lwc1	$f18,60(s0)
    2d7c:	8d6d0008 	lw	t5,8(t3)
    2d80:	46109180 	add.s	$f6,$f18,$f16
    2d84:	ae0d0040 	sw	t5,64(s0)
    2d88:	e606003c 	swc1	$f6,60(s0)
    2d8c:	0c000000 	jal	0 <func_8094F2C0>
    2d90:	afa50040 	sw	a1,64(sp)
    2d94:	8fa4005c 	lw	a0,92(sp)
    2d98:	3c010001 	lui	at,0x1
    2d9c:	34211e60 	ori	at,at,0x1e60
    2da0:	00812821 	addu	a1,a0,at
    2da4:	afa5003c 	sw	a1,60(sp)
    2da8:	0c000000 	jal	0 <func_8094F2C0>
    2dac:	8fa60040 	lw	a2,64(sp)
    2db0:	92030114 	lbu	v1,276(s0)
    2db4:	8fa4005c 	lw	a0,92(sp)
    2db8:	8fa5003c 	lw	a1,60(sp)
    2dbc:	14600004 	bnez	v1,2dd0 <func_80951C04+0x48c>
    2dc0:	00000000 	nop
    2dc4:	0c000000 	jal	0 <func_8094F2C0>
    2dc8:	8fa60040 	lw	a2,64(sp)
    2dcc:	92030114 	lbu	v1,276(s0)
    2dd0:	10600005 	beqz	v1,2de8 <func_80951C04+0x4a4>
    2dd4:	8fa4005c 	lw	a0,92(sp)
    2dd8:	960f0112 	lhu	t7,274(s0)
    2ddc:	31f94000 	andi	t9,t7,0x4000
    2de0:	57200005 	bnezl	t9,2df8 <func_80951C04+0x4b4>
    2de4:	860901f8 	lh	t1,504(s0)
    2de8:	8fa5003c 	lw	a1,60(sp)
    2dec:	0c000000 	jal	0 <func_8094F2C0>
    2df0:	8fa60040 	lw	a2,64(sp)
    2df4:	860901f8 	lh	t1,504(s0)
    2df8:	3c010000 	lui	at,0x0
    2dfc:	c42a0000 	lwc1	$f10,0(at)
    2e00:	44892000 	mtc1	t1,$f4
    2e04:	3c013f80 	lui	at,0x3f80
    2e08:	44818000 	mtc1	at,$f16
    2e0c:	46802220 	cvt.s.w	$f8,$f4
    2e10:	260400e4 	addiu	a0,s0,228
    2e14:	2405313c 	li	a1,12604
    2e18:	460a4482 	mul.s	$f18,$f8,$f10
    2e1c:	46109180 	add.s	$f6,$f18,$f16
    2e20:	44063000 	mfc1	a2,$f6
    2e24:	0c000000 	jal	0 <func_8094F2C0>
    2e28:	00000000 	nop
    2e2c:	8fbf0034 	lw	ra,52(sp)
    2e30:	8fb00030 	lw	s0,48(sp)
    2e34:	27bd0058 	addiu	sp,sp,88
    2e38:	03e00008 	jr	ra
    2e3c:	00000000 	nop

00002e40 <func_80952100>:
    2e40:	44802000 	mtc1	zero,$f4
    2e44:	27bdffe8 	addiu	sp,sp,-24
    2e48:	afbf0014 	sw	ra,20(sp)
    2e4c:	240e0010 	li	t6,16
    2e50:	ac8e02ac 	sw	t6,684(a0)
    2e54:	3c010000 	lui	at,0x0
    2e58:	3c050000 	lui	a1,0x0
    2e5c:	e4840068 	swc1	$f4,104(a0)
    2e60:	a0200000 	sb	zero,0(at)
    2e64:	0c000000 	jal	0 <func_8094F2C0>
    2e68:	24a50000 	addiu	a1,a1,0
    2e6c:	8fbf0014 	lw	ra,20(sp)
    2e70:	27bd0018 	addiu	sp,sp,24
    2e74:	03e00008 	jr	ra
    2e78:	00000000 	nop

00002e7c <func_8095213C>:
    2e7c:	27bdff90 	addiu	sp,sp,-112
    2e80:	afb30044 	sw	s3,68(sp)
    2e84:	00809825 	move	s3,a0
    2e88:	afb40048 	sw	s4,72(sp)
    2e8c:	afb20040 	sw	s2,64(sp)
    2e90:	afbf004c 	sw	ra,76(sp)
    2e94:	afb1003c 	sw	s1,60(sp)
    2e98:	afb00038 	sw	s0,56(sp)
    2e9c:	00a0a025 	move	s4,a1
    2ea0:	8cb11c44 	lw	s1,7236(a1)
    2ea4:	26720008 	addiu	s2,s3,8
    2ea8:	24840024 	addiu	a0,a0,36
    2eac:	afa40058 	sw	a0,88(sp)
    2eb0:	0c000000 	jal	0 <func_8094F2C0>
    2eb4:	02402825 	move	a1,s2
    2eb8:	a7a20062 	sh	v0,98(sp)
    2ebc:	866e01b0 	lh	t6,432(s3)
    2ec0:	25cf0ce4 	addiu	t7,t6,3300
    2ec4:	a66f01b0 	sh	t7,432(s3)
    2ec8:	0c000000 	jal	0 <func_8094F2C0>
    2ecc:	866401b0 	lh	a0,432(s3)
    2ed0:	3c014248 	lui	at,0x4248
    2ed4:	44812000 	mtc1	at,$f4
    2ed8:	9262029c 	lbu	v0,668(s3)
    2edc:	46040182 	mul.s	$f6,$f0,$f4
    2ee0:	304b0002 	andi	t3,v0,0x2
    2ee4:	4600320d 	trunc.w.s	$f8,$f6
    2ee8:	44094000 	mfc1	t1,$f8
    2eec:	00000000 	nop
    2ef0:	252a0096 	addiu	t2,t1,150
    2ef4:	1160001a 	beqz	t3,2f60 <func_8095213C+0xe4>
    2ef8:	a66a01ae 	sh	t2,430(s3)
    2efc:	8e6d0290 	lw	t5,656(s3)
    2f00:	304cfffd 	andi	t4,v0,0xfffd
    2f04:	a26c029c 	sb	t4,668(s3)
    2f08:	162d0015 	bne	s1,t5,2f60 <func_8095213C+0xe4>
    2f0c:	3c014100 	lui	at,0x4100
    2f10:	44810000 	mtc1	at,$f0
    2f14:	8667008a 	lh	a3,138(s3)
    2f18:	02802025 	move	a0,s4
    2f1c:	44060000 	mfc1	a2,$f0
    2f20:	02602825 	move	a1,s3
    2f24:	0c000000 	jal	0 <func_8094F2C0>
    2f28:	e7a00010 	swc1	$f0,16(sp)
    2f2c:	3c010000 	lui	at,0x0
    2f30:	0c000000 	jal	0 <func_8094F2C0>
    2f34:	c42c0000 	lwc1	$f12,0(at)
    2f38:	4600028d 	trunc.w.s	$f10,$f0
    2f3c:	866e0032 	lh	t6,50(s3)
    2f40:	34018000 	li	at,0x8000
    2f44:	02202025 	move	a0,s1
    2f48:	44085000 	mfc1	t0,$f10
    2f4c:	2405083e 	li	a1,2110
    2f50:	01c84821 	addu	t1,t6,t0
    2f54:	01215021 	addu	t2,t1,at
    2f58:	0c000000 	jal	0 <func_8094F2C0>
    2f5c:	a66a0032 	sh	t2,50(s3)
    2f60:	926b029d 	lbu	t3,669(s3)
    2f64:	316c0002 	andi	t4,t3,0x2
    2f68:	11800019 	beqz	t4,2fd0 <func_8095213C+0x154>
    2f6c:	00000000 	nop
    2f70:	44808000 	mtc1	zero,$f16
    2f74:	240d000c 	li	t5,12
    2f78:	02602025 	move	a0,s3
    2f7c:	e6700164 	swc1	$f16,356(s3)
    2f80:	afad0010 	sw	t5,16(sp)
    2f84:	00002825 	move	a1,zero
    2f88:	240600ff 	li	a2,255
    2f8c:	0c000000 	jal	0 <func_8094F2C0>
    2f90:	00003825 	move	a3,zero
    2f94:	02602025 	move	a0,s3
    2f98:	0c000000 	jal	0 <func_8094F2C0>
    2f9c:	2405393e 	li	a1,14654
    2fa0:	3c030000 	lui	v1,0x0
    2fa4:	24630000 	addiu	v1,v1,0
    2fa8:	240f0001 	li	t7,1
    2fac:	a06f0000 	sb	t7,0(v1)
    2fb0:	8e790004 	lw	t9,4(s3)
    2fb4:	2401fffe 	li	at,-2
    2fb8:	24180083 	li	t8,131
    2fbc:	03217024 	and	t6,t9,at
    2fc0:	ae780198 	sw	t8,408(s3)
    2fc4:	ae6e0004 	sw	t6,4(s3)
    2fc8:	1000003e 	b	30c4 <func_8095213C+0x248>
    2fcc:	267000bc 	addiu	s0,s3,188
    2fd0:	3c030000 	lui	v1,0x0
    2fd4:	24630000 	addiu	v1,v1,0
    2fd8:	a0600000 	sb	zero,0(v1)
    2fdc:	8e620198 	lw	v0,408(s3)
    2fe0:	266401f8 	addiu	a0,s3,504
    2fe4:	00002825 	move	a1,zero
    2fe8:	1440001c 	bnez	v0,305c <func_8095213C+0x1e0>
    2fec:	244bffff 	addiu	t3,v0,-1
    2ff0:	266401f8 	addiu	a0,s3,504
    2ff4:	24050fa0 	li	a1,4000
    2ff8:	24060001 	li	a2,1
    2ffc:	2407012c 	li	a3,300
    3000:	0c000000 	jal	0 <func_8094F2C0>
    3004:	afa00010 	sw	zero,16(sp)
    3008:	1440000f 	bnez	v0,3048 <func_8095213C+0x1cc>
    300c:	26640068 	addiu	a0,s3,104
    3010:	44809000 	mtc1	zero,$f18
    3014:	c6640068 	lwc1	$f4,104(s3)
    3018:	44803000 	mtc1	zero,$f6
    301c:	3c054040 	lui	a1,0x4040
    3020:	46049032 	c.eq.s	$f18,$f4
    3024:	3c063f80 	lui	a2,0x3f80
    3028:	3c073e19 	lui	a3,0x3e19
    302c:	45020004 	bc1fl	3040 <func_8095213C+0x1c4>
    3030:	34e7999a 	ori	a3,a3,0x999a
    3034:	8668008a 	lh	t0,138(s3)
    3038:	a6680032 	sh	t0,50(s3)
    303c:	34e7999a 	ori	a3,a3,0x999a
    3040:	0c000000 	jal	0 <func_8094F2C0>
    3044:	e7a60010 	swc1	$f6,16(sp)
    3048:	8e690004 	lw	t1,4(s3)
    304c:	267000bc 	addiu	s0,s3,188
    3050:	352a0001 	ori	t2,t1,0x1
    3054:	1000001b 	b	30c4 <func_8095213C+0x248>
    3058:	ae6a0004 	sw	t2,4(s3)
    305c:	29610023 	slti	at,t3,35
    3060:	10200003 	beqz	at,3070 <func_8095213C+0x1f4>
    3064:	ae6b0198 	sw	t3,408(s3)
    3068:	240d0080 	li	t5,128
    306c:	a06d0000 	sb	t5,0(v1)
    3070:	24060001 	li	a2,1
    3074:	2407012c 	li	a3,300
    3078:	0c000000 	jal	0 <func_8094F2C0>
    307c:	afa00010 	sw	zero,16(sp)
    3080:	44804000 	mtc1	zero,$f8
    3084:	3c073e4c 	lui	a3,0x3e4c
    3088:	34e7cccd 	ori	a3,a3,0xcccd
    308c:	26640068 	addiu	a0,s3,104
    3090:	24050000 	li	a1,0
    3094:	3c063f80 	lui	a2,0x3f80
    3098:	0c000000 	jal	0 <func_8094F2C0>
    309c:	e7a80010 	swc1	$f8,16(sp)
    30a0:	44805000 	mtc1	zero,$f10
    30a4:	267000bc 	addiu	s0,s3,188
    30a8:	3c05c4b1 	lui	a1,0xc4b1
    30ac:	34a58000 	ori	a1,a1,0x8000
    30b0:	02002025 	move	a0,s0
    30b4:	3c063f80 	lui	a2,0x3f80
    30b8:	3c0741f0 	lui	a3,0x41f0
    30bc:	0c000000 	jal	0 <func_8094F2C0>
    30c0:	e7aa0010 	swc1	$f10,16(sp)
    30c4:	8fa40058 	lw	a0,88(sp)
    30c8:	0c000000 	jal	0 <func_8094F2C0>
    30cc:	02402825 	move	a1,s2
    30d0:	3c0143c8 	lui	at,0x43c8
    30d4:	44818000 	mtc1	at,$f16
    30d8:	00000000 	nop
    30dc:	4600803e 	c.le.s	$f16,$f0
    30e0:	00000000 	nop
    30e4:	4500000a 	bc1f	3110 <func_8095213C+0x294>
    30e8:	26640032 	addiu	a0,s3,50
    30ec:	87a50062 	lh	a1,98(sp)
    30f0:	24060001 	li	a2,1
    30f4:	240703e8 	li	a3,1000
    30f8:	0c000000 	jal	0 <func_8094F2C0>
    30fc:	afa00010 	sw	zero,16(sp)
    3100:	3c010001 	lui	at,0x1
    3104:	02817821 	addu	t7,s4,at
    3108:	10000025 	b	31a0 <func_8095213C+0x324>
    310c:	afaf0054 	sw	t7,84(sp)
    3110:	82380a78 	lb	t8,2680(s1)
    3114:	3c010001 	lui	at,0x1
    3118:	26640032 	addiu	a0,s3,50
    311c:	1300000e 	beqz	t8,3158 <func_8095213C+0x2dc>
    3120:	02817021 	addu	t6,s4,at
    3124:	8665008a 	lh	a1,138(s3)
    3128:	34018000 	li	at,0x8000
    312c:	afa00010 	sw	zero,16(sp)
    3130:	00a12821 	addu	a1,a1,at
    3134:	00052c00 	sll	a1,a1,0x10
    3138:	00052c03 	sra	a1,a1,0x10
    313c:	24060001 	li	a2,1
    3140:	0c000000 	jal	0 <func_8094F2C0>
    3144:	2407012c 	li	a3,300
    3148:	3c010001 	lui	at,0x1
    314c:	0281c821 	addu	t9,s4,at
    3150:	10000013 	b	31a0 <func_8095213C+0x324>
    3154:	afb90054 	sw	t9,84(sp)
    3158:	afae0054 	sw	t6,84(sp)
    315c:	8dc91de4 	lw	t1,7652(t6)
    3160:	26640032 	addiu	a0,s3,50
    3164:	87a50062 	lh	a1,98(sp)
    3168:	312a0080 	andi	t2,t1,0x80
    316c:	15400009 	bnez	t2,3194 <func_8095213C+0x318>
    3170:	24060001 	li	a2,1
    3174:	8665008a 	lh	a1,138(s3)
    3178:	afa00010 	sw	zero,16(sp)
    317c:	26640032 	addiu	a0,s3,50
    3180:	24060001 	li	a2,1
    3184:	0c000000 	jal	0 <func_8094F2C0>
    3188:	2407012c 	li	a3,300
    318c:	10000004 	b	31a0 <func_8095213C+0x324>
    3190:	00000000 	nop
    3194:	24070258 	li	a3,600
    3198:	0c000000 	jal	0 <func_8094F2C0>
    319c:	afa00010 	sw	zero,16(sp)
    31a0:	3c0b0000 	lui	t3,0x0
    31a4:	916b0000 	lbu	t3,0(t3)
    31a8:	11600004 	beqz	t3,31bc <func_8095213C+0x340>
    31ac:	00000000 	nop
    31b0:	44809000 	mtc1	zero,$f18
    31b4:	00000000 	nop
    31b8:	e6720068 	swc1	$f18,104(s3)
    31bc:	0c000000 	jal	0 <func_8094F2C0>
    31c0:	02602025 	move	a0,s3
    31c4:	0c000000 	jal	0 <func_8094F2C0>
    31c8:	2664014c 	addiu	a0,s3,332
    31cc:	10400008 	beqz	v0,31f0 <func_8095213C+0x374>
    31d0:	3c0c0000 	lui	t4,0x0
    31d4:	918c0000 	lbu	t4,0(t4)
    31d8:	02602025 	move	a0,s3
    31dc:	2981000f 	slti	at,t4,15
    31e0:	54200004 	bnezl	at,31f4 <func_8095213C+0x378>
    31e4:	866d00b6 	lh	t5,182(s3)
    31e8:	0c000000 	jal	0 <func_8094F2C0>
    31ec:	02802825 	move	a1,s4
    31f0:	866d00b6 	lh	t5,182(s3)
    31f4:	866f01f8 	lh	t7,504(s3)
    31f8:	3c190000 	lui	t9,0x0
    31fc:	24110009 	li	s1,9
    3200:	01afc021 	addu	t8,t5,t7
    3204:	a67800b6 	sh	t8,182(s3)
    3208:	93390000 	lbu	t9,0(t9)
    320c:	5639000b 	bnel	s1,t9,323c <func_8095213C+0x3c0>
    3210:	44803000 	mtc1	zero,$f6
    3214:	44802000 	mtc1	zero,$f4
    3218:	02002025 	move	a0,s0
    321c:	3c05c3e1 	lui	a1,0xc3e1
    3220:	3c063f80 	lui	a2,0x3f80
    3224:	3c074170 	lui	a3,0x4170
    3228:	0c000000 	jal	0 <func_8094F2C0>
    322c:	e7a40010 	swc1	$f4,16(sp)
    3230:	1000000a 	b	325c <func_8095213C+0x3e0>
    3234:	3c01c3fa 	lui	at,0xc3fa
    3238:	44803000 	mtc1	zero,$f6
    323c:	3c05c44a 	lui	a1,0xc44a
    3240:	34a58000 	ori	a1,a1,0x8000
    3244:	02002025 	move	a0,s0
    3248:	3c063f80 	lui	a2,0x3f80
    324c:	3c074170 	lui	a3,0x4170
    3250:	0c000000 	jal	0 <func_8094F2C0>
    3254:	e7a60010 	swc1	$f6,16(sp)
    3258:	3c01c3fa 	lui	at,0xc3fa
    325c:	44815000 	mtc1	at,$f10
    3260:	c66800bc 	lwc1	$f8,188(s3)
    3264:	4608503e 	c.le.s	$f10,$f8
    3268:	00000000 	nop
    326c:	45000032 	bc1f	3338 <func_8095213C+0x4bc>
    3270:	3c0e0000 	lui	t6,0x0
    3274:	91ce0000 	lbu	t6,0(t6)
    3278:	2412000f 	li	s2,15
    327c:	26841c24 	addiu	a0,s4,7204
    3280:	162e002d 	bne	s1,t6,3338 <func_8095213C+0x4bc>
    3284:	3c100000 	lui	s0,0x0
    3288:	3c110000 	lui	s1,0x0
    328c:	26310000 	addiu	s1,s1,0
    3290:	26100000 	addiu	s0,s0,0
    3294:	afa40050 	sw	a0,80(sp)
    3298:	c6100000 	lwc1	$f16,0(s0)
    329c:	c6720024 	lwc1	$f18,36(s3)
    32a0:	c6060004 	lwc1	$f6,4(s0)
    32a4:	86280000 	lh	t0,0(s1)
    32a8:	46128100 	add.s	$f4,$f16,$f18
    32ac:	c6100008 	lwc1	$f16,8(s0)
    32b0:	862b0002 	lh	t3,2(s1)
    32b4:	862f0004 	lh	t7,4(s1)
    32b8:	e7a40010 	swc1	$f4,16(sp)
    32bc:	c6680028 	lwc1	$f8,40(s3)
    32c0:	8fa40050 	lw	a0,80(sp)
    32c4:	02602825 	move	a1,s3
    32c8:	46083280 	add.s	$f10,$f6,$f8
    32cc:	02803025 	move	a2,s4
    32d0:	240700ba 	li	a3,186
    32d4:	e7aa0014 	swc1	$f10,20(sp)
    32d8:	c672002c 	lwc1	$f18,44(s3)
    32dc:	46128100 	add.s	$f4,$f16,$f18
    32e0:	e7a40018 	swc1	$f4,24(sp)
    32e4:	86690030 	lh	t1,48(s3)
    32e8:	01095021 	addu	t2,t0,t1
    32ec:	afaa001c 	sw	t2,28(sp)
    32f0:	866c0032 	lh	t4,50(s3)
    32f4:	016c6821 	addu	t5,t3,t4
    32f8:	afad0020 	sw	t5,32(sp)
    32fc:	86780034 	lh	t8,52(s3)
    3300:	afb20028 	sw	s2,40(sp)
    3304:	01f8c821 	addu	t9,t7,t8
    3308:	0c000000 	jal	0 <func_8094F2C0>
    330c:	afb90024 	sw	t9,36(sp)
    3310:	2652ffff 	addiu	s2,s2,-1
    3314:	2401000a 	li	at,10
    3318:	2610fff4 	addiu	s0,s0,-12
    331c:	1641ffde 	bne	s2,at,3298 <func_8095213C+0x41c>
    3320:	2631fffa 	addiu	s1,s1,-6
    3324:	3c0e0000 	lui	t6,0x0
    3328:	91ce0000 	lbu	t6,0(t6)
    332c:	3c010000 	lui	at,0x0
    3330:	25c80001 	addiu	t0,t6,1
    3334:	a0280000 	sb	t0,0(at)
    3338:	866901ac 	lh	t1,428(s3)
    333c:	252a0c31 	addiu	t2,t1,3121
    3340:	a66a01ac 	sh	t2,428(s3)
    3344:	0c000000 	jal	0 <func_8094F2C0>
    3348:	866401ac 	lh	a0,428(s3)
    334c:	3c010000 	lui	at,0x0
    3350:	c4260000 	lwc1	$f6,0(at)
    3354:	3c013f80 	lui	at,0x3f80
    3358:	44815000 	mtc1	at,$f10
    335c:	46060202 	mul.s	$f8,$f0,$f6
    3360:	866401ac 	lh	a0,428(s3)
    3364:	460a4400 	add.s	$f16,$f8,$f10
    3368:	0c000000 	jal	0 <func_8094F2C0>
    336c:	e67001a0 	swc1	$f16,416(s3)
    3370:	3c010000 	lui	at,0x0
    3374:	c4320000 	lwc1	$f18,0(at)
    3378:	3c013f80 	lui	at,0x3f80
    337c:	44813000 	mtc1	at,$f6
    3380:	46120102 	mul.s	$f4,$f0,$f18
    3384:	3c014120 	lui	at,0x4120
    3388:	02802025 	move	a0,s4
    338c:	02602825 	move	a1,s3
    3390:	24060001 	li	a2,1
    3394:	24070064 	li	a3,100
    3398:	240f0005 	li	t7,5
    339c:	46062200 	add.s	$f8,$f4,$f6
    33a0:	e66801a4 	swc1	$f8,420(s3)
    33a4:	8fab0054 	lw	t3,84(sp)
    33a8:	8d6c1de4 	lw	t4,7652(t3)
    33ac:	318d0003 	andi	t5,t4,0x3
    33b0:	55a0000b 	bnezl	t5,33e0 <func_8095213C+0x564>
    33b4:	8fb80058 	lw	t8,88(sp)
    33b8:	44810000 	mtc1	at,$f0
    33bc:	3c014248 	lui	at,0x4248
    33c0:	44815000 	mtc1	at,$f10
    33c4:	afaf0018 	sw	t7,24(sp)
    33c8:	afa00020 	sw	zero,32(sp)
    33cc:	e7a00014 	swc1	$f0,20(sp)
    33d0:	e7a0001c 	swc1	$f0,28(sp)
    33d4:	0c000000 	jal	0 <func_8094F2C0>
    33d8:	e7aa0010 	swc1	$f10,16(sp)
    33dc:	8fb80058 	lw	t8,88(sp)
    33e0:	3c0141a0 	lui	at,0x41a0
    33e4:	44819000 	mtc1	at,$f18
    33e8:	8f0e0000 	lw	t6,0(t8)
    33ec:	ae6e0038 	sw	t6,56(s3)
    33f0:	8f190004 	lw	t9,4(t8)
    33f4:	ae79003c 	sw	t9,60(s3)
    33f8:	c670003c 	lwc1	$f16,60(s3)
    33fc:	8f0e0008 	lw	t6,8(t8)
    3400:	46128100 	add.s	$f4,$f16,$f18
    3404:	ae6e0040 	sw	t6,64(s3)
    3408:	0c000000 	jal	0 <func_8094F2C0>
    340c:	e664003c 	swc1	$f4,60(s3)
    3410:	3c010000 	lui	at,0x0
    3414:	c4260000 	lwc1	$f6,0(at)
    3418:	02602025 	move	a0,s3
    341c:	4606003c 	c.lt.s	$f0,$f6
    3420:	00000000 	nop
    3424:	45020004 	bc1fl	3438 <func_8095213C+0x5bc>
    3428:	2670028c 	addiu	s0,s3,652
    342c:	0c000000 	jal	0 <func_8094F2C0>
    3430:	24053143 	li	a1,12611
    3434:	2670028c 	addiu	s0,s3,652
    3438:	02002825 	move	a1,s0
    343c:	0c000000 	jal	0 <func_8094F2C0>
    3440:	02602025 	move	a0,s3
    3444:	3c010001 	lui	at,0x1
    3448:	34211e60 	ori	at,at,0x1e60
    344c:	02818821 	addu	s1,s4,at
    3450:	02202825 	move	a1,s1
    3454:	02802025 	move	a0,s4
    3458:	0c000000 	jal	0 <func_8094F2C0>
    345c:	02003025 	move	a2,s0
    3460:	02802025 	move	a0,s4
    3464:	02202825 	move	a1,s1
    3468:	0c000000 	jal	0 <func_8094F2C0>
    346c:	02003025 	move	a2,s0
    3470:	8e680198 	lw	t0,408(s3)
    3474:	02802025 	move	a0,s4
    3478:	02202825 	move	a1,s1
    347c:	55000004 	bnezl	t0,3490 <func_8095213C+0x614>
    3480:	866901f8 	lh	t1,504(s3)
    3484:	0c000000 	jal	0 <func_8094F2C0>
    3488:	02003025 	move	a2,s0
    348c:	866901f8 	lh	t1,504(s3)
    3490:	3c010000 	lui	at,0x0
    3494:	c4300000 	lwc1	$f16,0(at)
    3498:	44894000 	mtc1	t1,$f8
    349c:	3c013f80 	lui	at,0x3f80
    34a0:	44812000 	mtc1	at,$f4
    34a4:	468042a0 	cvt.s.w	$f10,$f8
    34a8:	266400e4 	addiu	a0,s3,228
    34ac:	2405313c 	li	a1,12604
    34b0:	46105482 	mul.s	$f18,$f10,$f16
    34b4:	46049180 	add.s	$f6,$f18,$f4
    34b8:	44063000 	mfc1	a2,$f6
    34bc:	0c000000 	jal	0 <func_8094F2C0>
    34c0:	00000000 	nop
    34c4:	8fbf004c 	lw	ra,76(sp)
    34c8:	8fb00038 	lw	s0,56(sp)
    34cc:	8fb1003c 	lw	s1,60(sp)
    34d0:	8fb20040 	lw	s2,64(sp)
    34d4:	8fb30044 	lw	s3,68(sp)
    34d8:	8fb40048 	lw	s4,72(sp)
    34dc:	03e00008 	jr	ra
    34e0:	27bd0070 	addiu	sp,sp,112

000034e4 <func_809527A4>:
    34e4:	27bdffe8 	addiu	sp,sp,-24
    34e8:	afbf0014 	sw	ra,20(sp)
    34ec:	afa5001c 	sw	a1,28(sp)
    34f0:	8c8e0004 	lw	t6,4(a0)
    34f4:	a48001ac 	sh	zero,428(a0)
    34f8:	849801ac 	lh	t8,428(a0)
    34fc:	8499008a 	lh	t9,138(a0)
    3500:	35cf0001 	ori	t7,t6,0x1
    3504:	ac8f0004 	sw	t7,4(a0)
    3508:	a49801f8 	sh	t8,504(a0)
    350c:	a4990032 	sh	t9,50(a0)
    3510:	0c000000 	jal	0 <func_8094F2C0>
    3514:	afa40018 	sw	a0,24(sp)
    3518:	3c014316 	lui	at,0x4316
    351c:	44812000 	mtc1	at,$f4
    3520:	8fa40018 	lw	a0,24(sp)
    3524:	3c010000 	lui	at,0x0
    3528:	46040182 	mul.s	$f6,$f0,$f4
    352c:	240d0001 	li	t5,1
    3530:	240e0004 	li	t6,4
    3534:	44805000 	mtc1	zero,$f10
    3538:	3c050000 	lui	a1,0x0
    353c:	240fffe2 	li	t7,-30
    3540:	24180037 	li	t8,55
    3544:	4600320d 	trunc.w.s	$f8,$f6
    3548:	24a50000 	addiu	a1,a1,0
    354c:	440b4000 	mfc1	t3,$f8
    3550:	00000000 	nop
    3554:	256c012c 	addiu	t4,t3,300
    3558:	a48c019c 	sh	t4,412(a0)
    355c:	a02d0000 	sb	t5,0(at)
    3560:	3c010000 	lui	at,0x0
    3564:	a02e0000 	sb	t6,0(at)
    3568:	c49000bc 	lwc1	$f16,188(a0)
    356c:	46105032 	c.eq.s	$f10,$f16
    3570:	00000000 	nop
    3574:	45010002 	bc1t	3580 <func_809527A4+0x9c>
    3578:	00000000 	nop
    357c:	ac8f0198 	sw	t7,408(a0)
    3580:	0c000000 	jal	0 <func_8094F2C0>
    3584:	a49802cc 	sh	t8,716(a0)
    3588:	8fbf0014 	lw	ra,20(sp)
    358c:	27bd0018 	addiu	sp,sp,24
    3590:	03e00008 	jr	ra
    3594:	00000000 	nop

00003598 <func_80952858>:
    3598:	3c180000 	lui	t8,0x0
    359c:	93180000 	lbu	t8,0(t8)
    35a0:	3c01447a 	lui	at,0x447a
    35a4:	44814000 	mtc1	at,$f8
    35a8:	2719fff2 	addiu	t9,t8,-14
    35ac:	44992000 	mtc1	t9,$f4
    35b0:	27bdffa8 	addiu	sp,sp,-88
    35b4:	afbf0034 	sw	ra,52(sp)
    35b8:	468021a0 	cvt.s.w	$f6,$f4
    35bc:	afb00030 	sw	s0,48(sp)
    35c0:	afa5005c 	sw	a1,92(sp)
    35c4:	8caf1c44 	lw	t7,7236(a1)
    35c8:	00808025 	move	s0,a0
    35cc:	46083282 	mul.s	$f10,$f6,$f8
    35d0:	afaf0054 	sw	t7,84(sp)
    35d4:	848c01b0 	lh	t4,432(a0)
    35d8:	4600540d 	trunc.w.s	$f16,$f10
    35dc:	440b8000 	mfc1	t3,$f16
    35e0:	00000000 	nop
    35e4:	018b6821 	addu	t5,t4,t3
    35e8:	25ae0ce4 	addiu	t6,t5,3300
    35ec:	a48e01b0 	sh	t6,432(a0)
    35f0:	0c000000 	jal	0 <func_8094F2C0>
    35f4:	848401b0 	lh	a0,432(a0)
    35f8:	3c014248 	lui	at,0x4248
    35fc:	44819000 	mtc1	at,$f18
    3600:	9202029c 	lbu	v0,668(s0)
    3604:	46120102 	mul.s	$f4,$f0,$f18
    3608:	304a0002 	andi	t2,v0,0x2
    360c:	304cfffd 	andi	t4,v0,0xfffd
    3610:	4600218d 	trunc.w.s	$f6,$f4
    3614:	44083000 	mfc1	t0,$f6
    3618:	00000000 	nop
    361c:	25090096 	addiu	t1,t0,150
    3620:	1140001c 	beqz	t2,3694 <func_80952858+0xfc>
    3624:	a60901ae 	sh	t1,430(s0)
    3628:	a20c029c 	sb	t4,668(s0)
    362c:	8fab0054 	lw	t3,84(sp)
    3630:	8e0d0290 	lw	t5,656(s0)
    3634:	3c014100 	lui	at,0x4100
    3638:	8fa4005c 	lw	a0,92(sp)
    363c:	156d0015 	bne	t3,t5,3694 <func_80952858+0xfc>
    3640:	00000000 	nop
    3644:	44810000 	mtc1	at,$f0
    3648:	8607008a 	lh	a3,138(s0)
    364c:	02002825 	move	a1,s0
    3650:	44060000 	mfc1	a2,$f0
    3654:	0c000000 	jal	0 <func_8094F2C0>
    3658:	e7a00010 	swc1	$f0,16(sp)
    365c:	3c010000 	lui	at,0x0
    3660:	0c000000 	jal	0 <func_8094F2C0>
    3664:	c42c0000 	lwc1	$f12,0(at)
    3668:	4600020d 	trunc.w.s	$f8,$f0
    366c:	860e0032 	lh	t6,50(s0)
    3670:	34018000 	li	at,0x8000
    3674:	2405083e 	li	a1,2110
    3678:	44084000 	mfc1	t0,$f8
    367c:	00000000 	nop
    3680:	01c84821 	addu	t1,t6,t0
    3684:	01215021 	addu	t2,t1,at
    3688:	a60a0032 	sh	t2,50(s0)
    368c:	0c000000 	jal	0 <func_8094F2C0>
    3690:	8fa40054 	lw	a0,84(sp)
    3694:	0c000000 	jal	0 <func_8094F2C0>
    3698:	00000000 	nop
    369c:	3c010000 	lui	at,0x0
    36a0:	c42a0000 	lwc1	$f10,0(at)
    36a4:	02002025 	move	a0,s0
    36a8:	460a003c 	c.lt.s	$f0,$f10
    36ac:	00000000 	nop
    36b0:	45020004 	bc1fl	36c4 <func_80952858+0x12c>
    36b4:	9202029d 	lbu	v0,669(s0)
    36b8:	0c000000 	jal	0 <func_8094F2C0>
    36bc:	24053143 	li	a1,12611
    36c0:	9202029d 	lbu	v0,669(s0)
    36c4:	304c0002 	andi	t4,v0,0x2
    36c8:	1180006f 	beqz	t4,3888 <func_80952858+0x2f0>
    36cc:	304bfffd 	andi	t3,v0,0xfffd
    36d0:	8e0d0198 	lw	t5,408(s0)
    36d4:	44808000 	mtc1	zero,$f16
    36d8:	a20b029d 	sb	t3,669(s0)
    36dc:	05a0005b 	bltz	t5,384c <func_80952858+0x2b4>
    36e0:	e6100164 	swc1	$f16,356(s0)
    36e4:	820f0196 	lb	t7,406(s0)
    36e8:	15e00081 	bnez	t7,38f0 <func_80952858+0x358>
    36ec:	00000000 	nop
    36f0:	921900b1 	lbu	t9,177(s0)
    36f4:	24180008 	li	t8,8
    36f8:	24010001 	li	at,1
    36fc:	1321003a 	beq	t9,at,37e8 <func_80952858+0x250>
    3700:	a2180196 	sb	t8,406(s0)
    3704:	860e008a 	lh	t6,138(s0)
    3708:	02002025 	move	a0,s0
    370c:	2405393d 	li	a1,14653
    3710:	0c000000 	jal	0 <func_8094F2C0>
    3714:	a60e0032 	sh	t6,50(s0)
    3718:	2408000c 	li	t0,12
    371c:	afa80010 	sw	t0,16(sp)
    3720:	02002025 	move	a0,s0
    3724:	24054000 	li	a1,16384
    3728:	240600ff 	li	a2,255
    372c:	0c000000 	jal	0 <func_8094F2C0>
    3730:	00003825 	move	a3,zero
    3734:	3c020000 	lui	v0,0x0
    3738:	24420000 	addiu	v0,v0,0
    373c:	80490000 	lb	t1,0(v0)
    3740:	920a00b0 	lbu	t2,176(s0)
    3744:	3c030000 	lui	v1,0x0
    3748:	24630000 	addiu	v1,v1,0
    374c:	012a6023 	subu	t4,t1,t2
    3750:	a04c0000 	sb	t4,0(v0)
    3754:	804b0000 	lb	t3,0(v0)
    3758:	1d600065 	bgtz	t3,38f0 <func_80952858+0x358>
    375c:	00000000 	nop
    3760:	ae000198 	sw	zero,408(s0)
    3764:	906d0000 	lbu	t5,0(v1)
    3768:	80580000 	lb	t8,0(v0)
    376c:	02002025 	move	a0,s0
    3770:	25af0001 	addiu	t7,t5,1
    3774:	31ee00ff 	andi	t6,t7,0xff
    3778:	29c10012 	slti	at,t6,18
    377c:	27190003 	addiu	t9,t8,3
    3780:	a06f0000 	sb	t7,0(v1)
    3784:	14200008 	bnez	at,37a8 <func_80952858+0x210>
    3788:	a0590000 	sb	t9,0(v0)
    378c:	0c000000 	jal	0 <func_8094F2C0>
    3790:	8fa5005c 	lw	a1,92(sp)
    3794:	8fa4005c 	lw	a0,92(sp)
    3798:	0c000000 	jal	0 <func_8094F2C0>
    379c:	02002825 	move	a1,s0
    37a0:	1000023a 	b	408c <func_80952858+0xaf4>
    37a4:	8fbf0034 	lw	ra,52(sp)
    37a8:	3c01c120 	lui	at,0xc120
    37ac:	44819000 	mtc1	at,$f18
    37b0:	0c000000 	jal	0 <func_8094F2C0>
    37b4:	e6120068 	swc1	$f18,104(s0)
    37b8:	3c014316 	lui	at,0x4316
    37bc:	44812000 	mtc1	at,$f4
    37c0:	240bff56 	li	t3,-170
    37c4:	46040182 	mul.s	$f6,$f0,$f4
    37c8:	4600320d 	trunc.w.s	$f8,$f6
    37cc:	44094000 	mfc1	t1,$f8
    37d0:	00000000 	nop
    37d4:	00095400 	sll	t2,t1,0x10
    37d8:	000a6403 	sra	t4,t2,0x10
    37dc:	016c6823 	subu	t5,t3,t4
    37e0:	10000043 	b	38f0 <func_80952858+0x358>
    37e4:	ae0d0198 	sw	t5,408(s0)
    37e8:	3c014220 	lui	at,0x4220
    37ec:	44816000 	mtc1	at,$f12
    37f0:	0c000000 	jal	0 <func_8094F2C0>
    37f4:	00000000 	nop
    37f8:	4600028d 	trunc.w.s	$f10,$f0
    37fc:	44808000 	mtc1	zero,$f16
    3800:	a60001f8 	sh	zero,504(s0)
    3804:	240900ff 	li	t1,255
    3808:	44185000 	mfc1	t8,$f10
    380c:	e6100068 	swc1	$f16,104(s0)
    3810:	02002025 	move	a0,s0
    3814:	0018cc00 	sll	t9,t8,0x10
    3818:	00197403 	sra	t6,t9,0x10
    381c:	25c800a0 	addiu	t0,t6,160
    3820:	ae080198 	sw	t0,408(s0)
    3824:	afa90010 	sw	t1,16(sp)
    3828:	00002825 	move	a1,zero
    382c:	2406007d 	li	a2,125
    3830:	0c000000 	jal	0 <func_8094F2C0>
    3834:	00003825 	move	a3,zero
    3838:	02002025 	move	a0,s0
    383c:	0c000000 	jal	0 <func_8094F2C0>
    3840:	2405393e 	li	a1,14654
    3844:	1000002a 	b	38f0 <func_80952858+0x358>
    3848:	00000000 	nop
    384c:	8e030294 	lw	v1,660(s0)
    3850:	24010032 	li	at,50
    3854:	02002025 	move	a0,s0
    3858:	846a0000 	lh	t2,0(v1)
    385c:	15410024 	bne	t2,at,38f0 <func_80952858+0x358>
    3860:	00000000 	nop
    3864:	a06001d4 	sb	zero,468(v1)
    3868:	8fab0054 	lw	t3,84(sp)
    386c:	846c008a 	lh	t4,138(v1)
    3870:	24051808 	li	a1,6152
    3874:	ac6b01cc 	sw	t3,460(v1)
    3878:	0c000000 	jal	0 <func_8094F2C0>
    387c:	a46c0032 	sh	t4,50(v1)
    3880:	1000001b 	b	38f0 <func_80952858+0x358>
    3884:	00000000 	nop
    3888:	8602019c 	lh	v0,412(s0)
    388c:	14400015 	bnez	v0,38e4 <func_80952858+0x34c>
    3890:	00000000 	nop
    3894:	44809000 	mtc1	zero,$f18
    3898:	c60400bc 	lwc1	$f4,188(s0)
    389c:	46049032 	c.eq.s	$f18,$f4
    38a0:	00000000 	nop
    38a4:	4500000f 	bc1f	38e4 <func_80952858+0x34c>
    38a8:	00000000 	nop
    38ac:	0c000000 	jal	0 <func_8094F2C0>
    38b0:	00000000 	nop
    38b4:	3c014348 	lui	at,0x4348
    38b8:	44813000 	mtc1	at,$f6
    38bc:	240eff24 	li	t6,-220
    38c0:	46060202 	mul.s	$f8,$f0,$f6
    38c4:	4600428d 	trunc.w.s	$f10,$f8
    38c8:	440f5000 	mfc1	t7,$f10
    38cc:	00000000 	nop
    38d0:	000fc400 	sll	t8,t7,0x10
    38d4:	0018cc03 	sra	t9,t8,0x10
    38d8:	01d94023 	subu	t0,t6,t9
    38dc:	10000004 	b	38f0 <func_80952858+0x358>
    38e0:	ae080198 	sw	t0,408(s0)
    38e4:	10400002 	beqz	v0,38f0 <func_80952858+0x358>
    38e8:	2449ffff 	addiu	t1,v0,-1
    38ec:	a609019c 	sh	t1,412(s0)
    38f0:	0c000000 	jal	0 <func_8094F2C0>
    38f4:	2604014c 	addiu	a0,s0,332
    38f8:	8e0a0198 	lw	t2,408(s0)
    38fc:	15400057 	bnez	t2,3a5c <func_80952858+0x4c4>
    3900:	3c0b0000 	lui	t3,0x0
    3904:	916b0000 	lbu	t3,0(t3)
    3908:	3c0140a0 	lui	at,0x40a0
    390c:	44812000 	mtc1	at,$f4
    3910:	256cfff2 	addiu	t4,t3,-14
    3914:	448c8000 	mtc1	t4,$f16
    3918:	3c014120 	lui	at,0x4120
    391c:	44814000 	mtc1	at,$f8
    3920:	468084a0 	cvt.s.w	$f18,$f16
    3924:	44800000 	mtc1	zero,$f0
    3928:	260400bc 	addiu	a0,s0,188
    392c:	3c063f80 	lui	a2,0x3f80
    3930:	44050000 	mfc1	a1,$f0
    3934:	e7a00010 	swc1	$f0,16(sp)
    3938:	46049182 	mul.s	$f6,$f18,$f4
    393c:	46083280 	add.s	$f10,$f6,$f8
    3940:	44075000 	mfc1	a3,$f10
    3944:	0c000000 	jal	0 <func_8094F2C0>
    3948:	00000000 	nop
    394c:	3c0d0000 	lui	t5,0x0
    3950:	91ad0000 	lbu	t5,0(t5)
    3954:	3c0143fa 	lui	at,0x43fa
    3958:	44812000 	mtc1	at,$f4
    395c:	25affff2 	addiu	t7,t5,-14
    3960:	448f8000 	mtc1	t7,$f16
    3964:	260401f8 	addiu	a0,s0,504
    3968:	24060001 	li	a2,1
    396c:	468084a0 	cvt.s.w	$f18,$f16
    3970:	2407012c 	li	a3,300
    3974:	afa00010 	sw	zero,16(sp)
    3978:	46049182 	mul.s	$f6,$f18,$f4
    397c:	4600320d 	trunc.w.s	$f8,$f6
    3980:	44054000 	mfc1	a1,$f8
    3984:	00000000 	nop
    3988:	00052c00 	sll	a1,a1,0x10
    398c:	00052c03 	sra	a1,a1,0x10
    3990:	24a50fa0 	addiu	a1,a1,4000
    3994:	00052c00 	sll	a1,a1,0x10
    3998:	0c000000 	jal	0 <func_8094F2C0>
    399c:	00052c03 	sra	a1,a1,0x10
    39a0:	54400028 	bnezl	v0,3a44 <func_80952858+0x4ac>
    39a4:	240f0010 	li	t7,16
    39a8:	44805000 	mtc1	zero,$f10
    39ac:	c6100068 	lwc1	$f16,104(s0)
    39b0:	46105032 	c.eq.s	$f10,$f16
    39b4:	00000000 	nop
    39b8:	4500000e 	bc1f	39f4 <func_80952858+0x45c>
    39bc:	00000000 	nop
    39c0:	860e008a 	lh	t6,138(s0)
    39c4:	a2000114 	sb	zero,276(s0)
    39c8:	0c000000 	jal	0 <func_8094F2C0>
    39cc:	a60e0032 	sh	t6,50(s0)
    39d0:	3c014316 	lui	at,0x4316
    39d4:	44819000 	mtc1	at,$f18
    39d8:	00000000 	nop
    39dc:	46120102 	mul.s	$f4,$f0,$f18
    39e0:	4600218d 	trunc.w.s	$f6,$f4
    39e4:	440a3000 	mfc1	t2,$f6
    39e8:	00000000 	nop
    39ec:	254b012c 	addiu	t3,t2,300
    39f0:	a60b019c 	sh	t3,412(s0)
    39f4:	3c0c0000 	lui	t4,0x0
    39f8:	918c0000 	lbu	t4,0(t4)
    39fc:	3c013fc0 	lui	at,0x3fc0
    3a00:	44818000 	mtc1	at,$f16
    3a04:	258dfff2 	addiu	t5,t4,-14
    3a08:	448d4000 	mtc1	t5,$f8
    3a0c:	3c014080 	lui	at,0x4080
    3a10:	44812000 	mtc1	at,$f4
    3a14:	468042a0 	cvt.s.w	$f10,$f8
    3a18:	44804000 	mtc1	zero,$f8
    3a1c:	26040068 	addiu	a0,s0,104
    3a20:	3c063f80 	lui	a2,0x3f80
    3a24:	3c073e80 	lui	a3,0x3e80
    3a28:	e7a80010 	swc1	$f8,16(sp)
    3a2c:	46105482 	mul.s	$f18,$f10,$f16
    3a30:	46049180 	add.s	$f6,$f18,$f4
    3a34:	44053000 	mfc1	a1,$f6
    3a38:	0c000000 	jal	0 <func_8094F2C0>
    3a3c:	00000000 	nop
    3a40:	240f0010 	li	t7,16
    3a44:	ae0f02ac 	sw	t7,684(s0)
    3a48:	8fb8005c 	lw	t8,92(sp)
    3a4c:	3c010001 	lui	at,0x1
    3a50:	03017021 	addu	t6,t8,at
    3a54:	10000095 	b	3cac <func_80952858+0x714>
    3a58:	afae0040 	sw	t6,64(sp)
    3a5c:	260401f8 	addiu	a0,s0,504
    3a60:	afa4003c 	sw	a0,60(sp)
    3a64:	00002825 	move	a1,zero
    3a68:	24060001 	li	a2,1
    3a6c:	24070096 	li	a3,150
    3a70:	0c000000 	jal	0 <func_8094F2C0>
    3a74:	afa00010 	sw	zero,16(sp)
    3a78:	8e030198 	lw	v1,408(s0)
    3a7c:	8fb90054 	lw	t9,84(sp)
    3a80:	260400bc 	addiu	a0,s0,188
    3a84:	18600019 	blez	v1,3aec <func_80952858+0x554>
    3a88:	8fae0054 	lw	t6,84(sp)
    3a8c:	8f28067c 	lw	t0,1660(t9)
    3a90:	44805000 	mtc1	zero,$f10
    3a94:	3c05c3f0 	lui	a1,0xc3f0
    3a98:	00084940 	sll	t1,t0,0x5
    3a9c:	05210005 	bgez	t1,3ab4 <func_80952858+0x51c>
    3aa0:	3c063f80 	lui	a2,0x3f80
    3aa4:	28610024 	slti	at,v1,36
    3aa8:	14200002 	bnez	at,3ab4 <func_80952858+0x51c>
    3aac:	240a0023 	li	t2,35
    3ab0:	ae0a0198 	sw	t2,408(s0)
    3ab4:	3c0741f0 	lui	a3,0x41f0
    3ab8:	0c000000 	jal	0 <func_8094F2C0>
    3abc:	e7aa0010 	swc1	$f10,16(sp)
    3ac0:	8e0c0198 	lw	t4,408(s0)
    3ac4:	3c0b0fc0 	lui	t3,0xfc0
    3ac8:	356b0712 	ori	t3,t3,0x712
    3acc:	258dffff 	addiu	t5,t4,-1
    3ad0:	ae0b02ac 	sw	t3,684(s0)
    3ad4:	ae0d0198 	sw	t5,408(s0)
    3ad8:	8faf005c 	lw	t7,92(sp)
    3adc:	3c010001 	lui	at,0x1
    3ae0:	01e1c021 	addu	t8,t7,at
    3ae4:	10000071 	b	3cac <func_80952858+0x714>
    3ae8:	afb80040 	sw	t8,64(sp)
    3aec:	8dd9067c 	lw	t9,1660(t6)
    3af0:	2861ffc4 	slti	at,v1,-60
    3af4:	02002825 	move	a1,s0
    3af8:	00194140 	sll	t0,t9,0x5
    3afc:	05010004 	bgez	t0,3b10 <func_80952858+0x578>
    3b00:	24060002 	li	a2,2
    3b04:	10200002 	beqz	at,3b10 <func_80952858+0x578>
    3b08:	2409ffc5 	li	t1,-59
    3b0c:	ae090198 	sw	t1,408(s0)
    3b10:	8faa005c 	lw	t2,92(sp)
    3b14:	3c010001 	lui	at,0x1
    3b18:	3c0c0001 	lui	t4,0x1
    3b1c:	01415821 	addu	t3,t2,at
    3b20:	afab0040 	sw	t3,64(sp)
    3b24:	018a6021 	addu	t4,t4,t2
    3b28:	8d8c1de4 	lw	t4,7652(t4)
    3b2c:	3c01435c 	lui	at,0x435c
    3b30:	24070064 	li	a3,100
    3b34:	318d0003 	andi	t5,t4,0x3
    3b38:	15a0000e 	bnez	t5,3b74 <func_80952858+0x5dc>
    3b3c:	01402025 	move	a0,t2
    3b40:	44818000 	mtc1	at,$f16
    3b44:	3c0140a0 	lui	at,0x40a0
    3b48:	44819000 	mtc1	at,$f18
    3b4c:	3c014140 	lui	at,0x4140
    3b50:	44812000 	mtc1	at,$f4
    3b54:	240f0005 	li	t7,5
    3b58:	24180001 	li	t8,1
    3b5c:	afb80020 	sw	t8,32(sp)
    3b60:	afaf0018 	sw	t7,24(sp)
    3b64:	e7b00010 	swc1	$f16,16(sp)
    3b68:	e7b20014 	swc1	$f18,20(sp)
    3b6c:	0c000000 	jal	0 <func_8094F2C0>
    3b70:	e7a4001c 	swc1	$f4,28(sp)
    3b74:	8e0e0198 	lw	t6,408(s0)
    3b78:	29c1ffe2 	slti	at,t6,-30
    3b7c:	50200017 	beqzl	at,3bdc <func_80952858+0x644>
    3b80:	44809000 	mtc1	zero,$f18
    3b84:	44803000 	mtc1	zero,$f6
    3b88:	c6080068 	lwc1	$f8,104(s0)
    3b8c:	26040068 	addiu	a0,s0,104
    3b90:	24050000 	li	a1,0
    3b94:	4608303c 	c.lt.s	$f6,$f8
    3b98:	3c063f80 	lui	a2,0x3f80
    3b9c:	45020006 	bc1fl	3bb8 <func_80952858+0x620>
    3ba0:	44808000 	mtc1	zero,$f16
    3ba4:	44805000 	mtc1	zero,$f10
    3ba8:	3c073f00 	lui	a3,0x3f00
    3bac:	0c000000 	jal	0 <func_8094F2C0>
    3bb0:	e7aa0010 	swc1	$f10,16(sp)
    3bb4:	44808000 	mtc1	zero,$f16
    3bb8:	260400bc 	addiu	a0,s0,188
    3bbc:	3c05c4af 	lui	a1,0xc4af
    3bc0:	3c063f80 	lui	a2,0x3f80
    3bc4:	3c074270 	lui	a3,0x4270
    3bc8:	0c000000 	jal	0 <func_8094F2C0>
    3bcc:	e7b00010 	swc1	$f16,16(sp)
    3bd0:	10000034 	b	3ca4 <func_80952858+0x70c>
    3bd4:	8e0e0198 	lw	t6,408(s0)
    3bd8:	44809000 	mtc1	zero,$f18
    3bdc:	c6040068 	lwc1	$f4,104(s0)
    3be0:	46049032 	c.eq.s	$f18,$f4
    3be4:	00000000 	nop
    3be8:	45020010 	bc1fl	3c2c <func_80952858+0x694>
    3bec:	8fa4003c 	lw	a0,60(sp)
    3bf0:	8619008a 	lh	t9,138(s0)
    3bf4:	34018000 	li	at,0x8000
    3bf8:	03214021 	addu	t0,t9,at
    3bfc:	0c000000 	jal	0 <func_8094F2C0>
    3c00:	a6080032 	sh	t0,50(s0)
    3c04:	3c014316 	lui	at,0x4316
    3c08:	44813000 	mtc1	at,$f6
    3c0c:	00000000 	nop
    3c10:	46060202 	mul.s	$f8,$f0,$f6
    3c14:	4600428d 	trunc.w.s	$f10,$f8
    3c18:	440d5000 	mfc1	t5,$f10
    3c1c:	00000000 	nop
    3c20:	25aa014a 	addiu	t2,t5,330
    3c24:	a60a019c 	sh	t2,412(s0)
    3c28:	8fa4003c 	lw	a0,60(sp)
    3c2c:	24050fa0 	li	a1,4000
    3c30:	24060001 	li	a2,1
    3c34:	240701f4 	li	a3,500
    3c38:	0c000000 	jal	0 <func_8094F2C0>
    3c3c:	afa00010 	sw	zero,16(sp)
    3c40:	3c0f0000 	lui	t7,0x0
    3c44:	91ef0000 	lbu	t7,0(t7)
    3c48:	3c014080 	lui	at,0x4080
    3c4c:	44812000 	mtc1	at,$f4
    3c50:	25f8fff2 	addiu	t8,t7,-14
    3c54:	44988000 	mtc1	t8,$f16
    3c58:	44804000 	mtc1	zero,$f8
    3c5c:	26040068 	addiu	a0,s0,104
    3c60:	46808020 	cvt.s.w	$f0,$f16
    3c64:	3c063f80 	lui	a2,0x3f80
    3c68:	3c073e80 	lui	a3,0x3e80
    3c6c:	e7a80010 	swc1	$f8,16(sp)
    3c70:	46000480 	add.s	$f18,$f0,$f0
    3c74:	46049180 	add.s	$f6,$f18,$f4
    3c78:	44053000 	mfc1	a1,$f6
    3c7c:	0c000000 	jal	0 <func_8094F2C0>
    3c80:	00000000 	nop
    3c84:	44805000 	mtc1	zero,$f10
    3c88:	260400bc 	addiu	a0,s0,188
    3c8c:	24050000 	li	a1,0
    3c90:	3c063f80 	lui	a2,0x3f80
    3c94:	3c0741a0 	lui	a3,0x41a0
    3c98:	0c000000 	jal	0 <func_8094F2C0>
    3c9c:	e7aa0010 	swc1	$f10,16(sp)
    3ca0:	8e0e0198 	lw	t6,408(s0)
    3ca4:	25d90001 	addiu	t9,t6,1
    3ca8:	ae190198 	sw	t9,408(s0)
    3cac:	44800000 	mtc1	zero,$f0
    3cb0:	c6100068 	lwc1	$f16,104(s0)
    3cb4:	860800b6 	lh	t0,182(s0)
    3cb8:	860901f8 	lh	t1,504(s0)
    3cbc:	4600803c 	c.lt.s	$f16,$f0
    3cc0:	01095821 	addu	t3,t0,t1
    3cc4:	a60b00b6 	sh	t3,182(s0)
    3cc8:	45020008 	bc1fl	3cec <func_80952858+0x754>
    3ccc:	860c01ac 	lh	t4,428(s0)
    3cd0:	44050000 	mfc1	a1,$f0
    3cd4:	26040068 	addiu	a0,s0,104
    3cd8:	3c063f80 	lui	a2,0x3f80
    3cdc:	3c073f00 	lui	a3,0x3f00
    3ce0:	0c000000 	jal	0 <func_8094F2C0>
    3ce4:	e7a00010 	swc1	$f0,16(sp)
    3ce8:	860c01ac 	lh	t4,428(s0)
    3cec:	258d0c31 	addiu	t5,t4,3121
    3cf0:	a60d01ac 	sh	t5,428(s0)
    3cf4:	0c000000 	jal	0 <func_8094F2C0>
    3cf8:	860401ac 	lh	a0,428(s0)
    3cfc:	3c010000 	lui	at,0x0
    3d00:	c4320000 	lwc1	$f18,0(at)
    3d04:	3c013f80 	lui	at,0x3f80
    3d08:	44813000 	mtc1	at,$f6
    3d0c:	46120102 	mul.s	$f4,$f0,$f18
    3d10:	860401ac 	lh	a0,428(s0)
    3d14:	46062200 	add.s	$f8,$f4,$f6
    3d18:	0c000000 	jal	0 <func_8094F2C0>
    3d1c:	e60801a0 	swc1	$f8,416(s0)
    3d20:	3c010000 	lui	at,0x0
    3d24:	c42a0000 	lwc1	$f10,0(at)
    3d28:	3c013f80 	lui	at,0x3f80
    3d2c:	44819000 	mtc1	at,$f18
    3d30:	460a0402 	mul.s	$f16,$f0,$f10
    3d34:	96020088 	lhu	v0,136(s0)
    3d38:	3c010000 	lui	at,0x0
    3d3c:	304a0008 	andi	t2,v0,0x8
    3d40:	304ffff7 	andi	t7,v0,0xfff7
    3d44:	46128100 	add.s	$f4,$f16,$f18
    3d48:	1140000a 	beqz	t2,3d74 <func_80952858+0x7dc>
    3d4c:	e60401a4 	swc1	$f4,420(s0)
    3d50:	a60f0088 	sh	t7,136(s0)
    3d54:	0c000000 	jal	0 <func_8094F2C0>
    3d58:	c42c0000 	lwc1	$f12,0(at)
    3d5c:	4600018d 	trunc.w.s	$f6,$f0
    3d60:	8609007e 	lh	t1,126(s0)
    3d64:	44083000 	mfc1	t0,$f6
    3d68:	00000000 	nop
    3d6c:	01095821 	addu	t3,t0,t1
    3d70:	a60b0032 	sh	t3,50(s0)
    3d74:	3c0c0000 	lui	t4,0x0
    3d78:	918c0000 	lbu	t4,0(t4)
    3d7c:	26060024 	addiu	a2,s0,36
    3d80:	00c02025 	move	a0,a2
    3d84:	29810010 	slti	at,t4,16
    3d88:	1020003f 	beqz	at,3e88 <func_80952858+0x8f0>
    3d8c:	26050008 	addiu	a1,s0,8
    3d90:	afa50038 	sw	a1,56(sp)
    3d94:	0c000000 	jal	0 <func_8094F2C0>
    3d98:	afa6003c 	sw	a2,60(sp)
    3d9c:	3c0143c8 	lui	at,0x43c8
    3da0:	44814000 	mtc1	at,$f8
    3da4:	8fa50038 	lw	a1,56(sp)
    3da8:	8fa6003c 	lw	a2,60(sp)
    3dac:	4600403e 	c.le.s	$f8,$f0
    3db0:	8fad0054 	lw	t5,84(sp)
    3db4:	4502000d 	bc1fl	3dec <func_80952858+0x854>
    3db8:	81aa0a78 	lb	t2,2680(t5)
    3dbc:	0c000000 	jal	0 <func_8094F2C0>
    3dc0:	00c02025 	move	a0,a2
    3dc4:	00022c00 	sll	a1,v0,0x10
    3dc8:	00052c03 	sra	a1,a1,0x10
    3dcc:	26040032 	addiu	a0,s0,50
    3dd0:	24060001 	li	a2,1
    3dd4:	240705dc 	li	a3,1500
    3dd8:	0c000000 	jal	0 <func_8094F2C0>
    3ddc:	afa00010 	sw	zero,16(sp)
    3de0:	1000002a 	b	3e8c <func_80952858+0x8f4>
    3de4:	26060024 	addiu	a2,s0,36
    3de8:	81aa0a78 	lb	t2,2680(t5)
    3dec:	26040032 	addiu	a0,s0,50
    3df0:	34018000 	li	at,0x8000
    3df4:	1140000b 	beqz	t2,3e24 <func_80952858+0x88c>
    3df8:	8faf0040 	lw	t7,64(sp)
    3dfc:	8605008a 	lh	a1,138(s0)
    3e00:	afa00010 	sw	zero,16(sp)
    3e04:	24060001 	li	a2,1
    3e08:	00a12821 	addu	a1,a1,at
    3e0c:	00052c00 	sll	a1,a1,0x10
    3e10:	00052c03 	sra	a1,a1,0x10
    3e14:	0c000000 	jal	0 <func_8094F2C0>
    3e18:	2407012c 	li	a3,300
    3e1c:	1000001b 	b	3e8c <func_80952858+0x8f4>
    3e20:	26060024 	addiu	a2,s0,36
    3e24:	8df81de4 	lw	t8,7652(t7)
    3e28:	3c190000 	lui	t9,0x0
    3e2c:	330e0080 	andi	t6,t8,0x80
    3e30:	55c00016 	bnezl	t6,3e8c <func_80952858+0x8f4>
    3e34:	26060024 	addiu	a2,s0,36
    3e38:	93390000 	lbu	t9,0(t9)
    3e3c:	3c0142c8 	lui	at,0x42c8
    3e40:	44819000 	mtc1	at,$f18
    3e44:	2728fff2 	addiu	t0,t9,-14
    3e48:	44885000 	mtc1	t0,$f10
    3e4c:	8605008a 	lh	a1,138(s0)
    3e50:	afa00010 	sw	zero,16(sp)
    3e54:	46805420 	cvt.s.w	$f16,$f10
    3e58:	26040032 	addiu	a0,s0,50
    3e5c:	24060001 	li	a2,1
    3e60:	46128102 	mul.s	$f4,$f16,$f18
    3e64:	4600218d 	trunc.w.s	$f6,$f4
    3e68:	44073000 	mfc1	a3,$f6
    3e6c:	00000000 	nop
    3e70:	00073c00 	sll	a3,a3,0x10
    3e74:	00073c03 	sra	a3,a3,0x10
    3e78:	24e70064 	addiu	a3,a3,100
    3e7c:	00073c00 	sll	a3,a3,0x10
    3e80:	0c000000 	jal	0 <func_8094F2C0>
    3e84:	00073c03 	sra	a3,a3,0x10
    3e88:	26060024 	addiu	a2,s0,36
    3e8c:	afa6003c 	sw	a2,60(sp)
    3e90:	0c000000 	jal	0 <func_8094F2C0>
    3e94:	02002025 	move	a0,s0
    3e98:	8fa6003c 	lw	a2,60(sp)
    3e9c:	3c014270 	lui	at,0x4270
    3ea0:	44815000 	mtc1	at,$f10
    3ea4:	8ccc0000 	lw	t4,0(a2)
    3ea8:	ae0c0038 	sw	t4,56(s0)
    3eac:	8ccb0004 	lw	t3,4(a2)
    3eb0:	ae0b003c 	sw	t3,60(s0)
    3eb4:	c608003c 	lwc1	$f8,60(s0)
    3eb8:	8ccc0008 	lw	t4,8(a2)
    3ebc:	460a4400 	add.s	$f16,$f8,$f10
    3ec0:	ae0c0040 	sw	t4,64(s0)
    3ec4:	e610003c 	swc1	$f16,60(s0)
    3ec8:	8fad0040 	lw	t5,64(sp)
    3ecc:	8daa1de4 	lw	t2,7652(t5)
    3ed0:	314f0001 	andi	t7,t2,0x1
    3ed4:	55e00025 	bnezl	t7,3f6c <func_80952858+0x9d4>
    3ed8:	44805000 	mtc1	zero,$f10
    3edc:	8e180198 	lw	t8,408(s0)
    3ee0:	3c014120 	lui	at,0x4120
    3ee4:	8fa4005c 	lw	a0,92(sp)
    3ee8:	1700001f 	bnez	t8,3f68 <func_80952858+0x9d0>
    3eec:	02002825 	move	a1,s0
    3ef0:	44810000 	mtc1	at,$f0
    3ef4:	3c014220 	lui	at,0x4220
    3ef8:	44819000 	mtc1	at,$f18
    3efc:	240e0005 	li	t6,5
    3f00:	afae0018 	sw	t6,24(sp)
    3f04:	24060002 	li	a2,2
    3f08:	2407007d 	li	a3,125
    3f0c:	afa00020 	sw	zero,32(sp)
    3f10:	e7a00014 	swc1	$f0,20(sp)
    3f14:	e7a0001c 	swc1	$f0,28(sp)
    3f18:	0c000000 	jal	0 <func_8094F2C0>
    3f1c:	e7b20010 	swc1	$f18,16(sp)
    3f20:	3c014170 	lui	at,0x4170
    3f24:	44812000 	mtc1	at,$f4
    3f28:	3c014120 	lui	at,0x4120
    3f2c:	44813000 	mtc1	at,$f6
    3f30:	3c014130 	lui	at,0x4130
    3f34:	44814000 	mtc1	at,$f8
    3f38:	24190002 	li	t9,2
    3f3c:	24080001 	li	t0,1
    3f40:	afa80020 	sw	t0,32(sp)
    3f44:	afb90018 	sw	t9,24(sp)
    3f48:	8fa4005c 	lw	a0,92(sp)
    3f4c:	02002825 	move	a1,s0
    3f50:	24060001 	li	a2,1
    3f54:	24070064 	li	a3,100
    3f58:	e7a40010 	swc1	$f4,16(sp)
    3f5c:	e7a60014 	swc1	$f6,20(sp)
    3f60:	0c000000 	jal	0 <func_8094F2C0>
    3f64:	e7a8001c 	swc1	$f8,28(sp)
    3f68:	44805000 	mtc1	zero,$f10
    3f6c:	24090001 	li	t1,1
    3f70:	afa90014 	sw	t1,20(sp)
    3f74:	8fa4005c 	lw	a0,92(sp)
    3f78:	02002825 	move	a1,s0
    3f7c:	3c0641f0 	lui	a2,0x41f0
    3f80:	3c07428c 	lui	a3,0x428c
    3f84:	0c000000 	jal	0 <func_8094F2C0>
    3f88:	e7aa0010 	swc1	$f10,16(sp)
    3f8c:	2605028c 	addiu	a1,s0,652
    3f90:	afa5003c 	sw	a1,60(sp)
    3f94:	0c000000 	jal	0 <func_8094F2C0>
    3f98:	02002025 	move	a0,s0
    3f9c:	8fa4005c 	lw	a0,92(sp)
    3fa0:	3c010001 	lui	at,0x1
    3fa4:	34211e60 	ori	at,at,0x1e60
    3fa8:	00812821 	addu	a1,a0,at
    3fac:	afa50038 	sw	a1,56(sp)
    3fb0:	0c000000 	jal	0 <func_8094F2C0>
    3fb4:	8fa6003c 	lw	a2,60(sp)
    3fb8:	820b0196 	lb	t3,406(s0)
    3fbc:	8fa4005c 	lw	a0,92(sp)
    3fc0:	8fa50038 	lw	a1,56(sp)
    3fc4:	55600004 	bnezl	t3,3fd8 <func_80952858+0xa40>
    3fc8:	860301f8 	lh	v1,504(s0)
    3fcc:	0c000000 	jal	0 <func_8094F2C0>
    3fd0:	8fa6003c 	lw	a2,60(sp)
    3fd4:	860301f8 	lh	v1,504(s0)
    3fd8:	8fa4005c 	lw	a0,92(sp)
    3fdc:	8fa50038 	lw	a1,56(sp)
    3fe0:	286103e9 	slti	at,v1,1001
    3fe4:	10200007 	beqz	at,4004 <func_80952858+0xa6c>
    3fe8:	3c01c496 	lui	at,0xc496
    3fec:	44819000 	mtc1	at,$f18
    3ff0:	c61000bc 	lwc1	$f16,188(s0)
    3ff4:	4612803c 	c.lt.s	$f16,$f18
    3ff8:	00000000 	nop
    3ffc:	45020005 	bc1fl	4014 <func_80952858+0xa7c>
    4000:	44832000 	mtc1	v1,$f4
    4004:	0c000000 	jal	0 <func_8094F2C0>
    4008:	8fa6003c 	lw	a2,60(sp)
    400c:	860301f8 	lh	v1,504(s0)
    4010:	44832000 	mtc1	v1,$f4
    4014:	3c010000 	lui	at,0x0
    4018:	c4280000 	lwc1	$f8,0(at)
    401c:	468021a0 	cvt.s.w	$f6,$f4
    4020:	3c013f80 	lui	at,0x3f80
    4024:	44818000 	mtc1	at,$f16
    4028:	260400e4 	addiu	a0,s0,228
    402c:	2405313c 	li	a1,12604
    4030:	46083282 	mul.s	$f10,$f6,$f8
    4034:	46105480 	add.s	$f18,$f10,$f16
    4038:	44069000 	mfc1	a2,$f18
    403c:	0c000000 	jal	0 <func_8094F2C0>
    4040:	00000000 	nop
    4044:	82020196 	lb	v0,406(s0)
    4048:	3c030000 	lui	v1,0x0
    404c:	24630000 	addiu	v1,v1,0
    4050:	10400009 	beqz	v0,4078 <func_80952858+0xae0>
    4054:	244cffff 	addiu	t4,v0,-1
    4058:	3c030000 	lui	v1,0x0
    405c:	24630000 	addiu	v1,v1,0
    4060:	a20c0196 	sb	t4,406(s0)
    4064:	906d0000 	lbu	t5,0(v1)
    4068:	31aa0080 	andi	t2,t5,0x80
    406c:	354f0002 	ori	t7,t2,0x2
    4070:	10000005 	b	4088 <func_80952858+0xaf0>
    4074:	a06f0000 	sb	t7,0(v1)
    4078:	90780000 	lbu	t8,0(v1)
    407c:	330e0080 	andi	t6,t8,0x80
    4080:	35d90001 	ori	t9,t6,0x1
    4084:	a0790000 	sb	t9,0(v1)
    4088:	8fbf0034 	lw	ra,52(sp)
    408c:	8fb00030 	lw	s0,48(sp)
    4090:	27bd0058 	addiu	sp,sp,88
    4094:	03e00008 	jr	ra
    4098:	00000000 	nop

0000409c <func_8095335C>:
    409c:	27bdffe0 	addiu	sp,sp,-32
    40a0:	afb00018 	sw	s0,24(sp)
    40a4:	00808025 	move	s0,a0
    40a8:	afbf001c 	sw	ra,28(sp)
    40ac:	afa50024 	sw	a1,36(sp)
    40b0:	2405313c 	li	a1,12604
    40b4:	248400e4 	addiu	a0,a0,228
    40b8:	0c000000 	jal	0 <func_8094F2C0>
    40bc:	3c063f80 	lui	a2,0x3f80
    40c0:	8e0e0004 	lw	t6,4(s0)
    40c4:	2401fffa 	li	at,-6
    40c8:	3c041001 	lui	a0,0x1001
    40cc:	01c17824 	and	t7,t6,at
    40d0:	ae0f0004 	sw	t7,4(s0)
    40d4:	0c000000 	jal	0 <func_8094F2C0>
    40d8:	348400ff 	ori	a0,a0,0xff
    40dc:	8fa40024 	lw	a0,36(sp)
    40e0:	44800000 	mtc1	zero,$f0
    40e4:	24180c31 	li	t8,3121
    40e8:	a61801f6 	sh	t8,502(s0)
    40ec:	2419000e 	li	t9,14
    40f0:	3c010000 	lui	at,0x0
    40f4:	a0390000 	sb	t9,0(at)
    40f8:	3c050001 	lui	a1,0x1
    40fc:	00a42821 	addu	a1,a1,a0
    4100:	e6000068 	swc1	$f0,104(s0)
    4104:	e60001a8 	swc1	$f0,424(s0)
    4108:	0c000000 	jal	0 <func_8094F2C0>
    410c:	80a51cbc 	lb	a1,7356(a1)
    4110:	3c050000 	lui	a1,0x0
    4114:	24a50000 	addiu	a1,a1,0
    4118:	0c000000 	jal	0 <func_8094F2C0>
    411c:	02002025 	move	a0,s0
    4120:	8fbf001c 	lw	ra,28(sp)
    4124:	8fb00018 	lw	s0,24(sp)
    4128:	27bd0020 	addiu	sp,sp,32
    412c:	03e00008 	jr	ra
    4130:	00000000 	nop

00004134 <func_809533F4>:
    4134:	27bdff78 	addiu	sp,sp,-136
    4138:	afb30044 	sw	s3,68(sp)
    413c:	00809825 	move	s3,a0
    4140:	afb40048 	sw	s4,72(sp)
    4144:	00a0a025 	move	s4,a1
    4148:	afbf004c 	sw	ra,76(sp)
    414c:	00a02025 	move	a0,a1
    4150:	afb20040 	sw	s2,64(sp)
    4154:	afb1003c 	sw	s1,60(sp)
    4158:	afb00038 	sw	s0,56(sp)
    415c:	f7b40030 	sdc1	$f20,48(sp)
    4160:	0c000000 	jal	0 <func_8094F2C0>
    4164:	00002825 	move	a1,zero
    4168:	3c0f0000 	lui	t7,0x0
    416c:	81ef0000 	lb	t7,0(t7)
    4170:	8e8e1c44 	lw	t6,7236(s4)
    4174:	00408025 	move	s0,v0
    4178:	25f8fff2 	addiu	t8,t7,-14
    417c:	2f01000b 	sltiu	at,t8,11
    4180:	10200225 	beqz	at,4a18 <L80953CD8>
    4184:	afae0078 	sw	t6,120(sp)
    4188:	0018c080 	sll	t8,t8,0x2
    418c:	3c010000 	lui	at,0x0
    4190:	00380821 	addu	at,at,t8
    4194:	8c380000 	lw	t8,0(at)
    4198:	03000008 	jr	t8
    419c:	00000000 	nop

000041a0 <L80953460>:
    41a0:	02802025 	move	a0,s4
    41a4:	02602825 	move	a1,s3
    41a8:	0c000000 	jal	0 <func_8094F2C0>
    41ac:	24060001 	li	a2,1
    41b0:	02802025 	move	a0,s4
    41b4:	0c000000 	jal	0 <func_8094F2C0>
    41b8:	26851d64 	addiu	a1,s4,7524
    41bc:	0c000000 	jal	0 <func_8094F2C0>
    41c0:	02802025 	move	a0,s4
    41c4:	3c010000 	lui	at,0x0
    41c8:	a4220000 	sh	v0,0(at)
    41cc:	02802025 	move	a0,s4
    41d0:	00002825 	move	a1,zero
    41d4:	0c000000 	jal	0 <func_8094F2C0>
    41d8:	24060001 	li	a2,1
    41dc:	3c050000 	lui	a1,0x0
    41e0:	84a50000 	lh	a1,0(a1)
    41e4:	02802025 	move	a0,s4
    41e8:	0c000000 	jal	0 <func_8094F2C0>
    41ec:	24060007 	li	a2,7
    41f0:	c6640024 	lwc1	$f4,36(s3)
    41f4:	3c050000 	lui	a1,0x0
    41f8:	24a50000 	addiu	a1,a1,0
    41fc:	e4a40000 	swc1	$f4,0(a1)
    4200:	c6660028 	lwc1	$f6,40(s3)
    4204:	3c190000 	lui	t9,0x0
    4208:	27390000 	addiu	t9,t9,0
    420c:	e4a60004 	swc1	$f6,4(a1)
    4210:	c668002c 	lwc1	$f8,44(s3)
    4214:	27a30068 	addiu	v1,sp,104
    4218:	3c0c0000 	lui	t4,0x0
    421c:	e4a80008 	swc1	$f8,8(a1)
    4220:	8e090050 	lw	t1,80(s0)
    4224:	258c0000 	addiu	t4,t4,0
    4228:	3c060000 	lui	a2,0x0
    422c:	af290000 	sw	t1,0(t9)
    4230:	8e080054 	lw	t0,84(s0)
    4234:	3c014220 	lui	at,0x4220
    4238:	44815000 	mtc1	at,$f10
    423c:	af280004 	sw	t0,4(t9)
    4240:	8e090058 	lw	t1,88(s0)
    4244:	24c60000 	addiu	a2,a2,0
    4248:	3c01430c 	lui	at,0x430c
    424c:	af290008 	sw	t1,8(t9)
    4250:	8e0b005c 	lw	t3,92(s0)
    4254:	44818000 	mtc1	at,$f16
    4258:	3c190000 	lui	t9,0x0
    425c:	ac6b0000 	sw	t3,0(v1)
    4260:	8e0a0060 	lw	t2,96(s0)
    4264:	8c6e0000 	lw	t6,0(v1)
    4268:	27390000 	addiu	t9,t9,0
    426c:	ac6a0004 	sw	t2,4(v1)
    4270:	8e0b0064 	lw	t3,100(s0)
    4274:	3c0a0000 	lui	t2,0x0
    4278:	254a0000 	addiu	t2,t2,0
    427c:	ac6b0008 	sw	t3,8(v1)
    4280:	ad8e0000 	sw	t6,0(t4)
    4284:	8c6d0004 	lw	t5,4(v1)
    4288:	3c040000 	lui	a0,0x0
    428c:	24840000 	addiu	a0,a0,0
    4290:	ad8d0004 	sw	t5,4(t4)
    4294:	8c6e0008 	lw	t6,8(v1)
    4298:	3c0d0000 	lui	t5,0x0
    429c:	25ad0000 	addiu	t5,t5,0
    42a0:	ad8e0008 	sw	t6,8(t4)
    42a4:	8c780000 	lw	t8,0(v1)
    42a8:	8c6f0004 	lw	t7,4(v1)
    42ac:	e4b00004 	swc1	$f16,4(a1)
    42b0:	acd80000 	sw	t8,0(a2)
    42b4:	8c780008 	lw	t8,8(v1)
    42b8:	accf0004 	sw	t7,4(a2)
    42bc:	e4ca0004 	swc1	$f10,4(a2)
    42c0:	acd80008 	sw	t8,8(a2)
    42c4:	8f290000 	lw	t1,0(t9)
    42c8:	ac690000 	sw	t1,0(v1)
    42cc:	8f280004 	lw	t0,4(t9)
    42d0:	8c6c0000 	lw	t4,0(v1)
    42d4:	ac680004 	sw	t0,4(v1)
    42d8:	8f290008 	lw	t1,8(t9)
    42dc:	ac690008 	sw	t1,8(v1)
    42e0:	ad4c0000 	sw	t4,0(t2)
    42e4:	8c6b0004 	lw	t3,4(v1)
    42e8:	ad4b0004 	sw	t3,4(t2)
    42ec:	8c6c0008 	lw	t4,8(v1)
    42f0:	ad4c0008 	sw	t4,8(t2)
    42f4:	8c6f0000 	lw	t7,0(v1)
    42f8:	adaf0000 	sw	t7,0(t5)
    42fc:	8c6e0004 	lw	t6,4(v1)
    4300:	adae0004 	sw	t6,4(t5)
    4304:	8c6f0008 	lw	t7,8(v1)
    4308:	0c000000 	jal	0 <func_8094F2C0>
    430c:	adaf0008 	sw	t7,8(t5)
    4310:	3c010001 	lui	at,0x1
    4314:	2458ff00 	addiu	t8,v0,-256
    4318:	2419000f 	li	t9,15
    431c:	02818021 	addu	s0,s4,at
    4320:	a67801ac 	sh	t8,428(s3)
    4324:	a67901b0 	sh	t9,432(s3)
    4328:	240300ff 	li	v1,255
    432c:	3c040000 	lui	a0,0x0
    4330:	a2030b08 	sb	v1,2824(s0)
    4334:	a2030b07 	sb	v1,2823(s0)
    4338:	a2030b06 	sb	v1,2822(s0)
    433c:	a2000b09 	sb	zero,2825(s0)
    4340:	00340821 	addu	at,at,s4
    4344:	24090001 	li	t1,1
    4348:	24840000 	addiu	a0,a0,0
    434c:	a0290b05 	sb	t1,2821(at)
    4350:	808a0000 	lb	t2,0(a0)
    4354:	254b0001 	addiu	t3,t2,1
    4358:	a08b0000 	sb	t3,0(a0)

0000435c <L8095361C>:
    435c:	866c01ac 	lh	t4,428(s3)
    4360:	3c010001 	lui	at,0x1
    4364:	02818021 	addu	s0,s4,at
    4368:	258d0100 	addiu	t5,t4,256
    436c:	a66d01ac 	sh	t5,428(s3)
    4370:	0c000000 	jal	0 <func_8094F2C0>
    4374:	866401ac 	lh	a0,428(s3)
    4378:	3c014320 	lui	at,0x4320
    437c:	4481a000 	mtc1	at,$f20
    4380:	c67201a8 	lwc1	$f18,424(s3)
    4384:	3c010000 	lui	at,0x0
    4388:	c4280000 	lwc1	$f8,0(at)
    438c:	4612a100 	add.s	$f4,$f20,$f18
    4390:	3c010000 	lui	at,0x0
    4394:	46040182 	mul.s	$f6,$f0,$f4
    4398:	46083280 	add.s	$f10,$f6,$f8
    439c:	e42a0000 	swc1	$f10,0(at)
    43a0:	0c000000 	jal	0 <func_8094F2C0>
    43a4:	866401ac 	lh	a0,428(s3)
    43a8:	c67001a8 	lwc1	$f16,424(s3)
    43ac:	3c010000 	lui	at,0x0
    43b0:	c4260000 	lwc1	$f6,0(at)
    43b4:	4610a480 	add.s	$f18,$f20,$f16
    43b8:	3c010000 	lui	at,0x0
    43bc:	3c040000 	lui	a0,0x0
    43c0:	3c063ecc 	lui	a2,0x3ecc
    43c4:	46120102 	mul.s	$f4,$f0,$f18
    43c8:	34c6cccd 	ori	a2,a2,0xcccd
    43cc:	24840000 	addiu	a0,a0,0
    43d0:	3c054180 	lui	a1,0x4180
    43d4:	3c073fc0 	lui	a3,0x3fc0
    43d8:	46062200 	add.s	$f8,$f4,$f6
    43dc:	e4280000 	swc1	$f8,0(at)
    43e0:	3c013f00 	lui	at,0x3f00
    43e4:	44815000 	mtc1	at,$f10
    43e8:	0c000000 	jal	0 <func_8094F2C0>
    43ec:	e7aa0010 	swc1	$f10,16(sp)
    43f0:	3c020000 	lui	v0,0x0
    43f4:	24420000 	addiu	v0,v0,0
    43f8:	3c013f00 	lui	at,0x3f00
    43fc:	44816000 	mtc1	at,$f12
    4400:	c4420000 	lwc1	$f2,0(v0)
    4404:	8c580000 	lw	t8,0(v0)
    4408:	3c0e0000 	lui	t6,0x0
    440c:	460c1402 	mul.s	$f16,$f2,$f12
    4410:	25ce0000 	addiu	t6,t6,0
    4414:	e4420008 	swc1	$f2,8(v0)
    4418:	e4500004 	swc1	$f16,4(v0)
    441c:	add80000 	sw	t8,0(t6)
    4420:	8c4f0004 	lw	t7,4(v0)
    4424:	adcf0004 	sw	t7,4(t6)
    4428:	8c580008 	lw	t8,8(v0)
    442c:	0c000000 	jal	0 <func_8094F2C0>
    4430:	add80008 	sw	t8,8(t6)
    4434:	3c010000 	lui	at,0x0
    4438:	c4320000 	lwc1	$f18,0(at)
    443c:	3c013f00 	lui	at,0x3f00
    4440:	44812000 	mtc1	at,$f4
    4444:	3c010000 	lui	at,0x0
    4448:	c4280000 	lwc1	$f8,0(at)
    444c:	46049182 	mul.s	$f6,$f18,$f4
    4450:	8e081de4 	lw	t0,7652(s0)
    4454:	31090003 	andi	t1,t0,0x3
    4458:	46083280 	add.s	$f10,$f6,$f8
    445c:	460a0400 	add.s	$f16,$f0,$f10
    4460:	4600848d 	trunc.w.s	$f18,$f16
    4464:	44129000 	mfc1	s2,$f18
    4468:	00000000 	nop
    446c:	00129400 	sll	s2,s2,0x10
    4470:	1520002b 	bnez	t1,4520 <L8095361C+0x1c4>
    4474:	00129403 	sra	s2,s2,0x10
    4478:	866a01b0 	lh	t2,432(s3)
    447c:	24100006 	li	s0,6
    4480:	51400028 	beqzl	t2,4524 <L8095361C+0x1c8>
    4484:	867901b0 	lh	t9,432(s3)
    4488:	4480a000 	mtc1	zero,$f20
    448c:	24110001 	li	s1,1
    4490:	44902000 	mtc1	s0,$f4
    4494:	00123c00 	sll	a3,s2,0x10
    4498:	240b0001 	li	t3,1
    449c:	468021a0 	cvt.s.w	$f6,$f4
    44a0:	240c0001 	li	t4,1
    44a4:	afac0020 	sw	t4,32(sp)
    44a8:	afab0018 	sw	t3,24(sp)
    44ac:	00073c03 	sra	a3,a3,0x10
    44b0:	02802025 	move	a0,s4
    44b4:	e7a6001c 	swc1	$f6,28(sp)
    44b8:	02602825 	move	a1,s3
    44bc:	02203025 	move	a2,s1
    44c0:	e7b40010 	swc1	$f20,16(sp)
    44c4:	0c000000 	jal	0 <func_8094F2C0>
    44c8:	e7b40014 	swc1	$f20,20(sp)
    44cc:	2610ffff 	addiu	s0,s0,-1
    44d0:	5611fff0 	bnel	s0,s1,4494 <L8095361C+0x138>
    44d4:	44902000 	mtc1	s0,$f4
    44d8:	3c014130 	lui	at,0x4130
    44dc:	44814000 	mtc1	at,$f8
    44e0:	00123c00 	sll	a3,s2,0x10
    44e4:	240d0001 	li	t5,1
    44e8:	240e0001 	li	t6,1
    44ec:	afae0020 	sw	t6,32(sp)
    44f0:	afad0018 	sw	t5,24(sp)
    44f4:	00073c03 	sra	a3,a3,0x10
    44f8:	02802025 	move	a0,s4
    44fc:	02602825 	move	a1,s3
    4500:	24060001 	li	a2,1
    4504:	e7b40010 	swc1	$f20,16(sp)
    4508:	e7b40014 	swc1	$f20,20(sp)
    450c:	0c000000 	jal	0 <func_8094F2C0>
    4510:	e7a8001c 	swc1	$f8,28(sp)
    4514:	866f01b0 	lh	t7,432(s3)
    4518:	25f8ffff 	addiu	t8,t7,-1
    451c:	a67801b0 	sh	t8,432(s3)
    4520:	867901b0 	lh	t9,432(s3)
    4524:	3c030000 	lui	v1,0x0
    4528:	24630000 	addiu	v1,v1,0
    452c:	1720013a 	bnez	t9,4a18 <L80953CD8>
    4530:	00000000 	nop
    4534:	80680000 	lb	t0,0(v1)
    4538:	3c0a0000 	lui	t2,0x0
    453c:	254a0000 	addiu	t2,t2,0
    4540:	25090001 	addiu	t1,t0,1
    4544:	a0690000 	sb	t1,0(v1)
    4548:	8d4c0000 	lw	t4,0(t2)
    454c:	27a20068 	addiu	v0,sp,104
    4550:	3c0d0000 	lui	t5,0x0
    4554:	ac4c0000 	sw	t4,0(v0)
    4558:	8d4b0004 	lw	t3,4(t2)
    455c:	8c4f0000 	lw	t7,0(v0)
    4560:	25ad0000 	addiu	t5,t5,0
    4564:	ac4b0004 	sw	t3,4(v0)
    4568:	8d4c0008 	lw	t4,8(t2)
    456c:	3c180000 	lui	t8,0x0
    4570:	27180000 	addiu	t8,t8,0
    4574:	ac4c0008 	sw	t4,8(v0)
    4578:	adaf0000 	sw	t7,0(t5)
    457c:	8c4e0004 	lw	t6,4(v0)
    4580:	adae0004 	sw	t6,4(t5)
    4584:	8c4f0008 	lw	t7,8(v0)
    4588:	adaf0008 	sw	t7,8(t5)
    458c:	8c480000 	lw	t0,0(v0)
    4590:	af080000 	sw	t0,0(t8)
    4594:	8c590004 	lw	t9,4(v0)
    4598:	af190004 	sw	t9,4(t8)
    459c:	8c480008 	lw	t0,8(v0)
    45a0:	1000011d 	b	4a18 <L80953CD8>
    45a4:	af080008 	sw	t0,8(t8)

000045a8 <L80953868>:
    45a8:	866901ac 	lh	t1,428(s3)
    45ac:	252a1862 	addiu	t2,t1,6242
    45b0:	a66a01ac 	sh	t2,428(s3)
    45b4:	0c000000 	jal	0 <func_8094F2C0>
    45b8:	866401ac 	lh	a0,428(s3)
    45bc:	3c010000 	lui	at,0x0
    45c0:	c42a0000 	lwc1	$f10,0(at)
    45c4:	3c013f80 	lui	at,0x3f80
    45c8:	44819000 	mtc1	at,$f18
    45cc:	460a0402 	mul.s	$f16,$f0,$f10
    45d0:	866401ac 	lh	a0,428(s3)
    45d4:	46128100 	add.s	$f4,$f16,$f18
    45d8:	0c000000 	jal	0 <func_8094F2C0>
    45dc:	e66401a0 	swc1	$f4,416(s3)
    45e0:	3c010000 	lui	at,0x0
    45e4:	c4260000 	lwc1	$f6,0(at)
    45e8:	3c013f80 	lui	at,0x3f80
    45ec:	44815000 	mtc1	at,$f10
    45f0:	46060202 	mul.s	$f8,$f0,$f6
    45f4:	92620197 	lbu	v0,407(s3)
    45f8:	240e001e 	li	t6,30
    45fc:	3c010000 	lui	at,0x0
    4600:	3c0f0000 	lui	t7,0x0
    4604:	02802025 	move	a0,s4
    4608:	266500e4 	addiu	a1,s3,228
    460c:	460a4400 	add.s	$f16,$f8,$f10
    4610:	24063940 	li	a2,14656
    4614:	244d0001 	addiu	t5,v0,1
    4618:	144000ff 	bnez	v0,4a18 <L80953CD8>
    461c:	e67001a4 	swc1	$f16,420(s3)
    4620:	926b0195 	lbu	t3,405(s3)
    4624:	a26d0197 	sb	t5,407(s3)
    4628:	ae6e0198 	sw	t6,408(s3)
    462c:	256c0001 	addiu	t4,t3,1
    4630:	a26c0195 	sb	t4,405(s3)
    4634:	81ef0000 	lb	t7,0(t7)
    4638:	24190001 	li	t9,1
    463c:	24080028 	li	t0,40
    4640:	25f80001 	addiu	t8,t7,1
    4644:	a0380000 	sb	t8,0(at)
    4648:	afa80014 	sw	t0,20(sp)
    464c:	afb90010 	sw	t9,16(sp)
    4650:	0c000000 	jal	0 <func_8094F2C0>
    4654:	24070001 	li	a3,1
    4658:	24090002 	li	t1,2
    465c:	a2690194 	sb	t1,404(s3)
    4660:	0c000000 	jal	0 <func_8094F2C0>
    4664:	02802025 	move	a0,s4
    4668:	02802025 	move	a0,s4
    466c:	02602825 	move	a1,s3
    4670:	0c000000 	jal	0 <func_8094F2C0>
    4674:	24060008 	li	a2,8
    4678:	100000e7 	b	4a18 <L80953CD8>
    467c:	00000000 	nop

00004680 <L80953940>:
    4680:	8e620198 	lw	v0,408(s3)
    4684:	2401000d 	li	at,13
    4688:	54410005 	bnel	v0,at,46a0 <L80953940+0x20>
    468c:	244affff 	addiu	t2,v0,-1
    4690:	0c000000 	jal	0 <func_8094F2C0>
    4694:	24040021 	li	a0,33
    4698:	8e620198 	lw	v0,408(s3)
    469c:	244affff 	addiu	t2,v0,-1
    46a0:	154000dd 	bnez	t2,4a18 <L80953CD8>
    46a4:	ae6a0198 	sw	t2,408(s3)
    46a8:	c6720024 	lwc1	$f18,36(s3)
    46ac:	3c010000 	lui	at,0x0
    46b0:	8fac0078 	lw	t4,120(sp)
    46b4:	e4320000 	swc1	$f18,0(at)
    46b8:	3c0141f0 	lui	at,0x41f0
    46bc:	44813000 	mtc1	at,$f6
    46c0:	c6640028 	lwc1	$f4,40(s3)
    46c4:	3c010000 	lui	at,0x0
    46c8:	46062200 	add.s	$f8,$f4,$f6
    46cc:	e4280000 	swc1	$f8,0(at)
    46d0:	c66a002c 	lwc1	$f10,44(s3)
    46d4:	3c010000 	lui	at,0x0
    46d8:	e42a0000 	swc1	$f10,0(at)
    46dc:	0c000000 	jal	0 <func_8094F2C0>
    46e0:	858400b6 	lh	a0,182(t4)
    46e4:	3c01c302 	lui	at,0xc302
    46e8:	4481a000 	mtc1	at,$f20
    46ec:	8fb10078 	lw	s1,120(sp)
    46f0:	3c010000 	lui	at,0x0
    46f4:	46140402 	mul.s	$f16,$f0,$f20
    46f8:	c6320024 	lwc1	$f18,36(s1)
    46fc:	46128100 	add.s	$f4,$f16,$f18
    4700:	e4240000 	swc1	$f4,0(at)
    4704:	0c000000 	jal	0 <func_8094F2C0>
    4708:	862400b6 	lh	a0,182(s1)
    470c:	46140182 	mul.s	$f6,$f0,$f20
    4710:	c628002c 	lwc1	$f8,44(s1)
    4714:	3c010000 	lui	at,0x0
    4718:	3c0e0000 	lui	t6,0x0
    471c:	25ce0000 	addiu	t6,t6,0
    4720:	27ad0068 	addiu	t5,sp,104
    4724:	27a80068 	addiu	t0,sp,104
    4728:	46083280 	add.s	$f10,$f6,$f8
    472c:	3c190000 	lui	t9,0x0
    4730:	27390000 	addiu	t9,t9,0
    4734:	27ac0068 	addiu	t4,sp,104
    4738:	e42a0000 	swc1	$f10,0(at)
    473c:	3c01425c 	lui	at,0x425c
    4740:	44819000 	mtc1	at,$f18
    4744:	c6300028 	lwc1	$f16,40(s1)
    4748:	3c010000 	lui	at,0x0
    474c:	3c0b0000 	lui	t3,0x0
    4750:	46128100 	add.s	$f4,$f16,$f18
    4754:	256b0000 	addiu	t3,t3,0
    4758:	e4240000 	swc1	$f4,0(at)
    475c:	8dd80000 	lw	t8,0(t6)
    4760:	8dcf0004 	lw	t7,4(t6)
    4764:	3c010000 	lui	at,0x0
    4768:	adb80000 	sw	t8,0(t5)
    476c:	8dd80008 	lw	t8,8(t6)
    4770:	adaf0004 	sw	t7,4(t5)
    4774:	3c0f0000 	lui	t7,0x0
    4778:	adb80008 	sw	t8,8(t5)
    477c:	8d0a0000 	lw	t2,0(t0)
    4780:	8d090004 	lw	t1,4(t0)
    4784:	af2a0000 	sw	t2,0(t9)
    4788:	8d0a0008 	lw	t2,8(t0)
    478c:	af290004 	sw	t1,4(t9)
    4790:	af2a0008 	sw	t2,8(t9)
    4794:	8d8e0000 	lw	t6,0(t4)
    4798:	8d8d0004 	lw	t5,4(t4)
    479c:	24190085 	li	t9,133
    47a0:	ad6e0000 	sw	t6,0(t3)
    47a4:	8d8e0008 	lw	t6,8(t4)
    47a8:	ad6d0004 	sw	t5,4(t3)
    47ac:	ad6e0008 	sw	t6,8(t3)
    47b0:	81ef0000 	lb	t7,0(t7)
    47b4:	25f80001 	addiu	t8,t7,1
    47b8:	a0380000 	sb	t8,0(at)
    47bc:	10000096 	b	4a18 <L80953CD8>
    47c0:	ae790198 	sw	t9,408(s3)

000047c4 <L80953A84>:
    47c4:	3c010000 	lui	at,0x0
    47c8:	c4260000 	lwc1	$f6,0(at)
    47cc:	3c040000 	lui	a0,0x0
    47d0:	3c063e99 	lui	a2,0x3e99
    47d4:	3c073d4c 	lui	a3,0x3d4c
    47d8:	34e7cccd 	ori	a3,a3,0xcccd
    47dc:	34c6999a 	ori	a2,a2,0x999a
    47e0:	24840000 	addiu	a0,a0,0
    47e4:	3c053fc0 	lui	a1,0x3fc0
    47e8:	0c000000 	jal	0 <func_8094F2C0>
    47ec:	e7a60010 	swc1	$f6,16(sp)
    47f0:	3c010000 	lui	at,0x0
    47f4:	c4280000 	lwc1	$f8,0(at)
    47f8:	3c010000 	lui	at,0x0
    47fc:	3c090000 	lui	t1,0x0
    4800:	e4280000 	swc1	$f8,0(at)
    4804:	3c010000 	lui	at,0x0
    4808:	25290000 	addiu	t1,t1,0
    480c:	e4280000 	swc1	$f8,0(at)
    4810:	8d2b0000 	lw	t3,0(t1)
    4814:	3c080000 	lui	t0,0x0
    4818:	25080000 	addiu	t0,t0,0
    481c:	ad0b0000 	sw	t3,0(t0)
    4820:	8d2b0008 	lw	t3,8(t1)
    4824:	8d2a0004 	lw	t2,4(t1)
    4828:	02802025 	move	a0,s4
    482c:	ad0b0008 	sw	t3,8(t0)
    4830:	ad0a0004 	sw	t2,4(t0)
    4834:	8e6c0198 	lw	t4,408(s3)
    4838:	3c050000 	lui	a1,0x0
    483c:	258dffff 	addiu	t5,t4,-1
    4840:	15a0006e 	bnez	t5,49fc <L80953CBC>
    4844:	ae6d0198 	sw	t5,408(s3)
    4848:	0c000000 	jal	0 <func_8094F2C0>
    484c:	84a50000 	lh	a1,0(a1)
    4850:	3c010000 	lui	at,0x0
    4854:	a4200000 	sh	zero,0(at)
    4858:	02802025 	move	a0,s4
    485c:	0c000000 	jal	0 <func_8094F2C0>
    4860:	26851d64 	addiu	a1,s4,7524
    4864:	02802025 	move	a0,s4
    4868:	00002825 	move	a1,zero
    486c:	0c000000 	jal	0 <func_8094F2C0>
    4870:	24060007 	li	a2,7
    4874:	3c0f0000 	lui	t7,0x0
    4878:	25ef0000 	addiu	t7,t7,0
    487c:	8df90000 	lw	t9,0(t7)
    4880:	27a30068 	addiu	v1,sp,104
    4884:	3c0c0000 	lui	t4,0x0
    4888:	ac790000 	sw	t9,0(v1)
    488c:	8df80004 	lw	t8,4(t7)
    4890:	8c690000 	lw	t1,0(v1)
    4894:	258c0000 	addiu	t4,t4,0
    4898:	ac780004 	sw	t8,4(v1)
    489c:	8df90008 	lw	t9,8(t7)
    48a0:	02802025 	move	a0,s4
    48a4:	02602825 	move	a1,s3
    48a8:	ac790008 	sw	t9,8(v1)
    48ac:	ae09005c 	sw	t1,92(s0)
    48b0:	8c680004 	lw	t0,4(v1)
    48b4:	24060007 	li	a2,7
    48b8:	ae080060 	sw	t0,96(s0)
    48bc:	8c690008 	lw	t1,8(v1)
    48c0:	ae090064 	sw	t1,100(s0)
    48c4:	8c6b0000 	lw	t3,0(v1)
    48c8:	ae0b0074 	sw	t3,116(s0)
    48cc:	8c6a0004 	lw	t2,4(v1)
    48d0:	ae0a0078 	sw	t2,120(s0)
    48d4:	8c6b0008 	lw	t3,8(v1)
    48d8:	ae0b007c 	sw	t3,124(s0)
    48dc:	8d8e0000 	lw	t6,0(t4)
    48e0:	ae0e0050 	sw	t6,80(s0)
    48e4:	8d8d0004 	lw	t5,4(t4)
    48e8:	ae0d0054 	sw	t5,84(s0)
    48ec:	8d8e0008 	lw	t6,8(t4)
    48f0:	0c000000 	jal	0 <func_8094F2C0>
    48f4:	ae0e0058 	sw	t6,88(s0)
    48f8:	3c0f0000 	lui	t7,0x0
    48fc:	81ef0000 	lb	t7,0(t7)
    4900:	3c010000 	lui	at,0x0
    4904:	26841c24 	addiu	a0,s4,7204
    4908:	25f80001 	addiu	t8,t7,1
    490c:	a0380000 	sb	t8,0(at)
    4910:	c66a0028 	lwc1	$f10,40(s3)
    4914:	8e670024 	lw	a3,36(s3)
    4918:	02802825 	move	a1,s4
    491c:	e7aa0010 	swc1	$f10,16(sp)
    4920:	c670002c 	lwc1	$f16,44(s3)
    4924:	afa4005c 	sw	a0,92(sp)
    4928:	afa00024 	sw	zero,36(sp)
    492c:	afa00020 	sw	zero,32(sp)
    4930:	afa0001c 	sw	zero,28(sp)
    4934:	afa00018 	sw	zero,24(sp)
    4938:	2406005f 	li	a2,95
    493c:	0c000000 	jal	0 <func_8094F2C0>
    4940:	e7b00014 	swc1	$f16,20(sp)
    4944:	8fa50078 	lw	a1,120(sp)
    4948:	24190002 	li	t9,2
    494c:	3c110000 	lui	s1,0x0
    4950:	3c120000 	lui	s2,0x0
    4954:	24a50024 	addiu	a1,a1,36
    4958:	afa50054 	sw	a1,84(sp)
    495c:	26520000 	addiu	s2,s2,0
    4960:	26310000 	addiu	s1,s1,0
    4964:	afb9007c 	sw	t9,124(sp)
    4968:	24100002 	li	s0,2
    496c:	8fa50054 	lw	a1,84(sp)
    4970:	0c000000 	jal	0 <func_8094F2C0>
    4974:	02202025 	move	a0,s1
    4978:	46000506 	mov.s	$f20,$f0
    497c:	02402025 	move	a0,s2
    4980:	0c000000 	jal	0 <func_8094F2C0>
    4984:	8fa50054 	lw	a1,84(sp)
    4988:	4600a03c 	c.lt.s	$f20,$f0
    498c:	2631fff4 	addiu	s1,s1,-12
    4990:	2608ffff 	addiu	t0,s0,-1
    4994:	45020003 	bc1fl	49a4 <L80953A84+0x1e0>
    4998:	2610ffff 	addiu	s0,s0,-1
    499c:	afa8007c 	sw	t0,124(sp)
    49a0:	2610ffff 	addiu	s0,s0,-1
    49a4:	1600fff1 	bnez	s0,496c <L80953A84+0x1a8>
    49a8:	2652fff4 	addiu	s2,s2,-12
    49ac:	8fa9007c 	lw	t1,124(sp)
    49b0:	3c0b0000 	lui	t3,0x0
    49b4:	256b0000 	addiu	t3,t3,0
    49b8:	00095080 	sll	t2,t1,0x2
    49bc:	01495023 	subu	t2,t2,t1
    49c0:	000a5080 	sll	t2,t2,0x2
    49c4:	014b1021 	addu	v0,t2,t3
    49c8:	c4520004 	lwc1	$f18,4(v0)
    49cc:	c4440008 	lwc1	$f4,8(v0)
    49d0:	8c470000 	lw	a3,0(v0)
    49d4:	8fa4005c 	lw	a0,92(sp)
    49d8:	02802825 	move	a1,s4
    49dc:	240600a1 	li	a2,161
    49e0:	afa00018 	sw	zero,24(sp)
    49e4:	afa0001c 	sw	zero,28(sp)
    49e8:	afa00020 	sw	zero,32(sp)
    49ec:	afa00024 	sw	zero,36(sp)
    49f0:	e7b20010 	swc1	$f18,16(sp)
    49f4:	0c000000 	jal	0 <func_8094F2C0>
    49f8:	e7a40014 	swc1	$f4,20(sp)

000049fc <L80953CBC>:
    49fc:	3c013f00 	lui	at,0x3f00
    4a00:	44816000 	mtc1	at,$f12
    4a04:	0c000000 	jal	0 <func_8094F2C0>
    4a08:	00000000 	nop
    4a0c:	3c010001 	lui	at,0x1
    4a10:	00340821 	addu	at,at,s4
    4a14:	a0200b05 	sb	zero,2821(at)

00004a18 <L80953CD8>:
    4a18:	3c0c0000 	lui	t4,0x0
    4a1c:	858c0000 	lh	t4,0(t4)
    4a20:	4480a000 	mtc1	zero,$f20
    4a24:	3c010001 	lui	at,0x1
    4a28:	11800051 	beqz	t4,4b70 <L80953CD8+0x158>
    4a2c:	02818021 	addu	s0,s4,at
    4a30:	3c010000 	lui	at,0x0
    4a34:	c4260000 	lwc1	$f6,0(at)
    4a38:	3c040000 	lui	a0,0x0
    4a3c:	3c050000 	lui	a1,0x0
    4a40:	3c063e99 	lui	a2,0x3e99
    4a44:	3c070000 	lui	a3,0x0
    4a48:	8ce70000 	lw	a3,0(a3)
    4a4c:	34c6999a 	ori	a2,a2,0x999a
    4a50:	8ca50000 	lw	a1,0(a1)
    4a54:	24840000 	addiu	a0,a0,0
    4a58:	0c000000 	jal	0 <func_8094F2C0>
    4a5c:	e7a60010 	swc1	$f6,16(sp)
    4a60:	3c010000 	lui	at,0x0
    4a64:	c4280000 	lwc1	$f8,0(at)
    4a68:	3c040000 	lui	a0,0x0
    4a6c:	3c050000 	lui	a1,0x0
    4a70:	3c063e99 	lui	a2,0x3e99
    4a74:	3c070000 	lui	a3,0x0
    4a78:	8ce70000 	lw	a3,0(a3)
    4a7c:	34c6999a 	ori	a2,a2,0x999a
    4a80:	8ca50000 	lw	a1,0(a1)
    4a84:	24840000 	addiu	a0,a0,0
    4a88:	0c000000 	jal	0 <func_8094F2C0>
    4a8c:	e7a80010 	swc1	$f8,16(sp)
    4a90:	3c010000 	lui	at,0x0
    4a94:	c42a0000 	lwc1	$f10,0(at)
    4a98:	3c040000 	lui	a0,0x0
    4a9c:	3c050000 	lui	a1,0x0
    4aa0:	3c063e99 	lui	a2,0x3e99
    4aa4:	3c070000 	lui	a3,0x0
    4aa8:	8ce70000 	lw	a3,0(a3)
    4aac:	34c6999a 	ori	a2,a2,0x999a
    4ab0:	8ca50000 	lw	a1,0(a1)
    4ab4:	24840000 	addiu	a0,a0,0
    4ab8:	0c000000 	jal	0 <func_8094F2C0>
    4abc:	e7aa0010 	swc1	$f10,16(sp)
    4ac0:	3c010000 	lui	at,0x0
    4ac4:	c4300000 	lwc1	$f16,0(at)
    4ac8:	3c040000 	lui	a0,0x0
    4acc:	3c050000 	lui	a1,0x0
    4ad0:	3c063e99 	lui	a2,0x3e99
    4ad4:	3c070000 	lui	a3,0x0
    4ad8:	8ce70000 	lw	a3,0(a3)
    4adc:	34c6999a 	ori	a2,a2,0x999a
    4ae0:	8ca50000 	lw	a1,0(a1)
    4ae4:	24840000 	addiu	a0,a0,0
    4ae8:	0c000000 	jal	0 <func_8094F2C0>
    4aec:	e7b00010 	swc1	$f16,16(sp)
    4af0:	3c010000 	lui	at,0x0
    4af4:	c4320000 	lwc1	$f18,0(at)
    4af8:	3c040000 	lui	a0,0x0
    4afc:	3c050000 	lui	a1,0x0
    4b00:	3c063e99 	lui	a2,0x3e99
    4b04:	3c070000 	lui	a3,0x0
    4b08:	8ce70000 	lw	a3,0(a3)
    4b0c:	34c6999a 	ori	a2,a2,0x999a
    4b10:	8ca50000 	lw	a1,0(a1)
    4b14:	24840000 	addiu	a0,a0,0
    4b18:	0c000000 	jal	0 <func_8094F2C0>
    4b1c:	e7b20010 	swc1	$f18,16(sp)
    4b20:	3c010000 	lui	at,0x0
    4b24:	c4240000 	lwc1	$f4,0(at)
    4b28:	3c040000 	lui	a0,0x0
    4b2c:	3c050000 	lui	a1,0x0
    4b30:	3c063e99 	lui	a2,0x3e99
    4b34:	3c070000 	lui	a3,0x0
    4b38:	8ce70000 	lw	a3,0(a3)
    4b3c:	34c6999a 	ori	a2,a2,0x999a
    4b40:	8ca50000 	lw	a1,0(a1)
    4b44:	24840000 	addiu	a0,a0,0
    4b48:	0c000000 	jal	0 <func_8094F2C0>
    4b4c:	e7a40010 	swc1	$f4,16(sp)
    4b50:	3c050000 	lui	a1,0x0
    4b54:	3c060000 	lui	a2,0x0
    4b58:	3c070000 	lui	a3,0x0
    4b5c:	24e70000 	addiu	a3,a3,0
    4b60:	24c60000 	addiu	a2,a2,0
    4b64:	84a50000 	lh	a1,0(a1)
    4b68:	0c000000 	jal	0 <func_8094F2C0>
    4b6c:	02802025 	move	a0,s4
    4b70:	0c000000 	jal	0 <func_8094F2C0>
    4b74:	2664014c 	addiu	a0,s3,332
    4b78:	266400bc 	addiu	a0,s3,188
    4b7c:	3c05c3f0 	lui	a1,0xc3f0
    4b80:	3c063f80 	lui	a2,0x3f80
    4b84:	3c0741f0 	lui	a3,0x41f0
    4b88:	0c000000 	jal	0 <func_8094F2C0>
    4b8c:	e7b40010 	swc1	$f20,16(sp)
    4b90:	266401f8 	addiu	a0,s3,504
    4b94:	00002825 	move	a1,zero
    4b98:	24060001 	li	a2,1
    4b9c:	240700c8 	li	a3,200
    4ba0:	0c000000 	jal	0 <func_8094F2C0>
    4ba4:	afa00010 	sw	zero,16(sp)
    4ba8:	266401f6 	addiu	a0,s3,502
    4bac:	00002825 	move	a1,zero
    4bb0:	24060001 	li	a2,1
    4bb4:	240700c8 	li	a3,200
    4bb8:	0c000000 	jal	0 <func_8094F2C0>
    4bbc:	afa00010 	sw	zero,16(sp)
    4bc0:	266401ae 	addiu	a0,s3,430
    4bc4:	240500c8 	li	a1,200
    4bc8:	24060001 	li	a2,1
    4bcc:	2407000a 	li	a3,10
    4bd0:	0c000000 	jal	0 <func_8094F2C0>
    4bd4:	afa00010 	sw	zero,16(sp)
    4bd8:	92030b09 	lbu	v1,2825(s0)
    4bdc:	4405a000 	mfc1	a1,$f20
    4be0:	26640068 	addiu	a0,s3,104
    4be4:	10600003 	beqz	v1,4bf4 <L80953CD8+0x1dc>
    4be8:	3c063f80 	lui	a2,0x3f80
    4bec:	246dffce 	addiu	t5,v1,-50
    4bf0:	a20d0b09 	sb	t5,2825(s0)
    4bf4:	3c073f00 	lui	a3,0x3f00
    4bf8:	0c000000 	jal	0 <func_8094F2C0>
    4bfc:	e7b40010 	swc1	$f20,16(sp)
    4c00:	867901ac 	lh	t9,428(s3)
    4c04:	866801f6 	lh	t0,502(s3)
    4c08:	866e00b6 	lh	t6,182(s3)
    4c0c:	866f01f8 	lh	t7,504(s3)
    4c10:	03284821 	addu	t1,t9,t0
    4c14:	a66901ac 	sh	t1,428(s3)
    4c18:	01cfc021 	addu	t8,t6,t7
    4c1c:	a67800b6 	sh	t8,182(s3)
    4c20:	0c000000 	jal	0 <func_8094F2C0>
    4c24:	866401ac 	lh	a0,428(s3)
    4c28:	3c010000 	lui	at,0x0
    4c2c:	c4260000 	lwc1	$f6,0(at)
    4c30:	3c013f80 	lui	at,0x3f80
    4c34:	44815000 	mtc1	at,$f10
    4c38:	46060202 	mul.s	$f8,$f0,$f6
    4c3c:	866401ac 	lh	a0,428(s3)
    4c40:	460a4400 	add.s	$f16,$f8,$f10
    4c44:	0c000000 	jal	0 <func_8094F2C0>
    4c48:	e67001a0 	swc1	$f16,416(s3)
    4c4c:	3c010000 	lui	at,0x0
    4c50:	c4320000 	lwc1	$f18,0(at)
    4c54:	3c013f80 	lui	at,0x3f80
    4c58:	44813000 	mtc1	at,$f6
    4c5c:	46120102 	mul.s	$f4,$f0,$f18
    4c60:	46062200 	add.s	$f8,$f4,$f6
    4c64:	e66801a4 	swc1	$f8,420(s3)
    4c68:	8fbf004c 	lw	ra,76(sp)
    4c6c:	8fb40048 	lw	s4,72(sp)
    4c70:	8fb30044 	lw	s3,68(sp)
    4c74:	8fb20040 	lw	s2,64(sp)
    4c78:	8fb1003c 	lw	s1,60(sp)
    4c7c:	8fb00038 	lw	s0,56(sp)
    4c80:	d7b40030 	ldc1	$f20,48(sp)
    4c84:	03e00008 	jr	ra
    4c88:	27bd0088 	addiu	sp,sp,136

00004c8c <func_80953F4C>:
    4c8c:	27bdffd8 	addiu	sp,sp,-40
    4c90:	afa40028 	sw	a0,40(sp)
    4c94:	afbf0024 	sw	ra,36(sp)
    4c98:	3c040601 	lui	a0,0x601
    4c9c:	afa5002c 	sw	a1,44(sp)
    4ca0:	0c000000 	jal	0 <func_8094F2C0>
    4ca4:	248466a8 	addiu	a0,a0,26280
    4ca8:	44822000 	mtc1	v0,$f4
    4cac:	44800000 	mtc1	zero,$f0
    4cb0:	8fa40028 	lw	a0,40(sp)
    4cb4:	468021a0 	cvt.s.w	$f6,$f4
    4cb8:	3c050601 	lui	a1,0x601
    4cbc:	240e0001 	li	t6,1
    4cc0:	44060000 	mfc1	a2,$f0
    4cc4:	44070000 	mfc1	a3,$f0
    4cc8:	afae0014 	sw	t6,20(sp)
    4ccc:	24a566a8 	addiu	a1,a1,26280
    4cd0:	e7a60010 	swc1	$f6,16(sp)
    4cd4:	2484014c 	addiu	a0,a0,332
    4cd8:	0c000000 	jal	0 <func_8094F2C0>
    4cdc:	e7a00018 	swc1	$f0,24(sp)
    4ce0:	8fa40028 	lw	a0,40(sp)
    4ce4:	3c050000 	lui	a1,0x0
    4ce8:	24a50000 	addiu	a1,a1,0
    4cec:	0c000000 	jal	0 <func_8094F2C0>
    4cf0:	ac800198 	sw	zero,408(a0)
    4cf4:	8fbf0024 	lw	ra,36(sp)
    4cf8:	27bd0028 	addiu	sp,sp,40
    4cfc:	03e00008 	jr	ra
    4d00:	00000000 	nop

00004d04 <func_80953FC4>:
    4d04:	27bdffc8 	addiu	sp,sp,-56
    4d08:	afbf0034 	sw	ra,52(sp)
    4d0c:	afb00030 	sw	s0,48(sp)
    4d10:	00808025 	move	s0,a0
    4d14:	0c000000 	jal	0 <func_8094F2C0>
    4d18:	afa5003c 	sw	a1,60(sp)
    4d1c:	3c020000 	lui	v0,0x0
    4d20:	80420000 	lb	v0,0(v0)
    4d24:	2401000d 	li	at,13
    4d28:	02002025 	move	a0,s0
    4d2c:	54410006 	bnel	v0,at,4d48 <func_80953FC4+0x44>
    4d30:	28410003 	slti	at,v0,3
    4d34:	0c000000 	jal	0 <func_8094F2C0>
    4d38:	8fa5003c 	lw	a1,60(sp)
    4d3c:	10000035 	b	4e14 <func_80953FC4+0x110>
    4d40:	8fbf0034 	lw	ra,52(sp)
    4d44:	28410003 	slti	at,v0,3
    4d48:	54200032 	bnezl	at,4e14 <func_80953FC4+0x110>
    4d4c:	8fbf0034 	lw	ra,52(sp)
    4d50:	8e0e0198 	lw	t6,408(s0)
    4d54:	02002825 	move	a1,s0
    4d58:	24060002 	li	a2,2
    4d5c:	25cf0001 	addiu	t7,t6,1
    4d60:	31f80001 	andi	t8,t7,0x1
    4d64:	17000013 	bnez	t8,4db4 <func_80953FC4+0xb0>
    4d68:	ae0f0198 	sw	t7,408(s0)
    4d6c:	31e80020 	andi	t0,t7,0x20
    4d70:	00084943 	sra	t1,t0,0x5
    4d74:	252a0001 	addiu	t2,t1,1
    4d78:	448a4000 	mtc1	t2,$f8
    4d7c:	3c0140a0 	lui	at,0x40a0
    4d80:	44812000 	mtc1	at,$f4
    4d84:	468042a0 	cvt.s.w	$f10,$f8
    4d88:	44803000 	mtc1	zero,$f6
    4d8c:	24190005 	li	t9,5
    4d90:	240b0001 	li	t3,1
    4d94:	afab0020 	sw	t3,32(sp)
    4d98:	afb90018 	sw	t9,24(sp)
    4d9c:	e7aa001c 	swc1	$f10,28(sp)
    4da0:	8fa4003c 	lw	a0,60(sp)
    4da4:	2407005a 	li	a3,90
    4da8:	e7a40010 	swc1	$f4,16(sp)
    4dac:	0c000000 	jal	0 <func_8094F2C0>
    4db0:	e7a60014 	swc1	$f6,20(sp)
    4db4:	0c000000 	jal	0 <func_8094F2C0>
    4db8:	2604014c 	addiu	a0,s0,332
    4dbc:	3c013f80 	lui	at,0x3f80
    4dc0:	44810000 	mtc1	at,$f0
    4dc4:	44808000 	mtc1	zero,$f16
    4dc8:	3c073d4c 	lui	a3,0x3d4c
    4dcc:	44050000 	mfc1	a1,$f0
    4dd0:	44060000 	mfc1	a2,$f0
    4dd4:	34e7cccd 	ori	a3,a3,0xcccd
    4dd8:	26040168 	addiu	a0,s0,360
    4ddc:	0c000000 	jal	0 <func_8094F2C0>
    4de0:	e7b00010 	swc1	$f16,16(sp)
    4de4:	0c000000 	jal	0 <func_8094F2C0>
    4de8:	00000000 	nop
    4dec:	3c010000 	lui	at,0x0
    4df0:	c4320000 	lwc1	$f18,0(at)
    4df4:	02002025 	move	a0,s0
    4df8:	4612003c 	c.lt.s	$f0,$f18
    4dfc:	00000000 	nop
    4e00:	45020004 	bc1fl	4e14 <func_80953FC4+0x110>
    4e04:	8fbf0034 	lw	ra,52(sp)
    4e08:	0c000000 	jal	0 <func_8094F2C0>
    4e0c:	24053143 	li	a1,12611
    4e10:	8fbf0034 	lw	ra,52(sp)
    4e14:	8fb00030 	lw	s0,48(sp)
    4e18:	27bd0038 	addiu	sp,sp,56
    4e1c:	03e00008 	jr	ra
    4e20:	00000000 	nop

00004e24 <func_809540E4>:
    4e24:	27bdffd8 	addiu	sp,sp,-40
    4e28:	afa40028 	sw	a0,40(sp)
    4e2c:	afbf0024 	sw	ra,36(sp)
    4e30:	3c040601 	lui	a0,0x601
    4e34:	afa5002c 	sw	a1,44(sp)
    4e38:	0c000000 	jal	0 <func_8094F2C0>
    4e3c:	248466a8 	addiu	a0,a0,26280
    4e40:	44822000 	mtc1	v0,$f4
    4e44:	44800000 	mtc1	zero,$f0
    4e48:	8fa40028 	lw	a0,40(sp)
    4e4c:	468021a0 	cvt.s.w	$f6,$f4
    4e50:	3c050601 	lui	a1,0x601
    4e54:	44070000 	mfc1	a3,$f0
    4e58:	24a566a8 	addiu	a1,a1,26280
    4e5c:	3c063f80 	lui	a2,0x3f80
    4e60:	afa00014 	sw	zero,20(sp)
    4e64:	e7a60010 	swc1	$f6,16(sp)
    4e68:	2484014c 	addiu	a0,a0,332
    4e6c:	0c000000 	jal	0 <func_8094F2C0>
    4e70:	e7a00018 	swc1	$f0,24(sp)
    4e74:	8fa40028 	lw	a0,40(sp)
    4e78:	3c050000 	lui	a1,0x0
    4e7c:	24a50000 	addiu	a1,a1,0
    4e80:	848e001c 	lh	t6,28(a0)
    4e84:	000e7880 	sll	t7,t6,0x2
    4e88:	01ee7821 	addu	t7,t7,t6
    4e8c:	000f7840 	sll	t7,t7,0x1
    4e90:	0c000000 	jal	0 <func_8094F2C0>
    4e94:	ac8f0198 	sw	t7,408(a0)
    4e98:	8fbf0024 	lw	ra,36(sp)
    4e9c:	27bd0028 	addiu	sp,sp,40
    4ea0:	03e00008 	jr	ra
    4ea4:	00000000 	nop

00004ea8 <func_80954168>:
    4ea8:	27bdffc0 	addiu	sp,sp,-64
    4eac:	afbf0034 	sw	ra,52(sp)
    4eb0:	afb00030 	sw	s0,48(sp)
    4eb4:	afa50044 	sw	a1,68(sp)
    4eb8:	8c8e0198 	lw	t6,408(a0)
    4ebc:	3c180000 	lui	t8,0x0
    4ec0:	00808025 	move	s0,a0
    4ec4:	25cf0001 	addiu	t7,t6,1
    4ec8:	ac8f0198 	sw	t7,408(a0)
    4ecc:	93180000 	lbu	t8,0(t8)
    4ed0:	00002825 	move	a1,zero
    4ed4:	240600ff 	li	a2,255
    4ed8:	3319007f 	andi	t9,t8,0x7f
    4edc:	1320002e 	beqz	t9,4f98 <func_80954168+0xf0>
    4ee0:	00003825 	move	a3,zero
    4ee4:	2408000c 	li	t0,12
    4ee8:	0c000000 	jal	0 <func_8094F2C0>
    4eec:	afa80010 	sw	t0,16(sp)
    4ef0:	0c000000 	jal	0 <func_8094F2C0>
    4ef4:	00000000 	nop
    4ef8:	3c013f00 	lui	at,0x3f00
    4efc:	44812000 	mtc1	at,$f4
    4f00:	3c040601 	lui	a0,0x601
    4f04:	4600203c 	c.lt.s	$f4,$f0
    4f08:	00000000 	nop
    4f0c:	45000013 	bc1f	4f5c <func_80954168+0xb4>
    4f10:	00000000 	nop
    4f14:	3c040601 	lui	a0,0x601
    4f18:	0c000000 	jal	0 <func_8094F2C0>
    4f1c:	248462ac 	addiu	a0,a0,25260
    4f20:	44823000 	mtc1	v0,$f6
    4f24:	44800000 	mtc1	zero,$f0
    4f28:	3c050601 	lui	a1,0x601
    4f2c:	46803220 	cvt.s.w	$f8,$f6
    4f30:	24090002 	li	t1,2
    4f34:	44070000 	mfc1	a3,$f0
    4f38:	afa90014 	sw	t1,20(sp)
    4f3c:	24a562ac 	addiu	a1,a1,25260
    4f40:	2604014c 	addiu	a0,s0,332
    4f44:	e7a80010 	swc1	$f8,16(sp)
    4f48:	3c063f80 	lui	a2,0x3f80
    4f4c:	0c000000 	jal	0 <func_8094F2C0>
    4f50:	e7a00018 	swc1	$f0,24(sp)
    4f54:	10000011 	b	4f9c <func_80954168+0xf4>
    4f58:	2604014c 	addiu	a0,s0,332
    4f5c:	0c000000 	jal	0 <func_8094F2C0>
    4f60:	248464b0 	addiu	a0,a0,25776
    4f64:	44825000 	mtc1	v0,$f10
    4f68:	44809000 	mtc1	zero,$f18
    4f6c:	3c050601 	lui	a1,0x601
    4f70:	46805420 	cvt.s.w	$f16,$f10
    4f74:	240a0002 	li	t2,2
    4f78:	afaa0014 	sw	t2,20(sp)
    4f7c:	24a564b0 	addiu	a1,a1,25776
    4f80:	2604014c 	addiu	a0,s0,332
    4f84:	3c063f80 	lui	a2,0x3f80
    4f88:	e7b00010 	swc1	$f16,16(sp)
    4f8c:	24070000 	li	a3,0
    4f90:	0c000000 	jal	0 <func_8094F2C0>
    4f94:	e7b20018 	swc1	$f18,24(sp)
    4f98:	2604014c 	addiu	a0,s0,332
    4f9c:	0c000000 	jal	0 <func_8094F2C0>
    4fa0:	afa40038 	sw	a0,56(sp)
    4fa4:	1040000f 	beqz	v0,4fe4 <func_80954168+0x13c>
    4fa8:	3c040601 	lui	a0,0x601
    4fac:	0c000000 	jal	0 <func_8094F2C0>
    4fb0:	248466a8 	addiu	a0,a0,26280
    4fb4:	44822000 	mtc1	v0,$f4
    4fb8:	44800000 	mtc1	zero,$f0
    4fbc:	3c050601 	lui	a1,0x601
    4fc0:	468021a0 	cvt.s.w	$f6,$f4
    4fc4:	44070000 	mfc1	a3,$f0
    4fc8:	24a566a8 	addiu	a1,a1,26280
    4fcc:	8fa40038 	lw	a0,56(sp)
    4fd0:	3c063f80 	lui	a2,0x3f80
    4fd4:	afa00014 	sw	zero,20(sp)
    4fd8:	e7a60010 	swc1	$f6,16(sp)
    4fdc:	0c000000 	jal	0 <func_8094F2C0>
    4fe0:	e7a00018 	swc1	$f0,24(sp)
    4fe4:	0c000000 	jal	0 <func_8094F2C0>
    4fe8:	02002025 	move	a0,s0
    4fec:	0c000000 	jal	0 <func_8094F2C0>
    4ff0:	00000000 	nop
    4ff4:	3c010000 	lui	at,0x0
    4ff8:	c4280000 	lwc1	$f8,0(at)
    4ffc:	02002025 	move	a0,s0
    5000:	4608003c 	c.lt.s	$f0,$f8
    5004:	00000000 	nop
    5008:	45020004 	bc1fl	501c <func_80954168+0x174>
    500c:	920b02e9 	lbu	t3,745(s0)
    5010:	0c000000 	jal	0 <func_8094F2C0>
    5014:	24053143 	li	a1,12611
    5018:	920b02e9 	lbu	t3,745(s0)
    501c:	02002025 	move	a0,s0
    5020:	316c0002 	andi	t4,t3,0x2
    5024:	51800006 	beqzl	t4,5040 <func_80954168+0x198>
    5028:	920d0114 	lbu	t5,276(s0)
    502c:	0c000000 	jal	0 <func_8094F2C0>
    5030:	8fa50044 	lw	a1,68(sp)
    5034:	10000021 	b	50bc <func_80954168+0x214>
    5038:	8fbf0034 	lw	ra,52(sp)
    503c:	920d0114 	lbu	t5,276(s0)
    5040:	3c010001 	lui	at,0x1
    5044:	8fa40044 	lw	a0,68(sp)
    5048:	15a00004 	bnez	t5,505c <func_80954168+0x1b4>
    504c:	34211e60 	ori	at,at,0x1e60
    5050:	00812821 	addu	a1,a0,at
    5054:	0c000000 	jal	0 <func_8094F2C0>
    5058:	260602d8 	addiu	a2,s0,728
    505c:	8e020198 	lw	v0,408(s0)
    5060:	8fa40044 	lw	a0,68(sp)
    5064:	02002825 	move	a1,s0
    5068:	304e0001 	andi	t6,v0,0x1
    506c:	15c00012 	bnez	t6,50b8 <func_80954168+0x210>
    5070:	24060001 	li	a2,1
    5074:	30580020 	andi	t8,v0,0x20
    5078:	0018c943 	sra	t9,t8,0x5
    507c:	27280001 	addiu	t0,t9,1
    5080:	44889000 	mtc1	t0,$f18
    5084:	3c0140a0 	lui	at,0x40a0
    5088:	44815000 	mtc1	at,$f10
    508c:	46809120 	cvt.s.w	$f4,$f18
    5090:	44808000 	mtc1	zero,$f16
    5094:	240f0005 	li	t7,5
    5098:	24090001 	li	t1,1
    509c:	afa90020 	sw	t1,32(sp)
    50a0:	afaf0018 	sw	t7,24(sp)
    50a4:	e7a4001c 	swc1	$f4,28(sp)
    50a8:	24070064 	li	a3,100
    50ac:	e7aa0010 	swc1	$f10,16(sp)
    50b0:	0c000000 	jal	0 <func_8094F2C0>
    50b4:	e7b00014 	swc1	$f16,20(sp)
    50b8:	8fbf0034 	lw	ra,52(sp)
    50bc:	8fb00030 	lw	s0,48(sp)
    50c0:	27bd0040 	addiu	sp,sp,64
    50c4:	03e00008 	jr	ra
    50c8:	00000000 	nop

000050cc <func_8095438C>:
    50cc:	3c030000 	lui	v1,0x0
    50d0:	3c080000 	lui	t0,0x0
    50d4:	25080000 	addiu	t0,t0,0
    50d8:	24630000 	addiu	v1,v1,0
    50dc:	27bdffc8 	addiu	sp,sp,-56
    50e0:	906e0000 	lbu	t6,0(v1)
    50e4:	91180000 	lbu	t8,0(t0)
    50e8:	afbf0034 	sw	ra,52(sp)
    50ec:	afb00030 	sw	s0,48(sp)
    50f0:	8482001c 	lh	v0,28(a0)
    50f4:	25cf0001 	addiu	t7,t6,1
    50f8:	27190001 	addiu	t9,t8,1
    50fc:	00808025 	move	s0,a0
    5100:	a06f0000 	sb	t7,0(v1)
    5104:	a1190000 	sb	t9,0(t0)
    5108:	3c0141a0 	lui	at,0x41a0
    510c:	44813000 	mtc1	at,$f6
    5110:	c60401b8 	lwc1	$f4,440(s0)
    5114:	8e0701b4 	lw	a3,436(s0)
    5118:	24420010 	addiu	v0,v0,16
    511c:	46062200 	add.s	$f8,$f4,$f6
    5120:	24a41c24 	addiu	a0,a1,7204
    5124:	240600ba 	li	a2,186
    5128:	e7a80010 	swc1	$f8,16(sp)
    512c:	c60a01bc 	lwc1	$f10,444(s0)
    5130:	afa00018 	sw	zero,24(sp)
    5134:	e7aa0014 	swc1	$f10,20(sp)
    5138:	860900b6 	lh	t1,182(s0)
    513c:	afa5003c 	sw	a1,60(sp)
    5140:	afa20024 	sw	v0,36(sp)
    5144:	afa00020 	sw	zero,32(sp)
    5148:	0c000000 	jal	0 <func_8094F2C0>
    514c:	afa9001c 	sw	t1,28(sp)
    5150:	8fa4003c 	lw	a0,60(sp)
    5154:	24050002 	li	a1,2
    5158:	2406000b 	li	a2,11
    515c:	24070008 	li	a3,8
    5160:	0c000000 	jal	0 <func_8094F2C0>
    5164:	248401e0 	addiu	a0,a0,480
    5168:	3c050000 	lui	a1,0x0
    516c:	a2000195 	sb	zero,405(s0)
    5170:	a600019c 	sh	zero,412(s0)
    5174:	24a50000 	addiu	a1,a1,0
    5178:	0c000000 	jal	0 <func_8094F2C0>
    517c:	02002025 	move	a0,s0
    5180:	8fbf0034 	lw	ra,52(sp)
    5184:	8fb00030 	lw	s0,48(sp)
    5188:	27bd0038 	addiu	sp,sp,56
    518c:	03e00008 	jr	ra
    5190:	00000000 	nop

00005194 <func_80954454>:
    5194:	27bdffb0 	addiu	sp,sp,-80
    5198:	afbf0034 	sw	ra,52(sp)
    519c:	afb00030 	sw	s0,48(sp)
    51a0:	afa50054 	sw	a1,84(sp)
    51a4:	8c8e0118 	lw	t6,280(a0)
    51a8:	00808025 	move	s0,a0
    51ac:	0c000000 	jal	0 <func_8094F2C0>
    51b0:	afae004c 	sw	t6,76(sp)
    51b4:	920f0194 	lbu	t7,404(s0)
    51b8:	3c040601 	lui	a0,0x601
    51bc:	51e00054 	beqzl	t7,5310 <func_80954454+0x17c>
    51c0:	8faa004c 	lw	t2,76(sp)
    51c4:	0c000000 	jal	0 <func_8094F2C0>
    51c8:	24847694 	addiu	a0,a0,30356
    51cc:	44822000 	mtc1	v0,$f4
    51d0:	00000000 	nop
    51d4:	468021a0 	cvt.s.w	$f6,$f4
    51d8:	e7a60048 	swc1	$f6,72(sp)
    51dc:	0c000000 	jal	0 <func_8094F2C0>
    51e0:	a2000194 	sb	zero,404(s0)
    51e4:	3c014120 	lui	at,0x4120
    51e8:	44814000 	mtc1	at,$f8
    51ec:	2604014c 	addiu	a0,s0,332
    51f0:	46080282 	mul.s	$f10,$f0,$f8
    51f4:	4600540d 	trunc.w.s	$f16,$f10
    51f8:	44198000 	mfc1	t9,$f16
    51fc:	00000000 	nop
    5200:	27280005 	addiu	t0,t9,5
    5204:	ae080198 	sw	t0,408(s0)
    5208:	afa4003c 	sw	a0,60(sp)
    520c:	0c000000 	jal	0 <func_8094F2C0>
    5210:	8fa50054 	lw	a1,84(sp)
    5214:	3c060601 	lui	a2,0x601
    5218:	3c070601 	lui	a3,0x601
    521c:	24e77694 	addiu	a3,a3,30356
    5220:	24c67fc8 	addiu	a2,a2,32712
    5224:	8fa40054 	lw	a0,84(sp)
    5228:	8fa5003c 	lw	a1,60(sp)
    522c:	afa00010 	sw	zero,16(sp)
    5230:	afa00014 	sw	zero,20(sp)
    5234:	0c000000 	jal	0 <func_8094F2C0>
    5238:	afa00018 	sw	zero,24(sp)
    523c:	44800000 	mtc1	zero,$f0
    5240:	c7b20048 	lwc1	$f18,72(sp)
    5244:	3c050601 	lui	a1,0x601
    5248:	24090002 	li	t1,2
    524c:	44070000 	mfc1	a3,$f0
    5250:	afa90014 	sw	t1,20(sp)
    5254:	24a57694 	addiu	a1,a1,30356
    5258:	8fa4003c 	lw	a0,60(sp)
    525c:	3c063f80 	lui	a2,0x3f80
    5260:	e7b20010 	swc1	$f18,16(sp)
    5264:	0c000000 	jal	0 <func_8094F2C0>
    5268:	e7a00018 	swc1	$f0,24(sp)
    526c:	3c010000 	lui	at,0x0
    5270:	a0200000 	sb	zero,0(at)
    5274:	8e020118 	lw	v0,280(s0)
    5278:	3c014270 	lui	at,0x4270
    527c:	44813000 	mtc1	at,$f6
    5280:	c44400bc 	lwc1	$f4,188(v0)
    5284:	24010001 	li	at,1
    5288:	46062201 	sub.s	$f8,$f4,$f6
    528c:	e44800bc 	swc1	$f8,188(v0)
    5290:	8603001c 	lh	v1,28(s0)
    5294:	50600008 	beqzl	v1,52b8 <func_80954454+0x124>
    5298:	8e020118 	lw	v0,280(s0)
    529c:	1061000a 	beq	v1,at,52c8 <func_80954454+0x134>
    52a0:	24010002 	li	at,2
    52a4:	50610012 	beql	v1,at,52f0 <func_80954454+0x15c>
    52a8:	8e020118 	lw	v0,280(s0)
    52ac:	10000018 	b	5310 <func_80954454+0x17c>
    52b0:	8faa004c 	lw	t2,76(sp)
    52b4:	8e020118 	lw	v0,280(s0)
    52b8:	844a0030 	lh	t2,48(v0)
    52bc:	254b04b0 	addiu	t3,t2,1200
    52c0:	10000012 	b	530c <func_80954454+0x178>
    52c4:	a44b0030 	sh	t3,48(v0)
    52c8:	8e020118 	lw	v0,280(s0)
    52cc:	844c0030 	lh	t4,48(v0)
    52d0:	258dfda8 	addiu	t5,t4,-600
    52d4:	a44d0030 	sh	t5,48(v0)
    52d8:	8e020118 	lw	v0,280(s0)
    52dc:	844e0034 	lh	t6,52(v0)
    52e0:	25cffb1e 	addiu	t7,t6,-1250
    52e4:	10000009 	b	530c <func_80954454+0x178>
    52e8:	a44f0034 	sh	t7,52(v0)
    52ec:	8e020118 	lw	v0,280(s0)
    52f0:	84580030 	lh	t8,48(v0)
    52f4:	2719fda8 	addiu	t9,t8,-600
    52f8:	a4590030 	sh	t9,48(v0)
    52fc:	8e020118 	lw	v0,280(s0)
    5300:	84480034 	lh	t0,52(v0)
    5304:	250904e2 	addiu	t1,t0,1250
    5308:	a4490034 	sh	t1,52(v0)
    530c:	8faa004c 	lw	t2,76(sp)
    5310:	260b014c 	addiu	t3,s0,332
    5314:	260401f6 	addiu	a0,s0,502
    5318:	854501f8 	lh	a1,504(t2)
    531c:	afab003c 	sw	t3,60(sp)
    5320:	afa00010 	sw	zero,16(sp)
    5324:	00050823 	negu	at,a1
    5328:	00012880 	sll	a1,at,0x2
    532c:	00a12823 	subu	a1,a1,at
    5330:	00052c00 	sll	a1,a1,0x10
    5334:	00052c03 	sra	a1,a1,0x10
    5338:	24060001 	li	a2,1
    533c:	0c000000 	jal	0 <func_8094F2C0>
    5340:	240704b0 	li	a3,1200
    5344:	0c000000 	jal	0 <func_8094F2C0>
    5348:	8fa4003c 	lw	a0,60(sp)
    534c:	10400014 	beqz	v0,53a0 <func_80954454+0x20c>
    5350:	3c040601 	lui	a0,0x601
    5354:	0c000000 	jal	0 <func_8094F2C0>
    5358:	248477f4 	addiu	a0,a0,30708
    535c:	44825000 	mtc1	v0,$f10
    5360:	44800000 	mtc1	zero,$f0
    5364:	3c050601 	lui	a1,0x601
    5368:	46805420 	cvt.s.w	$f16,$f10
    536c:	240c0001 	li	t4,1
    5370:	44070000 	mfc1	a3,$f0
    5374:	afac0014 	sw	t4,20(sp)
    5378:	24a577f4 	addiu	a1,a1,30708
    537c:	8fa4003c 	lw	a0,60(sp)
    5380:	e7b00010 	swc1	$f16,16(sp)
    5384:	3c063f80 	lui	a2,0x3f80
    5388:	0c000000 	jal	0 <func_8094F2C0>
    538c:	e7a00018 	swc1	$f0,24(sp)
    5390:	8e0d0004 	lw	t5,4(s0)
    5394:	2401fffe 	li	at,-2
    5398:	01a17024 	and	t6,t5,at
    539c:	ae0e0004 	sw	t6,4(s0)
    53a0:	8e0f0198 	lw	t7,408(s0)
    53a4:	3c180000 	lui	t8,0x0
    53a8:	15e00014 	bnez	t7,53fc <func_80954454+0x268>
    53ac:	00000000 	nop
    53b0:	83180000 	lb	t8,0(t8)
    53b4:	2b01000e 	slti	at,t8,14
    53b8:	10200010 	beqz	at,53fc <func_80954454+0x268>
    53bc:	00000000 	nop
    53c0:	0c000000 	jal	0 <func_8094F2C0>
    53c4:	00000000 	nop
    53c8:	3c014120 	lui	at,0x4120
    53cc:	44819000 	mtc1	at,$f18
    53d0:	260501b4 	addiu	a1,s0,436
    53d4:	860601f6 	lh	a2,502(s0)
    53d8:	46120102 	mul.s	$f4,$f0,$f18
    53dc:	860700b6 	lh	a3,182(s0)
    53e0:	4600218d 	trunc.w.s	$f6,$f4
    53e4:	44083000 	mfc1	t0,$f6
    53e8:	00000000 	nop
    53ec:	2509000a 	addiu	t1,t0,10
    53f0:	ae090198 	sw	t1,408(s0)
    53f4:	0c000000 	jal	0 <func_8094F2C0>
    53f8:	8fa40054 	lw	a0,84(sp)
    53fc:	3c020000 	lui	v0,0x0
    5400:	80420000 	lb	v0,0(v0)
    5404:	26040168 	addiu	a0,s0,360
    5408:	24050000 	li	a1,0
    540c:	2841000e 	slti	at,v0,14
    5410:	14200009 	bnez	at,5438 <func_80954454+0x2a4>
    5414:	3c063e99 	lui	a2,0x3e99
    5418:	3c013e00 	lui	at,0x3e00
    541c:	44814000 	mtc1	at,$f8
    5420:	34c6999a 	ori	a2,a2,0x999a
    5424:	3c073e80 	lui	a3,0x3e80
    5428:	0c000000 	jal	0 <func_8094F2C0>
    542c:	e7a80010 	swc1	$f8,16(sp)
    5430:	3c020000 	lui	v0,0x0
    5434:	80420000 	lb	v0,0(v0)
    5438:	24010013 	li	at,19
    543c:	1041000a 	beq	v0,at,5468 <func_80954454+0x2d4>
    5440:	3c040000 	lui	a0,0x0
    5444:	24010014 	li	at,20
    5448:	10410035 	beq	v0,at,5520 <func_80954454+0x38c>
    544c:	24010015 	li	at,21
    5450:	10410033 	beq	v0,at,5520 <func_80954454+0x38c>
    5454:	24010016 	li	at,22
    5458:	50410032 	beql	v0,at,5524 <func_80954454+0x390>
    545c:	92080195 	lbu	t0,405(s0)
    5460:	10000079 	b	5648 <func_80954454+0x4b4>
    5464:	8e020198 	lw	v0,408(s0)
    5468:	3c0a0000 	lui	t2,0x0
    546c:	254a0000 	addiu	t2,t2,0
    5470:	8d4c0000 	lw	t4,0(t2)
    5474:	24840000 	addiu	a0,a0,0
    5478:	3c020000 	lui	v0,0x0
    547c:	ac8c0000 	sw	t4,0(a0)
    5480:	8d4b0004 	lw	t3,4(t2)
    5484:	24420000 	addiu	v0,v0,0
    5488:	8c4f0000 	lw	t7,0(v0)
    548c:	ac8b0004 	sw	t3,4(a0)
    5490:	8d4c0008 	lw	t4,8(t2)
    5494:	3c0d0000 	lui	t5,0x0
    5498:	25ad0000 	addiu	t5,t5,0
    549c:	ac8c0008 	sw	t4,8(a0)
    54a0:	adaf0000 	sw	t7,0(t5)
    54a4:	8c4e0004 	lw	t6,4(v0)
    54a8:	44805000 	mtc1	zero,$f10
    54ac:	3c063f80 	lui	a2,0x3f80
    54b0:	adae0004 	sw	t6,4(t5)
    54b4:	8c4f0008 	lw	t7,8(v0)
    54b8:	3c074120 	lui	a3,0x4120
    54bc:	adaf0008 	sw	t7,8(t5)
    54c0:	8c450000 	lw	a1,0(v0)
    54c4:	0c000000 	jal	0 <func_8094F2C0>
    54c8:	e7aa0010 	swc1	$f10,16(sp)
    54cc:	44808000 	mtc1	zero,$f16
    54d0:	3c040000 	lui	a0,0x0
    54d4:	3c050000 	lui	a1,0x0
    54d8:	8ca50000 	lw	a1,0(a1)
    54dc:	24840000 	addiu	a0,a0,0
    54e0:	3c063f80 	lui	a2,0x3f80
    54e4:	3c074120 	lui	a3,0x4120
    54e8:	0c000000 	jal	0 <func_8094F2C0>
    54ec:	e7b00010 	swc1	$f16,16(sp)
    54f0:	3c020000 	lui	v0,0x0
    54f4:	24420000 	addiu	v0,v0,0
    54f8:	3c0141a0 	lui	at,0x41a0
    54fc:	44812000 	mtc1	at,$f4
    5500:	c4520004 	lwc1	$f18,4(v0)
    5504:	3c180000 	lui	t8,0x0
    5508:	3c010000 	lui	at,0x0
    550c:	46049180 	add.s	$f6,$f18,$f4
    5510:	e4460004 	swc1	$f6,4(v0)
    5514:	83180000 	lb	t8,0(t8)
    5518:	27190001 	addiu	t9,t8,1
    551c:	a0390000 	sb	t9,0(at)
    5520:	92080195 	lbu	t0,405(s0)
    5524:	8fa90054 	lw	t1,84(sp)
    5528:	3c0a0001 	lui	t2,0x1
    552c:	1500003d 	bnez	t0,5624 <func_80954454+0x490>
    5530:	01495021 	addu	t2,t2,t1
    5534:	8d4a1de4 	lw	t2,7652(t2)
    5538:	3c0140a0 	lui	at,0x40a0
    553c:	314b0001 	andi	t3,t2,0x1
    5540:	51600020 	beqzl	t3,55c4 <func_80954454+0x430>
    5544:	8608019c 	lh	t0,412(s0)
    5548:	44816000 	mtc1	at,$f12
    554c:	0c000000 	jal	0 <func_8094F2C0>
    5550:	00000000 	nop
    5554:	3c0140e0 	lui	at,0x40e0
    5558:	44815000 	mtc1	at,$f10
    555c:	3c0140a0 	lui	at,0x40a0
    5560:	44818000 	mtc1	at,$f16
    5564:	240d0002 	li	t5,2
    5568:	afad0018 	sw	t5,24(sp)
    556c:	e7aa0010 	swc1	$f10,16(sp)
    5570:	e7b00014 	swc1	$f16,20(sp)
    5574:	860e019c 	lh	t6,412(s0)
    5578:	4600020d 	trunc.w.s	$f8,$f0
    557c:	24190001 	li	t9,1
    5580:	000e78c3 	sra	t7,t6,0x3
    5584:	25f80001 	addiu	t8,t7,1
    5588:	44989000 	mtc1	t8,$f18
    558c:	44074000 	mfc1	a3,$f8
    5590:	afb90020 	sw	t9,32(sp)
    5594:	46809120 	cvt.s.w	$f4,$f18
    5598:	00073c00 	sll	a3,a3,0x10
    559c:	00073c03 	sra	a3,a3,0x10
    55a0:	24e70006 	addiu	a3,a3,6
    55a4:	00073c00 	sll	a3,a3,0x10
    55a8:	00073c03 	sra	a3,a3,0x10
    55ac:	e7a4001c 	swc1	$f4,28(sp)
    55b0:	8fa40054 	lw	a0,84(sp)
    55b4:	02002825 	move	a1,s0
    55b8:	0c000000 	jal	0 <func_8094F2C0>
    55bc:	24060001 	li	a2,1
    55c0:	8608019c 	lh	t0,412(s0)
    55c4:	240d0001 	li	t5,1
    55c8:	02002025 	move	a0,s0
    55cc:	25090001 	addiu	t1,t0,1
    55d0:	a609019c 	sh	t1,412(s0)
    55d4:	860a019c 	lh	t2,412(s0)
    55d8:	29410020 	slti	at,t2,32
    55dc:	5420001a 	bnezl	at,5648 <func_80954454+0x4b4>
    55e0:	8e020198 	lw	v0,408(s0)
    55e4:	920b0195 	lbu	t3,405(s0)
    55e8:	a20d0197 	sb	t5,407(s0)
    55ec:	24053945 	li	a1,14661
    55f0:	256c0001 	addiu	t4,t3,1
    55f4:	0c000000 	jal	0 <func_8094F2C0>
    55f8:	a20c0195 	sb	t4,405(s0)
    55fc:	860e001c 	lh	t6,28(s0)
    5600:	24010002 	li	at,2
    5604:	3c0f0000 	lui	t7,0x0
    5608:	55c1000f 	bnel	t6,at,5648 <func_80954454+0x4b4>
    560c:	8e020198 	lw	v0,408(s0)
    5610:	81ef0000 	lb	t7,0(t7)
    5614:	3c010000 	lui	at,0x0
    5618:	25f80001 	addiu	t8,t7,1
    561c:	10000009 	b	5644 <func_80954454+0x4b0>
    5620:	a0380000 	sb	t8,0(at)
    5624:	8619019c 	lh	t9,412(s0)
    5628:	2728ffff 	addiu	t0,t9,-1
    562c:	a608019c 	sh	t0,412(s0)
    5630:	8609019c 	lh	t1,412(s0)
    5634:	55200004 	bnezl	t1,5648 <func_80954454+0x4b4>
    5638:	8e020198 	lw	v0,408(s0)
    563c:	0c000000 	jal	0 <func_8094F2C0>
    5640:	02002025 	move	a0,s0
    5644:	8e020198 	lw	v0,408(s0)
    5648:	244affff 	addiu	t2,v0,-1
    564c:	ae0a0198 	sw	t2,408(s0)
    5650:	8fbf0034 	lw	ra,52(sp)
    5654:	8fb00030 	lw	s0,48(sp)
    5658:	27bd0050 	addiu	sp,sp,80
    565c:	03e00008 	jr	ra
    5660:	00000000 	nop

00005664 <func_80954924>:
    5664:	27bdffd8 	addiu	sp,sp,-40
    5668:	afa40028 	sw	a0,40(sp)
    566c:	afbf0024 	sw	ra,36(sp)
    5670:	3c040602 	lui	a0,0x602
    5674:	afa5002c 	sw	a1,44(sp)
    5678:	0c000000 	jal	0 <func_8094F2C0>
    567c:	24848150 	addiu	a0,a0,-32432
    5680:	44822000 	mtc1	v0,$f4
    5684:	44800000 	mtc1	zero,$f0
    5688:	8fa40028 	lw	a0,40(sp)
    568c:	468021a0 	cvt.s.w	$f6,$f4
    5690:	3c050602 	lui	a1,0x602
    5694:	240e0002 	li	t6,2
    5698:	44070000 	mfc1	a3,$f0
    569c:	afae0014 	sw	t6,20(sp)
    56a0:	24a58150 	addiu	a1,a1,-32432
    56a4:	e7a60010 	swc1	$f6,16(sp)
    56a8:	3c063f80 	lui	a2,0x3f80
    56ac:	2484014c 	addiu	a0,a0,332
    56b0:	0c000000 	jal	0 <func_8094F2C0>
    56b4:	e7a00018 	swc1	$f0,24(sp)
    56b8:	8fa40028 	lw	a0,40(sp)
    56bc:	2401fffe 	li	at,-2
    56c0:	3c050000 	lui	a1,0x0
    56c4:	8c8f0004 	lw	t7,4(a0)
    56c8:	24a50000 	addiu	a1,a1,0
    56cc:	01e1c024 	and	t8,t7,at
    56d0:	0c000000 	jal	0 <func_8094F2C0>
    56d4:	ac980004 	sw	t8,4(a0)
    56d8:	8fbf0024 	lw	ra,36(sp)
    56dc:	27bd0028 	addiu	sp,sp,40
    56e0:	03e00008 	jr	ra
    56e4:	00000000 	nop

000056e8 <func_809549A8>:
    56e8:	27bdffe8 	addiu	sp,sp,-24
    56ec:	afbf0014 	sw	ra,20(sp)
    56f0:	afa40018 	sw	a0,24(sp)
    56f4:	afa5001c 	sw	a1,28(sp)
    56f8:	0c000000 	jal	0 <func_8094F2C0>
    56fc:	2484014c 	addiu	a0,a0,332
    5700:	10400012 	beqz	v0,574c <func_809549A8+0x64>
    5704:	00000000 	nop
    5708:	0c000000 	jal	0 <func_8094F2C0>
    570c:	00000000 	nop
    5710:	3c010000 	lui	at,0x0
    5714:	c4240000 	lwc1	$f4,0(at)
    5718:	4604003c 	c.lt.s	$f0,$f4
    571c:	00000000 	nop
    5720:	4500000a 	bc1f	574c <func_809549A8+0x64>
    5724:	00000000 	nop
    5728:	0c000000 	jal	0 <func_8094F2C0>
    572c:	00000000 	nop
    5730:	3c014040 	lui	at,0x4040
    5734:	44814000 	mtc1	at,$f8
    5738:	8fa40018 	lw	a0,24(sp)
    573c:	46080282 	mul.s	$f10,$f0,$f8
    5740:	c4860164 	lwc1	$f6,356(a0)
    5744:	460a3401 	sub.s	$f16,$f6,$f10
    5748:	e4900164 	swc1	$f16,356(a0)
    574c:	3c0e0000 	lui	t6,0x0
    5750:	81ce0000 	lb	t6,0(t6)
    5754:	8fa40018 	lw	a0,24(sp)
    5758:	29c1000e 	slti	at,t6,14
    575c:	54200004 	bnezl	at,5770 <func_809549A8+0x88>
    5760:	8fbf0014 	lw	ra,20(sp)
    5764:	0c000000 	jal	0 <func_8094F2C0>
    5768:	00000000 	nop
    576c:	8fbf0014 	lw	ra,20(sp)
    5770:	27bd0018 	addiu	sp,sp,24
    5774:	03e00008 	jr	ra
    5778:	00000000 	nop

0000577c <func_80954A3C>:
    577c:	27bdffd8 	addiu	sp,sp,-40
    5780:	afa40028 	sw	a0,40(sp)
    5784:	afbf0024 	sw	ra,36(sp)
    5788:	3c040602 	lui	a0,0x602
    578c:	afa5002c 	sw	a1,44(sp)
    5790:	0c000000 	jal	0 <func_8094F2C0>
    5794:	24848d18 	addiu	a0,a0,-29416
    5798:	44822000 	mtc1	v0,$f4
    579c:	3c013f80 	lui	at,0x3f80
    57a0:	44811000 	mtc1	at,$f2
    57a4:	46802020 	cvt.s.w	$f0,$f4
    57a8:	3c01c0c0 	lui	at,0xc0c0
    57ac:	44814000 	mtc1	at,$f8
    57b0:	8fa40028 	lw	a0,40(sp)
    57b4:	3c050602 	lui	a1,0x602
    57b8:	240e0001 	li	t6,1
    57bc:	46020181 	sub.s	$f6,$f0,$f2
    57c0:	44061000 	mfc1	a2,$f2
    57c4:	afae0014 	sw	t6,20(sp)
    57c8:	24a58d18 	addiu	a1,a1,-29416
    57cc:	44073000 	mfc1	a3,$f6
    57d0:	e7a00010 	swc1	$f0,16(sp)
    57d4:	2484014c 	addiu	a0,a0,332
    57d8:	0c000000 	jal	0 <func_8094F2C0>
    57dc:	e7a80018 	swc1	$f8,24(sp)
    57e0:	8fa40028 	lw	a0,40(sp)
    57e4:	2401fffe 	li	at,-2
    57e8:	3c050000 	lui	a1,0x0
    57ec:	8c8f0004 	lw	t7,4(a0)
    57f0:	24a50000 	addiu	a1,a1,0
    57f4:	01e1c024 	and	t8,t7,at
    57f8:	0c000000 	jal	0 <func_8094F2C0>
    57fc:	ac980004 	sw	t8,4(a0)
    5800:	8fbf0024 	lw	ra,36(sp)
    5804:	27bd0028 	addiu	sp,sp,40
    5808:	03e00008 	jr	ra
    580c:	00000000 	nop

00005810 <func_80954AD0>:
    5810:	27bdffd8 	addiu	sp,sp,-40
    5814:	afbf0024 	sw	ra,36(sp)
    5818:	afb00020 	sw	s0,32(sp)
    581c:	00808025 	move	s0,a0
    5820:	0c000000 	jal	0 <func_8094F2C0>
    5824:	afa5002c 	sw	a1,44(sp)
    5828:	3c020000 	lui	v0,0x0
    582c:	80420000 	lb	v0,0(v0)
    5830:	2401000a 	li	at,10
    5834:	10410009 	beq	v0,at,585c <func_80954AD0+0x4c>
    5838:	2401000b 	li	at,11
    583c:	10410007 	beq	v0,at,585c <func_80954AD0+0x4c>
    5840:	2401000c 	li	at,12
    5844:	10410005 	beq	v0,at,585c <func_80954AD0+0x4c>
    5848:	2401000d 	li	at,13
    584c:	10410007 	beq	v0,at,586c <func_80954AD0+0x5c>
    5850:	02002025 	move	a0,s0
    5854:	10000008 	b	5878 <func_80954AD0+0x68>
    5858:	860e00b6 	lh	t6,182(s0)
    585c:	0c000000 	jal	0 <func_8094F2C0>
    5860:	2604014c 	addiu	a0,s0,332
    5864:	10000004 	b	5878 <func_80954AD0+0x68>
    5868:	860e00b6 	lh	t6,182(s0)
    586c:	0c000000 	jal	0 <func_8094F2C0>
    5870:	8fa5002c 	lw	a1,44(sp)
    5874:	860e00b6 	lh	t6,182(s0)
    5878:	860f00b4 	lh	t7,180(s0)
    587c:	afa00010 	sw	zero,16(sp)
    5880:	260401f2 	addiu	a0,s0,498
    5884:	01cf2823 	subu	a1,t6,t7
    5888:	00052c00 	sll	a1,a1,0x10
    588c:	00052c03 	sra	a1,a1,0x10
    5890:	24060001 	li	a2,1
    5894:	0c000000 	jal	0 <func_8094F2C0>
    5898:	240702ee 	li	a3,750
    589c:	8e18016c 	lw	t8,364(s0)
    58a0:	260401f0 	addiu	a0,s0,496
    58a4:	24060001 	li	a2,1
    58a8:	8705002e 	lh	a1,46(t8)
    58ac:	afa00010 	sw	zero,16(sp)
    58b0:	0c000000 	jal	0 <func_8094F2C0>
    58b4:	240702ee 	li	a3,750
    58b8:	8fbf0024 	lw	ra,36(sp)
    58bc:	8fb00020 	lw	s0,32(sp)
    58c0:	27bd0028 	addiu	sp,sp,40
    58c4:	03e00008 	jr	ra
    58c8:	00000000 	nop

000058cc <func_80954B8C>:
    58cc:	27bdffd8 	addiu	sp,sp,-40
    58d0:	afa40028 	sw	a0,40(sp)
    58d4:	afbf0024 	sw	ra,36(sp)
    58d8:	3c040602 	lui	a0,0x602
    58dc:	afa5002c 	sw	a1,44(sp)
    58e0:	0c000000 	jal	0 <func_8094F2C0>
    58e4:	24848d18 	addiu	a0,a0,-29416
    58e8:	44822000 	mtc1	v0,$f4
    58ec:	3c013f80 	lui	at,0x3f80
    58f0:	44811000 	mtc1	at,$f2
    58f4:	46802020 	cvt.s.w	$f0,$f4
    58f8:	3c01c0c0 	lui	at,0xc0c0
    58fc:	44814000 	mtc1	at,$f8
    5900:	8fa40028 	lw	a0,40(sp)
    5904:	3c050602 	lui	a1,0x602
    5908:	240e0001 	li	t6,1
    590c:	46020181 	sub.s	$f6,$f0,$f2
    5910:	44061000 	mfc1	a2,$f2
    5914:	afae0014 	sw	t6,20(sp)
    5918:	24a58d18 	addiu	a1,a1,-29416
    591c:	44073000 	mfc1	a3,$f6
    5920:	e7a00010 	swc1	$f0,16(sp)
    5924:	2484014c 	addiu	a0,a0,332
    5928:	0c000000 	jal	0 <func_8094F2C0>
    592c:	e7a80018 	swc1	$f8,24(sp)
    5930:	8fa40028 	lw	a0,40(sp)
    5934:	2401fffe 	li	at,-2
    5938:	3c050000 	lui	a1,0x0
    593c:	8c8f0004 	lw	t7,4(a0)
    5940:	24a50000 	addiu	a1,a1,0
    5944:	01e1c024 	and	t8,t7,at
    5948:	0c000000 	jal	0 <func_8094F2C0>
    594c:	ac980004 	sw	t8,4(a0)
    5950:	8fbf0024 	lw	ra,36(sp)
    5954:	27bd0028 	addiu	sp,sp,40
    5958:	03e00008 	jr	ra
    595c:	00000000 	nop

00005960 <func_80954C20>:
    5960:	27bdff58 	addiu	sp,sp,-168
    5964:	afbf0034 	sw	ra,52(sp)
    5968:	afb00030 	sw	s0,48(sp)
    596c:	8cae1c44 	lw	t6,7236(a1)
    5970:	00808025 	move	s0,a0
    5974:	240f01f4 	li	t7,500
    5978:	a7af0090 	sh	t7,144(sp)
    597c:	00a02025 	move	a0,a1
    5980:	afa500ac 	sw	a1,172(sp)
    5984:	0c000000 	jal	0 <func_8094F2C0>
    5988:	afae00a4 	sw	t6,164(sp)
    598c:	10400007 	beqz	v0,59ac <func_80954C20+0x4c>
    5990:	8fa900a4 	lw	t1,164(sp)
    5994:	8c4301cc 	lw	v1,460(v0)
    5998:	8fb800a4 	lw	t8,164(sp)
    599c:	50600004 	beqzl	v1,59b0 <func_80954C20+0x50>
    59a0:	8d2b0024 	lw	t3,36(t1)
    59a4:	17030010 	bne	t8,v1,59e8 <func_80954C20+0x88>
    59a8:	3c0d0000 	lui	t5,0x0
    59ac:	8d2b0024 	lw	t3,36(t1)
    59b0:	27b9007c 	addiu	t9,sp,124
    59b4:	3c014120 	lui	at,0x4120
    59b8:	af2b0000 	sw	t3,0(t9)
    59bc:	8d2a0028 	lw	t2,40(t1)
    59c0:	44813000 	mtc1	at,$f6
    59c4:	240c3e80 	li	t4,16000
    59c8:	af2a0004 	sw	t2,4(t9)
    59cc:	8d2b002c 	lw	t3,44(t1)
    59d0:	af2b0008 	sw	t3,8(t9)
    59d4:	c7a40080 	lwc1	$f4,128(sp)
    59d8:	a7ac008e 	sh	t4,142(sp)
    59dc:	46062200 	add.s	$f8,$f4,$f6
    59e0:	10000091 	b	5c28 <func_80954C20+0x2c8>
    59e4:	e7a80080 	swc1	$f8,128(sp)
    59e8:	8dad0000 	lw	t5,0(t5)
    59ec:	3c013f00 	lui	at,0x3f00
    59f0:	44819000 	mtc1	at,$f18
    59f4:	85ae0110 	lh	t6,272(t5)
    59f8:	240f4650 	li	t7,18000
    59fc:	a7af008e 	sh	t7,142(sp)
    5a00:	448e5000 	mtc1	t6,$f10
    5a04:	27a4007c 	addiu	a0,sp,124
    5a08:	24650038 	addiu	a1,v1,56
    5a0c:	46805420 	cvt.s.w	$f16,$f10
    5a10:	46128102 	mul.s	$f4,$f16,$f18
    5a14:	e7a40074 	swc1	$f4,116(sp)
    5a18:	8c590024 	lw	t9,36(v0)
    5a1c:	ac990000 	sw	t9,0(a0)
    5a20:	8c580028 	lw	t8,40(v0)
    5a24:	ac980004 	sw	t8,4(a0)
    5a28:	8c59002c 	lw	t9,44(v0)
    5a2c:	ac990008 	sw	t9,8(a0)
    5a30:	84490032 	lh	t1,50(v0)
    5a34:	a7a9006c 	sh	t1,108(sp)
    5a38:	844a0030 	lh	t2,48(v0)
    5a3c:	a7aa0056 	sh	t2,86(sp)
    5a40:	904701d4 	lbu	a3,468(v0)
    5a44:	28e10003 	slti	at,a3,3
    5a48:	54200076 	bnezl	at,5c24 <func_80954C20+0x2c4>
    5a4c:	240f3e80 	li	t7,16000
    5a50:	afa5003c 	sw	a1,60(sp)
    5a54:	afa70070 	sw	a3,112(sp)
    5a58:	27a4007c 	addiu	a0,sp,124
    5a5c:	0c000000 	jal	0 <func_8094F2C0>
    5a60:	8fa5003c 	lw	a1,60(sp)
    5a64:	87ab006c 	lh	t3,108(sp)
    5a68:	a7a2006e 	sh	v0,110(sp)
    5a6c:	27a4007c 	addiu	a0,sp,124
    5a70:	01621823 	subu	v1,t3,v0
    5a74:	00031c00 	sll	v1,v1,0x10
    5a78:	00031c03 	sra	v1,v1,0x10
    5a7c:	a7a3005a 	sh	v1,90(sp)
    5a80:	0c000000 	jal	0 <func_8094F2C0>
    5a84:	8fa5003c 	lw	a1,60(sp)
    5a88:	87ac0056 	lh	t4,86(sp)
    5a8c:	a7a20058 	sh	v0,88(sp)
    5a90:	27a4007c 	addiu	a0,sp,124
    5a94:	01823823 	subu	a3,t4,v0
    5a98:	00073c00 	sll	a3,a3,0x10
    5a9c:	00073c03 	sra	a3,a3,0x10
    5aa0:	a7a70054 	sh	a3,84(sp)
    5aa4:	0c000000 	jal	0 <func_8094F2C0>
    5aa8:	8fa5003c 	lw	a1,60(sp)
    5aac:	3c010000 	lui	at,0x0
    5ab0:	c42e0000 	lwc1	$f14,0(at)
    5ab4:	3c014348 	lui	at,0x4348
    5ab8:	44813000 	mtc1	at,$f6
    5abc:	3c010000 	lui	at,0x0
    5ac0:	c42a0000 	lwc1	$f10,0(at)
    5ac4:	46003201 	sub.s	$f8,$f6,$f0
    5ac8:	87a3005a 	lh	v1,90(sp)
    5acc:	87a70054 	lh	a3,84(sp)
    5ad0:	460a4302 	mul.s	$f12,$f8,$f10
    5ad4:	460e603c 	c.lt.s	$f12,$f14
    5ad8:	00000000 	nop
    5adc:	45000002 	bc1f	5ae8 <func_80954C20+0x188>
    5ae0:	00000000 	nop
    5ae4:	46007306 	mov.s	$f12,$f14
    5ae8:	04630005 	bgezl	v1,5b00 <func_80954C20+0x1a0>
    5aec:	44838000 	mtc1	v1,$f16
    5af0:	00031823 	negu	v1,v1
    5af4:	00031c00 	sll	v1,v1,0x10
    5af8:	00031c03 	sra	v1,v1,0x10
    5afc:	44838000 	mtc1	v1,$f16
    5b00:	04e10004 	bgez	a3,5b14 <func_80954C20+0x1b4>
    5b04:	468084a0 	cvt.s.w	$f18,$f16
    5b08:	00073823 	negu	a3,a3
    5b0c:	00073c00 	sll	a3,a3,0x10
    5b10:	00073c03 	sra	a3,a3,0x10
    5b14:	460c9102 	mul.s	$f4,$f18,$f12
    5b18:	27a4006c 	addiu	a0,sp,108
    5b1c:	87a5006e 	lh	a1,110(sp)
    5b20:	a7a70054 	sh	a3,84(sp)
    5b24:	e7ac0050 	swc1	$f12,80(sp)
    5b28:	4600218d 	trunc.w.s	$f6,$f4
    5b2c:	44063000 	mfc1	a2,$f6
    5b30:	00000000 	nop
    5b34:	00063400 	sll	a2,a2,0x10
    5b38:	0c000000 	jal	0 <func_8094F2C0>
    5b3c:	00063403 	sra	a2,a2,0x10
    5b40:	87a70054 	lh	a3,84(sp)
    5b44:	c7ac0050 	lwc1	$f12,80(sp)
    5b48:	27a40056 	addiu	a0,sp,86
    5b4c:	44874000 	mtc1	a3,$f8
    5b50:	87a50058 	lh	a1,88(sp)
    5b54:	468042a0 	cvt.s.w	$f10,$f8
    5b58:	460c5402 	mul.s	$f16,$f10,$f12
    5b5c:	4600848d 	trunc.w.s	$f18,$f16
    5b60:	44069000 	mfc1	a2,$f18
    5b64:	00000000 	nop
    5b68:	00063400 	sll	a2,a2,0x10
    5b6c:	0c000000 	jal	0 <func_8094F2C0>
    5b70:	00063403 	sra	a2,a2,0x10
    5b74:	0c000000 	jal	0 <func_8094F2C0>
    5b78:	87a40056 	lh	a0,86(sp)
    5b7c:	3c014140 	lui	at,0x4140
    5b80:	44813000 	mtc1	at,$f6
    5b84:	46000107 	neg.s	$f4,$f0
    5b88:	87a40056 	lh	a0,86(sp)
    5b8c:	46062202 	mul.s	$f8,$f4,$f6
    5b90:	0c000000 	jal	0 <func_8094F2C0>
    5b94:	e7a80068 	swc1	$f8,104(sp)
    5b98:	3c014140 	lui	at,0x4140
    5b9c:	44815000 	mtc1	at,$f10
    5ba0:	87a4006c 	lh	a0,108(sp)
    5ba4:	460a0402 	mul.s	$f16,$f0,$f10
    5ba8:	0c000000 	jal	0 <func_8094F2C0>
    5bac:	e7b0005c 	swc1	$f16,92(sp)
    5bb0:	c7b2005c 	lwc1	$f18,92(sp)
    5bb4:	87a4006c 	lh	a0,108(sp)
    5bb8:	46120102 	mul.s	$f4,$f0,$f18
    5bbc:	0c000000 	jal	0 <func_8094F2C0>
    5bc0:	e7a40064 	swc1	$f4,100(sp)
    5bc4:	c7a20074 	lwc1	$f2,116(sp)
    5bc8:	c7a80064 	lwc1	$f8,100(sp)
    5bcc:	c7a6007c 	lwc1	$f6,124(sp)
    5bd0:	c7a40068 	lwc1	$f4,104(sp)
    5bd4:	46024282 	mul.s	$f10,$f8,$f2
    5bd8:	c7b20080 	lwc1	$f18,128(sp)
    5bdc:	8fa20070 	lw	v0,112(sp)
    5be0:	46022202 	mul.s	$f8,$f4,$f2
    5be4:	2442ffff 	addiu	v0,v0,-1
    5be8:	28410003 	slti	at,v0,3
    5bec:	afa20070 	sw	v0,112(sp)
    5bf0:	460a3400 	add.s	$f16,$f6,$f10
    5bf4:	c7aa0084 	lwc1	$f10,132(sp)
    5bf8:	46089180 	add.s	$f6,$f18,$f8
    5bfc:	e7b0007c 	swc1	$f16,124(sp)
    5c00:	c7b0005c 	lwc1	$f16,92(sp)
    5c04:	e7a60080 	swc1	$f6,128(sp)
    5c08:	46100102 	mul.s	$f4,$f0,$f16
    5c0c:	00000000 	nop
    5c10:	46022482 	mul.s	$f18,$f4,$f2
    5c14:	46125200 	add.s	$f8,$f10,$f18
    5c18:	1020ff8f 	beqz	at,5a58 <func_80954C20+0xf8>
    5c1c:	e7a80084 	swc1	$f8,132(sp)
    5c20:	240f3e80 	li	t7,16000
    5c24:	a7af0090 	sh	t7,144(sp)
    5c28:	0c000000 	jal	0 <func_8094F2C0>
    5c2c:	2604014c 	addiu	a0,s0,332
    5c30:	0c000000 	jal	0 <func_8094F2C0>
    5c34:	02002025 	move	a0,s0
    5c38:	3c020000 	lui	v0,0x0
    5c3c:	90420000 	lbu	v0,0(v0)
    5c40:	02002025 	move	a0,s0
    5c44:	3c180000 	lui	t8,0x0
    5c48:	2841000f 	slti	at,v0,15
    5c4c:	14200005 	bnez	at,5c64 <func_80954C20+0x304>
    5c50:	00000000 	nop
    5c54:	0c000000 	jal	0 <func_8094F2C0>
    5c58:	8fa500ac 	lw	a1,172(sp)
    5c5c:	100001ca 	b	6388 <func_80954C20+0xa28>
    5c60:	8fbf0034 	lw	ra,52(sp)
    5c64:	93180000 	lbu	t8,0(t8)
    5c68:	02002025 	move	a0,s0
    5c6c:	2841000f 	slti	at,v0,15
    5c70:	3319007f 	andi	t9,t8,0x7f
    5c74:	13200005 	beqz	t9,5c8c <func_80954C20+0x32c>
    5c78:	00000000 	nop
    5c7c:	0c000000 	jal	0 <func_8094F2C0>
    5c80:	8fa500ac 	lw	a1,172(sp)
    5c84:	100001c0 	b	6388 <func_80954C20+0xa28>
    5c88:	8fbf0034 	lw	ra,52(sp)
    5c8c:	1020000d 	beqz	at,5cc4 <func_80954C20+0x364>
    5c90:	27a4007c 	addiu	a0,sp,124
    5c94:	8e090118 	lw	t1,280(s0)
    5c98:	44803000 	mtc1	zero,$f6
    5c9c:	8fa500ac 	lw	a1,172(sp)
    5ca0:	c5300068 	lwc1	$f16,104(t1)
    5ca4:	46103032 	c.eq.s	$f6,$f16
    5ca8:	00000000 	nop
    5cac:	45010005 	bc1t	5cc4 <func_80954C20+0x364>
    5cb0:	00000000 	nop
    5cb4:	0c000000 	jal	0 <func_8094F2C0>
    5cb8:	02002025 	move	a0,s0
    5cbc:	100001b2 	b	6388 <func_80954C20+0xa28>
    5cc0:	8fbf0034 	lw	ra,52(sp)
    5cc4:	0c000000 	jal	0 <func_8094F2C0>
    5cc8:	260501b4 	addiu	a1,s0,436
    5ccc:	860600b6 	lh	a2,182(s0)
    5cd0:	00024400 	sll	t0,v0,0x10
    5cd4:	00084403 	sra	t0,t0,0x10
    5cd8:	00462023 	subu	a0,v0,a2
    5cdc:	00042400 	sll	a0,a0,0x10
    5ce0:	00042403 	sra	a0,a0,0x10
    5ce4:	04800003 	bltz	a0,5cf4 <func_80954C20+0x394>
    5ce8:	87aa008e 	lh	t2,142(sp)
    5cec:	10000002 	b	5cf8 <func_80954C20+0x398>
    5cf0:	00801825 	move	v1,a0
    5cf4:	00041823 	negu	v1,a0
    5cf8:	0143082a 	slt	at,t2,v1
    5cfc:	10200004 	beqz	at,5d10 <func_80954C20+0x3b0>
    5d00:	3c0b0000 	lui	t3,0x0
    5d04:	92030195 	lbu	v1,405(s0)
    5d08:	106000c2 	beqz	v1,6014 <func_80954C20+0x6b4>
    5d0c:	00000000 	nop
    5d10:	916b0000 	lbu	t3,0(t3)
    5d14:	92030195 	lbu	v1,405(s0)
    5d18:	8fad00a4 	lw	t5,164(sp)
    5d1c:	316c0080 	andi	t4,t3,0x80
    5d20:	158000bc 	bnez	t4,6014 <func_80954C20+0x6b4>
    5d24:	00000000 	nop
    5d28:	8dae067c 	lw	t6,1660(t5)
    5d2c:	000e7940 	sll	t7,t6,0x5
    5d30:	05e000b8 	bltz	t7,6014 <func_80954C20+0x6b4>
    5d34:	00000000 	nop
    5d38:	146000b4 	bnez	v1,600c <func_80954C20+0x6ac>
    5d3c:	00462823 	subu	a1,v0,a2
    5d40:	00052c00 	sll	a1,a1,0x10
    5d44:	00052c03 	sra	a1,a1,0x10
    5d48:	04a00003 	bltz	a1,5d58 <func_80954C20+0x3f8>
    5d4c:	260401e6 	addiu	a0,s0,486
    5d50:	10000002 	b	5d5c <func_80954C20+0x3fc>
    5d54:	00a01825 	move	v1,a1
    5d58:	00051823 	negu	v1,a1
    5d5c:	28611771 	slti	at,v1,6001
    5d60:	14200006 	bnez	at,5d7c <func_80954C20+0x41c>
    5d64:	24060001 	li	a2,1
    5d68:	58a00004 	blezl	a1,5d7c <func_80954C20+0x41c>
    5d6c:	2405e890 	li	a1,-6000
    5d70:	10000002 	b	5d7c <func_80954C20+0x41c>
    5d74:	24051770 	li	a1,6000
    5d78:	2405e890 	li	a1,-6000
    5d7c:	240706d6 	li	a3,1750
    5d80:	afa00010 	sw	zero,16(sp)
    5d84:	a7a50094 	sh	a1,148(sp)
    5d88:	0c000000 	jal	0 <func_8094F2C0>
    5d8c:	a7a80098 	sh	t0,152(sp)
    5d90:	87a50094 	lh	a1,148(sp)
    5d94:	04400005 	bltz	v0,5dac <func_80954C20+0x44c>
    5d98:	87a80098 	lh	t0,152(sp)
    5d9c:	00024c00 	sll	t1,v0,0x10
    5da0:	00095403 	sra	t2,t1,0x10
    5da4:	10000005 	b	5dbc <func_80954C20+0x45c>
    5da8:	afaa0088 	sw	t2,136(sp)
    5dac:	00025c00 	sll	t3,v0,0x10
    5db0:	000b6403 	sra	t4,t3,0x10
    5db4:	000c6823 	negu	t5,t4
    5db8:	afad0088 	sw	t5,136(sp)
    5dbc:	01052823 	subu	a1,t0,a1
    5dc0:	00052c00 	sll	a1,a1,0x10
    5dc4:	00052c03 	sra	a1,a1,0x10
    5dc8:	04a00003 	bltz	a1,5dd8 <func_80954C20+0x478>
    5dcc:	260401ec 	addiu	a0,s0,492
    5dd0:	10000002 	b	5ddc <func_80954C20+0x47c>
    5dd4:	00a01825 	move	v1,a1
    5dd8:	00051823 	negu	v1,a1
    5ddc:	28611771 	slti	at,v1,6001
    5de0:	14200006 	bnez	at,5dfc <func_80954C20+0x49c>
    5de4:	24060001 	li	a2,1
    5de8:	58a00004 	blezl	a1,5dfc <func_80954C20+0x49c>
    5dec:	2405e890 	li	a1,-6000
    5df0:	10000002 	b	5dfc <func_80954C20+0x49c>
    5df4:	24051770 	li	a1,6000
    5df8:	2405e890 	li	a1,-6000
    5dfc:	240706d6 	li	a3,1750
    5e00:	0c000000 	jal	0 <func_8094F2C0>
    5e04:	afa00010 	sw	zero,16(sp)
    5e08:	04400004 	bltz	v0,5e1c <func_80954C20+0x4bc>
    5e0c:	8fae0088 	lw	t6,136(sp)
    5e10:	00021c00 	sll	v1,v0,0x10
    5e14:	10000004 	b	5e28 <func_80954C20+0x4c8>
    5e18:	00031c03 	sra	v1,v1,0x10
    5e1c:	00021c00 	sll	v1,v0,0x10
    5e20:	00031c03 	sra	v1,v1,0x10
    5e24:	00031823 	negu	v1,v1
    5e28:	01c37821 	addu	t7,t6,v1
    5e2c:	260401cc 	addiu	a0,s0,460
    5e30:	afaf0088 	sw	t7,136(sp)
    5e34:	afa4003c 	sw	a0,60(sp)
    5e38:	0c000000 	jal	0 <func_8094F2C0>
    5e3c:	27a5007c 	addiu	a1,sp,124
    5e40:	2445c000 	addiu	a1,v0,-16384
    5e44:	00052c00 	sll	a1,a1,0x10
    5e48:	00052c03 	sra	a1,a1,0x10
    5e4c:	260401f2 	addiu	a0,s0,498
    5e50:	24060001 	li	a2,1
    5e54:	240709c4 	li	a3,2500
    5e58:	0c000000 	jal	0 <func_8094F2C0>
    5e5c:	afa00010 	sw	zero,16(sp)
    5e60:	04400004 	bltz	v0,5e74 <func_80954C20+0x514>
    5e64:	8fb80088 	lw	t8,136(sp)
    5e68:	00021c00 	sll	v1,v0,0x10
    5e6c:	10000004 	b	5e80 <func_80954C20+0x520>
    5e70:	00031c03 	sra	v1,v1,0x10
    5e74:	00021c00 	sll	v1,v0,0x10
    5e78:	00031c03 	sra	v1,v1,0x10
    5e7c:	00031823 	negu	v1,v1
    5e80:	0303c821 	addu	t9,t8,v1
    5e84:	afb90088 	sw	t9,136(sp)
    5e88:	8e02016c 	lw	v0,364(s0)
    5e8c:	860a00b4 	lh	t2,180(s0)
    5e90:	27a4007c 	addiu	a0,sp,124
    5e94:	84490022 	lh	t1,34(v0)
    5e98:	844c000a 	lh	t4,10(v0)
    5e9c:	844e0010 	lh	t6,16(v0)
    5ea0:	012a5821 	addu	t3,t1,t2
    5ea4:	84580016 	lh	t8,22(v0)
    5ea8:	8449001c 	lh	t1,28(v0)
    5eac:	016c6821 	addu	t5,t3,t4
    5eb0:	01ae7821 	addu	t7,t5,t6
    5eb4:	01f8c821 	addu	t9,t7,t8
    5eb8:	03295021 	addu	t2,t9,t1
    5ebc:	a7aa0096 	sh	t2,150(sp)
    5ec0:	0c000000 	jal	0 <func_8094F2C0>
    5ec4:	260501c0 	addiu	a1,s0,448
    5ec8:	87ab0096 	lh	t3,150(sp)
    5ecc:	260401ea 	addiu	a0,s0,490
    5ed0:	24060001 	li	a2,1
    5ed4:	004b2823 	subu	a1,v0,t3
    5ed8:	00052c00 	sll	a1,a1,0x10
    5edc:	00052c03 	sra	a1,a1,0x10
    5ee0:	24070fa0 	li	a3,4000
    5ee4:	0c000000 	jal	0 <func_8094F2C0>
    5ee8:	afa00010 	sw	zero,16(sp)
    5eec:	04400004 	bltz	v0,5f00 <func_80954C20+0x5a0>
    5ef0:	8fac0088 	lw	t4,136(sp)
    5ef4:	00021c00 	sll	v1,v0,0x10
    5ef8:	10000004 	b	5f0c <func_80954C20+0x5ac>
    5efc:	00031c03 	sra	v1,v1,0x10
    5f00:	00021c00 	sll	v1,v0,0x10
    5f04:	00031c03 	sra	v1,v1,0x10
    5f08:	00031823 	negu	v1,v1
    5f0c:	01836821 	addu	t5,t4,v1
    5f10:	afad0088 	sw	t5,136(sp)
    5f14:	8fa4003c 	lw	a0,60(sp)
    5f18:	0c000000 	jal	0 <func_8094F2C0>
    5f1c:	27a5007c 	addiu	a1,sp,124
    5f20:	00022823 	negu	a1,v0
    5f24:	00052c00 	sll	a1,a1,0x10
    5f28:	00052c03 	sra	a1,a1,0x10
    5f2c:	260401f0 	addiu	a0,s0,496
    5f30:	24060001 	li	a2,1
    5f34:	24070fa0 	li	a3,4000
    5f38:	0c000000 	jal	0 <func_8094F2C0>
    5f3c:	afa00010 	sw	zero,16(sp)
    5f40:	04400004 	bltz	v0,5f54 <func_80954C20+0x5f4>
    5f44:	3c013f80 	lui	at,0x3f80
    5f48:	00021c00 	sll	v1,v0,0x10
    5f4c:	10000004 	b	5f60 <func_80954C20+0x600>
    5f50:	00031c03 	sra	v1,v1,0x10
    5f54:	00021c00 	sll	v1,v0,0x10
    5f58:	00031c03 	sra	v1,v1,0x10
    5f5c:	00031823 	negu	v1,v1
    5f60:	8fae0088 	lw	t6,136(sp)
    5f64:	44801000 	mtc1	zero,$f2
    5f68:	44810000 	mtc1	at,$f0
    5f6c:	01c37821 	addu	t7,t6,v1
    5f70:	afaf0088 	sw	t7,136(sp)
    5f74:	e6020168 	swc1	$f2,360(s0)
    5f78:	44051000 	mfc1	a1,$f2
    5f7c:	44060000 	mfc1	a2,$f0
    5f80:	26040164 	addiu	a0,s0,356
    5f84:	3c074000 	lui	a3,0x4000
    5f88:	0c000000 	jal	0 <func_8094F2C0>
    5f8c:	e7a20010 	swc1	$f2,16(sp)
    5f90:	44802000 	mtc1	zero,$f4
    5f94:	8fb80088 	lw	t8,136(sp)
    5f98:	87b90090 	lh	t9,144(sp)
    5f9c:	46040032 	c.eq.s	$f0,$f4
    5fa0:	0319082b 	sltu	at,t8,t9
    5fa4:	45000019 	bc1f	600c <func_80954C20+0x6ac>
    5fa8:	00000000 	nop
    5fac:	1020000c 	beqz	at,5fe0 <func_80954C20+0x680>
    5fb0:	00000000 	nop
    5fb4:	92090195 	lbu	t1,405(s0)
    5fb8:	a600019c 	sh	zero,412(s0)
    5fbc:	27ab007c 	addiu	t3,sp,124
    5fc0:	252a0001 	addiu	t2,t1,1
    5fc4:	a20a0195 	sb	t2,405(s0)
    5fc8:	8d6d0000 	lw	t5,0(t3)
    5fcc:	ae0d01d8 	sw	t5,472(s0)
    5fd0:	8d6c0004 	lw	t4,4(t3)
    5fd4:	ae0c01dc 	sw	t4,476(s0)
    5fd8:	8d6d0008 	lw	t5,8(t3)
    5fdc:	ae0d01e0 	sw	t5,480(s0)
    5fe0:	0c000000 	jal	0 <func_8094F2C0>
    5fe4:	00000000 	nop
    5fe8:	3c010000 	lui	at,0x0
    5fec:	c42a0000 	lwc1	$f10,0(at)
    5ff0:	02002025 	move	a0,s0
    5ff4:	460a003c 	c.lt.s	$f0,$f10
    5ff8:	00000000 	nop
    5ffc:	45000003 	bc1f	600c <func_80954C20+0x6ac>
    6000:	00000000 	nop
    6004:	0c000000 	jal	0 <func_8094F2C0>
    6008:	24053143 	li	a1,12611
    600c:	1000005d 	b	6184 <func_80954C20+0x824>
    6010:	92030195 	lbu	v1,405(s0)
    6014:	54600005 	bnezl	v1,602c <func_80954C20+0x6cc>
    6018:	920f0348 	lbu	t7,840(s0)
    601c:	860e019c 	lh	t6,412(s0)
    6020:	05c3002a 	bgezl	t6,60cc <func_80954C20+0x76c>
    6024:	260401e6 	addiu	a0,s0,486
    6028:	920f0348 	lbu	t7,840(s0)
    602c:	8603019c 	lh	v1,412(s0)
    6030:	31f80002 	andi	t8,t7,0x2
    6034:	1300000e 	beqz	t8,6070 <func_80954C20+0x710>
    6038:	00000000 	nop
    603c:	18600010 	blez	v1,6080 <func_80954C20+0x720>
    6040:	02002025 	move	a0,s0
    6044:	0c000000 	jal	0 <func_8094F2C0>
    6048:	24053946 	li	a1,14662
    604c:	0c000000 	jal	0 <func_8094F2C0>
    6050:	8fa400ac 	lw	a0,172(sp)
    6054:	8e0a0118 	lw	t2,280(s0)
    6058:	2419ffff 	li	t9,-1
    605c:	a619019c 	sh	t9,412(s0)
    6060:	24090006 	li	t1,6
    6064:	a1490194 	sb	t1,404(t2)
    6068:	10000005 	b	6080 <func_80954C20+0x720>
    606c:	8603019c 	lh	v1,412(s0)
    6070:	18600003 	blez	v1,6080 <func_80954C20+0x720>
    6074:	00000000 	nop
    6078:	a600019c 	sh	zero,412(s0)
    607c:	8603019c 	lh	v1,412(s0)
    6080:	04610011 	bgez	v1,60c8 <func_80954C20+0x768>
    6084:	8fab00a4 	lw	t3,164(sp)
    6088:	8d6c067c 	lw	t4,1660(t3)
    608c:	8fa400ac 	lw	a0,172(sp)
    6090:	02002825 	move	a1,s0
    6094:	000c6940 	sll	t5,t4,0x5
    6098:	05a1000b 	bgez	t5,60c8 <func_80954C20+0x768>
    609c:	24060001 	li	a2,1
    60a0:	44800000 	mtc1	zero,$f0
    60a4:	240e0006 	li	t6,6
    60a8:	240f0001 	li	t7,1
    60ac:	afaf0020 	sw	t7,32(sp)
    60b0:	afae0018 	sw	t6,24(sp)
    60b4:	2407001e 	li	a3,30
    60b8:	e7a00010 	swc1	$f0,16(sp)
    60bc:	e7a00014 	swc1	$f0,20(sp)
    60c0:	0c000000 	jal	0 <func_8094F2C0>
    60c4:	e7a0001c 	swc1	$f0,28(sp)
    60c8:	260401e6 	addiu	a0,s0,486
    60cc:	00002825 	move	a1,zero
    60d0:	24060001 	li	a2,1
    60d4:	240706d6 	li	a3,1750
    60d8:	0c000000 	jal	0 <func_8094F2C0>
    60dc:	afa00010 	sw	zero,16(sp)
    60e0:	260401ec 	addiu	a0,s0,492
    60e4:	00002825 	move	a1,zero
    60e8:	24060001 	li	a2,1
    60ec:	240706d6 	li	a3,1750
    60f0:	0c000000 	jal	0 <func_8094F2C0>
    60f4:	afa00010 	sw	zero,16(sp)
    60f8:	260401ea 	addiu	a0,s0,490
    60fc:	00002825 	move	a1,zero
    6100:	24060001 	li	a2,1
    6104:	240706d6 	li	a3,1750
    6108:	0c000000 	jal	0 <func_8094F2C0>
    610c:	afa00010 	sw	zero,16(sp)
    6110:	861800b6 	lh	t8,182(s0)
    6114:	861900b4 	lh	t9,180(s0)
    6118:	afa00010 	sw	zero,16(sp)
    611c:	260401f2 	addiu	a0,s0,498
    6120:	03192823 	subu	a1,t8,t9
    6124:	00052c00 	sll	a1,a1,0x10
    6128:	00052c03 	sra	a1,a1,0x10
    612c:	24060001 	li	a2,1
    6130:	0c000000 	jal	0 <func_8094F2C0>
    6134:	240706d6 	li	a3,1750
    6138:	8e09016c 	lw	t1,364(s0)
    613c:	260401f0 	addiu	a0,s0,496
    6140:	24060001 	li	a2,1
    6144:	8525002e 	lh	a1,46(t1)
    6148:	afa00010 	sw	zero,16(sp)
    614c:	0c000000 	jal	0 <func_8094F2C0>
    6150:	240706d6 	li	a3,1750
    6154:	3c013f80 	lui	at,0x3f80
    6158:	44810000 	mtc1	at,$f0
    615c:	44809000 	mtc1	zero,$f18
    6160:	3c073d4c 	lui	a3,0x3d4c
    6164:	44050000 	mfc1	a1,$f0
    6168:	44060000 	mfc1	a2,$f0
    616c:	34e7cccd 	ori	a3,a3,0xcccd
    6170:	26040168 	addiu	a0,s0,360
    6174:	0c000000 	jal	0 <func_8094F2C0>
    6178:	e7b20010 	swc1	$f18,16(sp)
    617c:	a2000195 	sb	zero,405(s0)
    6180:	300300ff 	andi	v1,zero,0xff
    6184:	1060007f 	beqz	v1,6384 <func_80954C20+0xa24>
    6188:	24010002 	li	at,2
    618c:	5061007e 	beql	v1,at,6388 <func_80954C20+0xa28>
    6190:	8fbf0034 	lw	ra,52(sp)
    6194:	8603019c 	lh	v1,412(s0)
    6198:	8fa400ac 	lw	a0,172(sp)
    619c:	02002825 	move	a1,s0
    61a0:	28610020 	slti	at,v1,32
    61a4:	14200044 	bnez	at,62b8 <func_80954C20+0x958>
    61a8:	24060002 	li	a2,2
    61ac:	24010020 	li	at,32
    61b0:	14610003 	bne	v1,at,61c0 <func_80954C20+0x860>
    61b4:	02002025 	move	a0,s0
    61b8:	0c000000 	jal	0 <func_8094F2C0>
    61bc:	24053942 	li	a1,14658
    61c0:	3c014170 	lui	at,0x4170
    61c4:	44810000 	mtc1	at,$f0
    61c8:	3c0140a0 	lui	at,0x40a0
    61cc:	44814000 	mtc1	at,$f8
    61d0:	240a0003 	li	t2,3
    61d4:	240b0001 	li	t3,1
    61d8:	afab0020 	sw	t3,32(sp)
    61dc:	afaa0018 	sw	t2,24(sp)
    61e0:	8fa400ac 	lw	a0,172(sp)
    61e4:	02002825 	move	a1,s0
    61e8:	24060002 	li	a2,2
    61ec:	2407006e 	li	a3,110
    61f0:	e7a00010 	swc1	$f0,16(sp)
    61f4:	e7a00014 	swc1	$f0,20(sp)
    61f8:	0c000000 	jal	0 <func_8094F2C0>
    61fc:	e7a8001c 	swc1	$f8,28(sp)
    6200:	3c014170 	lui	at,0x4170
    6204:	44810000 	mtc1	at,$f0
    6208:	3c0140c0 	lui	at,0x40c0
    620c:	44813000 	mtc1	at,$f6
    6210:	240c0003 	li	t4,3
    6214:	240d0001 	li	t5,1
    6218:	afad0020 	sw	t5,32(sp)
    621c:	afac0018 	sw	t4,24(sp)
    6220:	8fa400ac 	lw	a0,172(sp)
    6224:	02002825 	move	a1,s0
    6228:	24060002 	li	a2,2
    622c:	2407006e 	li	a3,110
    6230:	e7a00010 	swc1	$f0,16(sp)
    6234:	e7a00014 	swc1	$f0,20(sp)
    6238:	0c000000 	jal	0 <func_8094F2C0>
    623c:	e7a6001c 	swc1	$f6,28(sp)
    6240:	3c014170 	lui	at,0x4170
    6244:	44810000 	mtc1	at,$f0
    6248:	3c0140e0 	lui	at,0x40e0
    624c:	44818000 	mtc1	at,$f16
    6250:	240e0003 	li	t6,3
    6254:	240f0001 	li	t7,1
    6258:	afaf0020 	sw	t7,32(sp)
    625c:	afae0018 	sw	t6,24(sp)
    6260:	8fa400ac 	lw	a0,172(sp)
    6264:	02002825 	move	a1,s0
    6268:	24060002 	li	a2,2
    626c:	2407006e 	li	a3,110
    6270:	e7a00010 	swc1	$f0,16(sp)
    6274:	e7a00014 	swc1	$f0,20(sp)
    6278:	0c000000 	jal	0 <func_8094F2C0>
    627c:	e7b0001c 	swc1	$f16,28(sp)
    6280:	8fa400ac 	lw	a0,172(sp)
    6284:	3c010001 	lui	at,0x1
    6288:	34211e60 	ori	at,at,0x1e60
    628c:	26060338 	addiu	a2,s0,824
    6290:	00812821 	addu	a1,a0,at
    6294:	afa5003c 	sw	a1,60(sp)
    6298:	0c000000 	jal	0 <func_8094F2C0>
    629c:	afa60038 	sw	a2,56(sp)
    62a0:	8fa5003c 	lw	a1,60(sp)
    62a4:	8fa60038 	lw	a2,56(sp)
    62a8:	0c000000 	jal	0 <func_8094F2C0>
    62ac:	8fa400ac 	lw	a0,172(sp)
    62b0:	1000002d 	b	6368 <func_80954C20+0xa08>
    62b4:	8603019c 	lh	v1,412(s0)
    62b8:	0003c8c3 	sra	t9,v1,0x3
    62bc:	27290001 	addiu	t1,t9,1
    62c0:	44895000 	mtc1	t1,$f10
    62c4:	3c014170 	lui	at,0x4170
    62c8:	44810000 	mtc1	at,$f0
    62cc:	468054a0 	cvt.s.w	$f18,$f10
    62d0:	44802000 	mtc1	zero,$f4
    62d4:	24180005 	li	t8,5
    62d8:	240a0001 	li	t2,1
    62dc:	afaa0020 	sw	t2,32(sp)
    62e0:	afb80018 	sw	t8,24(sp)
    62e4:	e7b2001c 	swc1	$f18,28(sp)
    62e8:	24070032 	li	a3,50
    62ec:	e7a00010 	swc1	$f0,16(sp)
    62f0:	0c000000 	jal	0 <func_8094F2C0>
    62f4:	e7a40014 	swc1	$f4,20(sp)
    62f8:	8603019c 	lh	v1,412(s0)
    62fc:	2401001e 	li	at,30
    6300:	54610005 	bnel	v1,at,6318 <func_80954C20+0x9b8>
    6304:	24010014 	li	at,20
    6308:	0c000000 	jal	0 <func_8094F2C0>
    630c:	8fa400ac 	lw	a0,172(sp)
    6310:	8603019c 	lh	v1,412(s0)
    6314:	24010014 	li	at,20
    6318:	54610014 	bnel	v1,at,636c <func_80954C20+0xa0c>
    631c:	246f0001 	addiu	t7,v1,1
    6320:	8e0c01cc 	lw	t4,460(s0)
    6324:	27a70044 	addiu	a3,sp,68
    6328:	3c050000 	lui	a1,0x0
    632c:	acec0000 	sw	t4,0(a3)
    6330:	8e0b01d0 	lw	t3,464(s0)
    6334:	260d01f6 	addiu	t5,s0,502
    6338:	240e0064 	li	t6,100
    633c:	aceb0004 	sw	t3,4(a3)
    6340:	8e0c01d4 	lw	t4,468(s0)
    6344:	24a50000 	addiu	a1,a1,0
    6348:	02003025 	move	a2,s0
    634c:	acec0008 	sw	t4,8(a3)
    6350:	afa00018 	sw	zero,24(sp)
    6354:	afae0014 	sw	t6,20(sp)
    6358:	afad0010 	sw	t5,16(sp)
    635c:	0c000000 	jal	0 <func_8094F2C0>
    6360:	8fa400ac 	lw	a0,172(sp)
    6364:	8603019c 	lh	v1,412(s0)
    6368:	246f0001 	addiu	t7,v1,1
    636c:	a60f019c 	sh	t7,412(s0)
    6370:	8618019c 	lh	t8,412(s0)
    6374:	2b010028 	slti	at,t8,40
    6378:	54200003 	bnezl	at,6388 <func_80954C20+0xa28>
    637c:	8fbf0034 	lw	ra,52(sp)
    6380:	a2000195 	sb	zero,405(s0)
    6384:	8fbf0034 	lw	ra,52(sp)
    6388:	8fb00030 	lw	s0,48(sp)
    638c:	27bd00a8 	addiu	sp,sp,168
    6390:	03e00008 	jr	ra
    6394:	00000000 	nop

00006398 <func_80955658>:
    6398:	27bdffd0 	addiu	sp,sp,-48
    639c:	afbf002c 	sw	ra,44(sp)
    63a0:	afb00028 	sw	s0,40(sp)
    63a4:	00808025 	move	s0,a0
    63a8:	0c000000 	jal	0 <func_8094F2C0>
    63ac:	afa50034 	sw	a1,52(sp)
    63b0:	3c013f00 	lui	at,0x3f00
    63b4:	44812000 	mtc1	at,$f4
    63b8:	3c040602 	lui	a0,0x602
    63bc:	4600203c 	c.lt.s	$f4,$f0
    63c0:	00000000 	nop
    63c4:	45000014 	bc1f	6418 <func_80955658+0x80>
    63c8:	00000000 	nop
    63cc:	3c040602 	lui	a0,0x602
    63d0:	0c000000 	jal	0 <func_8094F2C0>
    63d4:	24848a68 	addiu	a0,a0,-30104
    63d8:	44823000 	mtc1	v0,$f6
    63dc:	3c014080 	lui	at,0x4080
    63e0:	44815000 	mtc1	at,$f10
    63e4:	46803220 	cvt.s.w	$f8,$f6
    63e8:	3c050602 	lui	a1,0x602
    63ec:	240e0003 	li	t6,3
    63f0:	afae0014 	sw	t6,20(sp)
    63f4:	24a58a68 	addiu	a1,a1,-30104
    63f8:	2604014c 	addiu	a0,s0,332
    63fc:	e7a80010 	swc1	$f8,16(sp)
    6400:	3c063f00 	lui	a2,0x3f00
    6404:	24070000 	li	a3,0
    6408:	0c000000 	jal	0 <func_8094F2C0>
    640c:	e7aa0018 	swc1	$f10,24(sp)
    6410:	10000012 	b	645c <func_80955658+0xc4>
    6414:	2418000c 	li	t8,12
    6418:	0c000000 	jal	0 <func_8094F2C0>
    641c:	24848b90 	addiu	a0,a0,-29808
    6420:	44828000 	mtc1	v0,$f16
    6424:	3c014080 	lui	at,0x4080
    6428:	44812000 	mtc1	at,$f4
    642c:	468084a0 	cvt.s.w	$f18,$f16
    6430:	3c050602 	lui	a1,0x602
    6434:	240f0003 	li	t7,3
    6438:	afaf0014 	sw	t7,20(sp)
    643c:	24a58b90 	addiu	a1,a1,-29808
    6440:	2604014c 	addiu	a0,s0,332
    6444:	e7b20010 	swc1	$f18,16(sp)
    6448:	3c063f00 	lui	a2,0x3f00
    644c:	24070000 	li	a3,0
    6450:	0c000000 	jal	0 <func_8094F2C0>
    6454:	e7a40018 	swc1	$f4,24(sp)
    6458:	2418000c 	li	t8,12
    645c:	afb80010 	sw	t8,16(sp)
    6460:	02002025 	move	a0,s0
    6464:	00002825 	move	a1,zero
    6468:	240600ff 	li	a2,255
    646c:	0c000000 	jal	0 <func_8094F2C0>
    6470:	00003825 	move	a3,zero
    6474:	3c050000 	lui	a1,0x0
    6478:	a2000195 	sb	zero,405(s0)
    647c:	24a50000 	addiu	a1,a1,0
    6480:	0c000000 	jal	0 <func_8094F2C0>
    6484:	02002025 	move	a0,s0
    6488:	8fbf002c 	lw	ra,44(sp)
    648c:	8fb00028 	lw	s0,40(sp)
    6490:	27bd0030 	addiu	sp,sp,48
    6494:	03e00008 	jr	ra
    6498:	00000000 	nop

0000649c <func_8095575C>:
    649c:	27bdffd8 	addiu	sp,sp,-40
    64a0:	afbf0024 	sw	ra,36(sp)
    64a4:	afb00020 	sw	s0,32(sp)
    64a8:	00808025 	move	s0,a0
    64ac:	0c000000 	jal	0 <func_8094F2C0>
    64b0:	afa5002c 	sw	a1,44(sp)
    64b4:	260401e6 	addiu	a0,s0,486
    64b8:	00002825 	move	a1,zero
    64bc:	24060001 	li	a2,1
    64c0:	24070fa0 	li	a3,4000
    64c4:	0c000000 	jal	0 <func_8094F2C0>
    64c8:	afa00010 	sw	zero,16(sp)
    64cc:	260401e4 	addiu	a0,s0,484
    64d0:	00002825 	move	a1,zero
    64d4:	24060001 	li	a2,1
    64d8:	24070fa0 	li	a3,4000
    64dc:	0c000000 	jal	0 <func_8094F2C0>
    64e0:	afa00010 	sw	zero,16(sp)
    64e4:	260401ec 	addiu	a0,s0,492
    64e8:	00002825 	move	a1,zero
    64ec:	24060001 	li	a2,1
    64f0:	24070fa0 	li	a3,4000
    64f4:	0c000000 	jal	0 <func_8094F2C0>
    64f8:	afa00010 	sw	zero,16(sp)
    64fc:	260401ea 	addiu	a0,s0,490
    6500:	00002825 	move	a1,zero
    6504:	24060001 	li	a2,1
    6508:	24070fa0 	li	a3,4000
    650c:	0c000000 	jal	0 <func_8094F2C0>
    6510:	afa00010 	sw	zero,16(sp)
    6514:	860e00b6 	lh	t6,182(s0)
    6518:	860f00b4 	lh	t7,180(s0)
    651c:	afa00010 	sw	zero,16(sp)
    6520:	260401f2 	addiu	a0,s0,498
    6524:	01cf2823 	subu	a1,t6,t7
    6528:	00052c00 	sll	a1,a1,0x10
    652c:	00052c03 	sra	a1,a1,0x10
    6530:	24060001 	li	a2,1
    6534:	0c000000 	jal	0 <func_8094F2C0>
    6538:	240702ee 	li	a3,750
    653c:	8e18016c 	lw	t8,364(s0)
    6540:	260401f0 	addiu	a0,s0,496
    6544:	24060001 	li	a2,1
    6548:	8705002e 	lh	a1,46(t8)
    654c:	afa00010 	sw	zero,16(sp)
    6550:	0c000000 	jal	0 <func_8094F2C0>
    6554:	240702ee 	li	a3,750
    6558:	0c000000 	jal	0 <func_8094F2C0>
    655c:	2604014c 	addiu	a0,s0,332
    6560:	1040000d 	beqz	v0,6598 <func_8095575C+0xfc>
    6564:	3c190000 	lui	t9,0x0
    6568:	93390000 	lbu	t9,0(t9)
    656c:	8fa5002c 	lw	a1,44(sp)
    6570:	02002025 	move	a0,s0
    6574:	2b21000f 	slti	at,t9,15
    6578:	14200005 	bnez	at,6590 <func_8095575C+0xf4>
    657c:	00000000 	nop
    6580:	0c000000 	jal	0 <func_8094F2C0>
    6584:	02002025 	move	a0,s0
    6588:	10000004 	b	659c <func_8095575C+0x100>
    658c:	8fbf0024 	lw	ra,36(sp)
    6590:	0c000000 	jal	0 <func_8094F2C0>
    6594:	8fa5002c 	lw	a1,44(sp)
    6598:	8fbf0024 	lw	ra,36(sp)
    659c:	8fb00020 	lw	s0,32(sp)
    65a0:	27bd0028 	addiu	sp,sp,40
    65a4:	03e00008 	jr	ra
    65a8:	00000000 	nop

000065ac <func_8095586C>:
    65ac:	27bdffc0 	addiu	sp,sp,-64
    65b0:	afb00028 	sw	s0,40(sp)
    65b4:	00808025 	move	s0,a0
    65b8:	afbf002c 	sw	ra,44(sp)
    65bc:	3c040602 	lui	a0,0x602
    65c0:	afa50044 	sw	a1,68(sp)
    65c4:	0c000000 	jal	0 <func_8094F2C0>
    65c8:	24848d18 	addiu	a0,a0,-29416
    65cc:	44822000 	mtc1	v0,$f4
    65d0:	00000000 	nop
    65d4:	468021a0 	cvt.s.w	$f6,$f4
    65d8:	0c000000 	jal	0 <func_8094F2C0>
    65dc:	e7a6003c 	swc1	$f6,60(sp)
    65e0:	0c000000 	jal	0 <func_8094F2C0>
    65e4:	e7a00034 	swc1	$f0,52(sp)
    65e8:	3c013e80 	lui	at,0x3e80
    65ec:	44815000 	mtc1	at,$f10
    65f0:	3c014040 	lui	at,0x4040
    65f4:	44819000 	mtc1	at,$f18
    65f8:	c7a80034 	lwc1	$f8,52(sp)
    65fc:	3c01c0c0 	lui	at,0xc0c0
    6600:	46120102 	mul.s	$f4,$f0,$f18
    6604:	460a4400 	add.s	$f16,$f8,$f10
    6608:	44814000 	mtc1	at,$f8
    660c:	c7a6003c 	lwc1	$f6,60(sp)
    6610:	3c050602 	lui	a1,0x602
    6614:	44068000 	mfc1	a2,$f16
    6618:	240e0001 	li	t6,1
    661c:	44072000 	mfc1	a3,$f4
    6620:	afae0014 	sw	t6,20(sp)
    6624:	24a58d18 	addiu	a1,a1,-29416
    6628:	2604014c 	addiu	a0,s0,332
    662c:	e7a60010 	swc1	$f6,16(sp)
    6630:	0c000000 	jal	0 <func_8094F2C0>
    6634:	e7a80018 	swc1	$f8,24(sp)
    6638:	860f001c 	lh	t7,28(s0)
    663c:	3c050000 	lui	a1,0x0
    6640:	a2000195 	sb	zero,405(s0)
    6644:	000f0823 	negu	at,t7
    6648:	0001c080 	sll	t8,at,0x2
    664c:	0301c023 	subu	t8,t8,at
    6650:	0018c040 	sll	t8,t8,0x1
    6654:	27190012 	addiu	t9,t8,18
    6658:	a619019c 	sh	t9,412(s0)
    665c:	a60001b0 	sh	zero,432(s0)
    6660:	24a50000 	addiu	a1,a1,0
    6664:	0c000000 	jal	0 <func_8094F2C0>
    6668:	02002025 	move	a0,s0
    666c:	8fbf002c 	lw	ra,44(sp)
    6670:	8fb00028 	lw	s0,40(sp)
    6674:	27bd0040 	addiu	sp,sp,64
    6678:	03e00008 	jr	ra
    667c:	00000000 	nop

00006680 <func_80955940>:
    6680:	27bdffc0 	addiu	sp,sp,-64
    6684:	3c01425c 	lui	at,0x425c
    6688:	44812000 	mtc1	at,$f4
    668c:	afbf0034 	sw	ra,52(sp)
    6690:	afb00030 	sw	s0,48(sp)
    6694:	00808025 	move	s0,a0
    6698:	afa50044 	sw	a1,68(sp)
    669c:	0c000000 	jal	0 <func_8094F2C0>
    66a0:	e7a4003c 	swc1	$f4,60(sp)
    66a4:	8fae0044 	lw	t6,68(sp)
    66a8:	3c0f0001 	lui	t7,0x1
    66ac:	01ee7821 	addu	t7,t7,t6
    66b0:	8def1de4 	lw	t7,7652(t7)
    66b4:	31f8001f 	andi	t8,t7,0x1f
    66b8:	1700001d 	bnez	t8,6730 <func_80955940+0xb0>
    66bc:	3c190000 	lui	t9,0x0
    66c0:	83390000 	lb	t9,0(t9)
    66c4:	2b210010 	slti	at,t9,16
    66c8:	10200019 	beqz	at,6730 <func_80955940+0xb0>
    66cc:	3c014680 	lui	at,0x4680
    66d0:	44816000 	mtc1	at,$f12
    66d4:	0c000000 	jal	0 <func_8094F2C0>
    66d8:	00000000 	nop
    66dc:	4600018d 	trunc.w.s	$f6,$f0
    66e0:	3c014680 	lui	at,0x4680
    66e4:	44816000 	mtc1	at,$f12
    66e8:	44093000 	mfc1	t1,$f6
    66ec:	0c000000 	jal	0 <func_8094F2C0>
    66f0:	a60901e8 	sh	t1,488(s0)
    66f4:	4600020d 	trunc.w.s	$f8,$f0
    66f8:	3c014680 	lui	at,0x4680
    66fc:	44816000 	mtc1	at,$f12
    6700:	440b4000 	mfc1	t3,$f8
    6704:	0c000000 	jal	0 <func_8094F2C0>
    6708:	a60b01ee 	sh	t3,494(s0)
    670c:	4600028d 	trunc.w.s	$f10,$f0
    6710:	861800b6 	lh	t8,182(s0)
    6714:	860800b4 	lh	t0,180(s0)
    6718:	440f5000 	mfc1	t7,$f10
    671c:	00000000 	nop
    6720:	01f8c821 	addu	t9,t7,t8
    6724:	03284823 	subu	t1,t9,t0
    6728:	10000009 	b	6750 <func_80955940+0xd0>
    672c:	a60901f4 	sh	t1,500(s0)
    6730:	44808000 	mtc1	zero,$f16
    6734:	3c073ccc 	lui	a3,0x3ccc
    6738:	34e7cccd 	ori	a3,a3,0xcccd
    673c:	26040168 	addiu	a0,s0,360
    6740:	24050000 	li	a1,0
    6744:	3c063f80 	lui	a2,0x3f80
    6748:	0c000000 	jal	0 <func_8094F2C0>
    674c:	e7b00010 	swc1	$f16,16(sp)
    6750:	0c000000 	jal	0 <func_8094F2C0>
    6754:	2604014c 	addiu	a0,s0,332
    6758:	3c0143fa 	lui	at,0x43fa
    675c:	44816000 	mtc1	at,$f12
    6760:	0c000000 	jal	0 <func_8094F2C0>
    6764:	00000000 	nop
    6768:	4600048d 	trunc.w.s	$f18,$f0
    676c:	860501e8 	lh	a1,488(s0)
    6770:	afa00010 	sw	zero,16(sp)
    6774:	260401e6 	addiu	a0,s0,486
    6778:	44079000 	mfc1	a3,$f18
    677c:	24060001 	li	a2,1
    6780:	00073c00 	sll	a3,a3,0x10
    6784:	00073c03 	sra	a3,a3,0x10
    6788:	24e701f4 	addiu	a3,a3,500
    678c:	00073c00 	sll	a3,a3,0x10
    6790:	0c000000 	jal	0 <func_8094F2C0>
    6794:	00073c03 	sra	a3,a3,0x10
    6798:	260401e4 	addiu	a0,s0,484
    679c:	00002825 	move	a1,zero
    67a0:	24060001 	li	a2,1
    67a4:	240701f4 	li	a3,500
    67a8:	0c000000 	jal	0 <func_8094F2C0>
    67ac:	afa00010 	sw	zero,16(sp)
    67b0:	3c0143fa 	lui	at,0x43fa
    67b4:	44816000 	mtc1	at,$f12
    67b8:	0c000000 	jal	0 <func_8094F2C0>
    67bc:	00000000 	nop
    67c0:	4600010d 	trunc.w.s	$f4,$f0
    67c4:	860501ee 	lh	a1,494(s0)
    67c8:	afa00010 	sw	zero,16(sp)
    67cc:	260401ec 	addiu	a0,s0,492
    67d0:	44072000 	mfc1	a3,$f4
    67d4:	24060001 	li	a2,1
    67d8:	00073c00 	sll	a3,a3,0x10
    67dc:	00073c03 	sra	a3,a3,0x10
    67e0:	24e701f4 	addiu	a3,a3,500
    67e4:	00073c00 	sll	a3,a3,0x10
    67e8:	0c000000 	jal	0 <func_8094F2C0>
    67ec:	00073c03 	sra	a3,a3,0x10
    67f0:	260401ea 	addiu	a0,s0,490
    67f4:	00002825 	move	a1,zero
    67f8:	24060001 	li	a2,1
    67fc:	240701f4 	li	a3,500
    6800:	0c000000 	jal	0 <func_8094F2C0>
    6804:	afa00010 	sw	zero,16(sp)
    6808:	3c0143fa 	lui	at,0x43fa
    680c:	44816000 	mtc1	at,$f12
    6810:	0c000000 	jal	0 <func_8094F2C0>
    6814:	00000000 	nop
    6818:	4600018d 	trunc.w.s	$f6,$f0
    681c:	860501f4 	lh	a1,500(s0)
    6820:	afa00010 	sw	zero,16(sp)
    6824:	260401f2 	addiu	a0,s0,498
    6828:	44073000 	mfc1	a3,$f6
    682c:	24060001 	li	a2,1
    6830:	00073c00 	sll	a3,a3,0x10
    6834:	00073c03 	sra	a3,a3,0x10
    6838:	24e701f4 	addiu	a3,a3,500
    683c:	00073c00 	sll	a3,a3,0x10
    6840:	0c000000 	jal	0 <func_8094F2C0>
    6844:	00073c03 	sra	a3,a3,0x10
    6848:	3c050000 	lui	a1,0x0
    684c:	24a50000 	addiu	a1,a1,0
    6850:	80a20000 	lb	v0,0(a1)
    6854:	24010010 	li	at,16
    6858:	1041000b 	beq	v0,at,6888 <func_80955940+0x208>
    685c:	24010011 	li	at,17
    6860:	10410005 	beq	v0,at,6878 <func_80955940+0x1f8>
    6864:	24010012 	li	at,18
    6868:	50410008 	beql	v0,at,688c <func_80955940+0x20c>
    686c:	92040195 	lbu	a0,405(s0)
    6870:	100000c8 	b	6b94 <func_80955940+0x514>
    6874:	8fbf0034 	lw	ra,52(sp)
    6878:	3c01c25c 	lui	at,0xc25c
    687c:	44814000 	mtc1	at,$f8
    6880:	00000000 	nop
    6884:	e7a8003c 	swc1	$f8,60(sp)
    6888:	92040195 	lbu	a0,405(s0)
    688c:	548000b2 	bnezl	a0,6b58 <func_80955940+0x4d8>
    6890:	8619019c 	lh	t9,412(s0)
    6894:	8603001c 	lh	v1,28(s0)
    6898:	24010003 	li	at,3
    689c:	54610005 	bnel	v1,at,68b4 <func_80955940+0x234>
    68a0:	24010004 	li	at,4
    68a4:	8602019c 	lh	v0,412(s0)
    68a8:	28410010 	slti	at,v0,16
    68ac:	1420000a 	bnez	at,68d8 <func_80955940+0x258>
    68b0:	24010004 	li	at,4
    68b4:	54610005 	bnel	v1,at,68cc <func_80955940+0x24c>
    68b8:	24010005 	li	at,5
    68bc:	8602019c 	lh	v0,412(s0)
    68c0:	28410018 	slti	at,v0,24
    68c4:	14200004 	bnez	at,68d8 <func_80955940+0x258>
    68c8:	24010005 	li	at,5
    68cc:	1461006b 	bne	v1,at,6a7c <func_80955940+0x3fc>
    68d0:	248d0001 	addiu	t5,a0,1
    68d4:	8602019c 	lh	v0,412(s0)
    68d8:	304d0001 	andi	t5,v0,0x1
    68dc:	55a00055 	bnezl	t5,6a34 <func_80955940+0x3b4>
    68e0:	24480001 	addiu	t0,v0,1
    68e4:	04400052 	bltz	v0,6a30 <func_80955940+0x3b0>
    68e8:	28410008 	slti	at,v0,8
    68ec:	1020001b 	beqz	at,695c <func_80955940+0x2dc>
    68f0:	3c0140a0 	lui	at,0x40a0
    68f4:	44816000 	mtc1	at,$f12
    68f8:	0c000000 	jal	0 <func_8094F2C0>
    68fc:	00000000 	nop
    6900:	4600028d 	trunc.w.s	$f10,$f0
    6904:	44801000 	mtc1	zero,$f2
    6908:	3c010000 	lui	at,0x0
    690c:	c4300000 	lwc1	$f16,0(at)
    6910:	44075000 	mfc1	a3,$f10
    6914:	240f0002 	li	t7,2
    6918:	24180001 	li	t8,1
    691c:	00073c00 	sll	a3,a3,0x10
    6920:	00073c03 	sra	a3,a3,0x10
    6924:	24e7000d 	addiu	a3,a3,13
    6928:	00073c00 	sll	a3,a3,0x10
    692c:	00073c03 	sra	a3,a3,0x10
    6930:	afb80020 	sw	t8,32(sp)
    6934:	afaf0018 	sw	t7,24(sp)
    6938:	8fa40044 	lw	a0,68(sp)
    693c:	02002825 	move	a1,s0
    6940:	24060001 	li	a2,1
    6944:	e7a20010 	swc1	$f2,16(sp)
    6948:	e7a20014 	swc1	$f2,20(sp)
    694c:	0c000000 	jal	0 <func_8094F2C0>
    6950:	e7b0001c 	swc1	$f16,28(sp)
    6954:	10000020 	b	69d8 <func_80955940+0x358>
    6958:	3c014170 	lui	at,0x4170
    695c:	3c0140a0 	lui	at,0x40a0
    6960:	44816000 	mtc1	at,$f12
    6964:	0c000000 	jal	0 <func_8094F2C0>
    6968:	00000000 	nop
    696c:	3c0140e0 	lui	at,0x40e0
    6970:	44813000 	mtc1	at,$f6
    6974:	44802000 	mtc1	zero,$f4
    6978:	24080002 	li	t0,2
    697c:	afa80018 	sw	t0,24(sp)
    6980:	e7a60014 	swc1	$f6,20(sp)
    6984:	e7a40010 	swc1	$f4,16(sp)
    6988:	8609019c 	lh	t1,412(s0)
    698c:	4600048d 	trunc.w.s	$f18,$f0
    6990:	240c0001 	li	t4,1
    6994:	000950c3 	sra	t2,t1,0x3
    6998:	254b0001 	addiu	t3,t2,1
    699c:	448b4000 	mtc1	t3,$f8
    69a0:	44079000 	mfc1	a3,$f18
    69a4:	afac0020 	sw	t4,32(sp)
    69a8:	468042a0 	cvt.s.w	$f10,$f8
    69ac:	00073c00 	sll	a3,a3,0x10
    69b0:	00073c03 	sra	a3,a3,0x10
    69b4:	24e70006 	addiu	a3,a3,6
    69b8:	00073c00 	sll	a3,a3,0x10
    69bc:	00073c03 	sra	a3,a3,0x10
    69c0:	e7aa001c 	swc1	$f10,28(sp)
    69c4:	8fa40044 	lw	a0,68(sp)
    69c8:	02002825 	move	a1,s0
    69cc:	0c000000 	jal	0 <func_8094F2C0>
    69d0:	24060001 	li	a2,1
    69d4:	3c014170 	lui	at,0x4170
    69d8:	44818000 	mtc1	at,$f16
    69dc:	44809000 	mtc1	zero,$f18
    69e0:	240d0005 	li	t5,5
    69e4:	afad0018 	sw	t5,24(sp)
    69e8:	e7b00010 	swc1	$f16,16(sp)
    69ec:	e7b20014 	swc1	$f18,20(sp)
    69f0:	860e019c 	lh	t6,412(s0)
    69f4:	24190001 	li	t9,1
    69f8:	afb90020 	sw	t9,32(sp)
    69fc:	000e78c3 	sra	t7,t6,0x3
    6a00:	25f80001 	addiu	t8,t7,1
    6a04:	44982000 	mtc1	t8,$f4
    6a08:	8fa40044 	lw	a0,68(sp)
    6a0c:	02002825 	move	a1,s0
    6a10:	468021a0 	cvt.s.w	$f6,$f4
    6a14:	24060002 	li	a2,2
    6a18:	24070032 	li	a3,50
    6a1c:	0c000000 	jal	0 <func_8094F2C0>
    6a20:	e7a6001c 	swc1	$f6,28(sp)
    6a24:	3c050000 	lui	a1,0x0
    6a28:	24a50000 	addiu	a1,a1,0
    6a2c:	8602019c 	lh	v0,412(s0)
    6a30:	24480001 	addiu	t0,v0,1
    6a34:	a608019c 	sh	t0,412(s0)
    6a38:	8609019c 	lh	t1,412(s0)
    6a3c:	29210020 	slti	at,t1,32
    6a40:	54200017 	bnezl	at,6aa0 <func_80955940+0x420>
    6a44:	8609001c 	lh	t1,28(s0)
    6a48:	920a0195 	lbu	t2,405(s0)
    6a4c:	240c0001 	li	t4,1
    6a50:	a20c0197 	sb	t4,407(s0)
    6a54:	254b0001 	addiu	t3,t2,1
    6a58:	a20b0195 	sb	t3,405(s0)
    6a5c:	0c000000 	jal	0 <func_8094F2C0>
    6a60:	8fa40044 	lw	a0,68(sp)
    6a64:	02002025 	move	a0,s0
    6a68:	0c000000 	jal	0 <func_8094F2C0>
    6a6c:	24053945 	li	a1,14661
    6a70:	3c050000 	lui	a1,0x0
    6a74:	10000009 	b	6a9c <func_80955940+0x41c>
    6a78:	24a50000 	addiu	a1,a1,0
    6a7c:	240e0001 	li	t6,1
    6a80:	240f0020 	li	t7,32
    6a84:	a20d0195 	sb	t5,405(s0)
    6a88:	a20e0197 	sb	t6,407(s0)
    6a8c:	a60f019c 	sh	t7,412(s0)
    6a90:	80b80000 	lb	t8,0(a1)
    6a94:	27190001 	addiu	t9,t8,1
    6a98:	a0b90000 	sb	t9,0(a1)
    6a9c:	8609001c 	lh	t1,28(s0)
    6aa0:	80a80000 	lb	t0,0(a1)
    6aa4:	252a000d 	addiu	t2,t1,13
    6aa8:	550a003a 	bnel	t0,t2,6b94 <func_80955940+0x514>
    6aac:	8fbf0034 	lw	ra,52(sp)
    6ab0:	c60801c0 	lwc1	$f8,448(s0)
    6ab4:	3c020000 	lui	v0,0x0
    6ab8:	24420000 	addiu	v0,v0,0
    6abc:	e4480000 	swc1	$f8,0(v0)
    6ac0:	c60a01c4 	lwc1	$f10,452(s0)
    6ac4:	3c010000 	lui	at,0x0
    6ac8:	e44a0004 	swc1	$f10,4(v0)
    6acc:	c4500004 	lwc1	$f16,4(v0)
    6ad0:	e4300000 	swc1	$f16,0(at)
    6ad4:	c61201c8 	lwc1	$f18,456(s0)
    6ad8:	e4520008 	swc1	$f18,8(v0)
    6adc:	860c01b0 	lh	t4,432(s0)
    6ae0:	860b00b6 	lh	t3,182(s0)
    6ae4:	016c2021 	addu	a0,t3,t4
    6ae8:	00042023 	negu	a0,a0
    6aec:	00042400 	sll	a0,a0,0x10
    6af0:	0c000000 	jal	0 <func_8094F2C0>
    6af4:	00042403 	sra	a0,a0,0x10
    6af8:	c7a4003c 	lwc1	$f4,60(sp)
    6afc:	c60801c0 	lwc1	$f8,448(s0)
    6b00:	3c010000 	lui	at,0x0
    6b04:	46040182 	mul.s	$f6,$f0,$f4
    6b08:	46083280 	add.s	$f10,$f6,$f8
    6b0c:	e42a0000 	swc1	$f10,0(at)
    6b10:	860e01b0 	lh	t6,432(s0)
    6b14:	860d00b6 	lh	t5,182(s0)
    6b18:	01ae2021 	addu	a0,t5,t6
    6b1c:	00042023 	negu	a0,a0
    6b20:	00042400 	sll	a0,a0,0x10
    6b24:	0c000000 	jal	0 <func_8094F2C0>
    6b28:	00042403 	sra	a0,a0,0x10
    6b2c:	c7b0003c 	lwc1	$f16,60(sp)
    6b30:	c60401c8 	lwc1	$f4,456(s0)
    6b34:	3c010000 	lui	at,0x0
    6b38:	46100482 	mul.s	$f18,$f0,$f16
    6b3c:	46049180 	add.s	$f6,$f18,$f4
    6b40:	e4260000 	swc1	$f6,0(at)
    6b44:	860f01b0 	lh	t7,432(s0)
    6b48:	25f8015e 	addiu	t8,t7,350
    6b4c:	10000010 	b	6b90 <func_80955940+0x510>
    6b50:	a61801b0 	sh	t8,432(s0)
    6b54:	8619019c 	lh	t9,412(s0)
    6b58:	2729ffff 	addiu	t1,t9,-1
    6b5c:	a609019c 	sh	t1,412(s0)
    6b60:	8608019c 	lh	t0,412(s0)
    6b64:	5500000b 	bnezl	t0,6b94 <func_80955940+0x514>
    6b68:	8fbf0034 	lw	ra,52(sp)
    6b6c:	860a001c 	lh	t2,28(s0)
    6b70:	24010005 	li	at,5
    6b74:	15410004 	bne	t2,at,6b88 <func_80955940+0x508>
    6b78:	00000000 	nop
    6b7c:	80ab0000 	lb	t3,0(a1)
    6b80:	256c0001 	addiu	t4,t3,1
    6b84:	a0ac0000 	sb	t4,0(a1)
    6b88:	0c000000 	jal	0 <func_8094F2C0>
    6b8c:	02002025 	move	a0,s0
    6b90:	8fbf0034 	lw	ra,52(sp)
    6b94:	8fb00030 	lw	s0,48(sp)
    6b98:	27bd0040 	addiu	sp,sp,64
    6b9c:	03e00008 	jr	ra
    6ba0:	00000000 	nop

00006ba4 <func_80955E64>:
    6ba4:	27bdffd8 	addiu	sp,sp,-40
    6ba8:	afa40028 	sw	a0,40(sp)
    6bac:	afbf0024 	sw	ra,36(sp)
    6bb0:	3c040602 	lui	a0,0x602
    6bb4:	afa5002c 	sw	a1,44(sp)
    6bb8:	0c000000 	jal	0 <func_8094F2C0>
    6bbc:	24848d18 	addiu	a0,a0,-29416
    6bc0:	44822000 	mtc1	v0,$f4
    6bc4:	3c013f80 	lui	at,0x3f80
    6bc8:	44811000 	mtc1	at,$f2
    6bcc:	46802020 	cvt.s.w	$f0,$f4
    6bd0:	3c01c0c0 	lui	at,0xc0c0
    6bd4:	44814000 	mtc1	at,$f8
    6bd8:	8fa40028 	lw	a0,40(sp)
    6bdc:	3c050602 	lui	a1,0x602
    6be0:	240e0001 	li	t6,1
    6be4:	46020181 	sub.s	$f6,$f0,$f2
    6be8:	44061000 	mfc1	a2,$f2
    6bec:	afae0014 	sw	t6,20(sp)
    6bf0:	24a58d18 	addiu	a1,a1,-29416
    6bf4:	44073000 	mfc1	a3,$f6
    6bf8:	e7a00010 	swc1	$f0,16(sp)
    6bfc:	2484014c 	addiu	a0,a0,332
    6c00:	0c000000 	jal	0 <func_8094F2C0>
    6c04:	e7a80018 	swc1	$f8,24(sp)
    6c08:	8fa40028 	lw	a0,40(sp)
    6c0c:	3c050000 	lui	a1,0x0
    6c10:	24a50000 	addiu	a1,a1,0
    6c14:	0c000000 	jal	0 <func_8094F2C0>
    6c18:	a0800195 	sb	zero,405(a0)
    6c1c:	8fbf0024 	lw	ra,36(sp)
    6c20:	27bd0028 	addiu	sp,sp,40
    6c24:	03e00008 	jr	ra
    6c28:	00000000 	nop

00006c2c <func_80955EEC>:
    6c2c:	27bdff88 	addiu	sp,sp,-120
    6c30:	afbf0034 	sw	ra,52(sp)
    6c34:	afb00030 	sw	s0,48(sp)
    6c38:	afa5007c 	sw	a1,124(sp)
    6c3c:	8ca21c44 	lw	v0,7236(a1)
    6c40:	27af0054 	addiu	t7,sp,84
    6c44:	3c014120 	lui	at,0x4120
    6c48:	8c590024 	lw	t9,36(v0)
    6c4c:	44813000 	mtc1	at,$f6
    6c50:	00808025 	move	s0,a0
    6c54:	adf90000 	sw	t9,0(t7)
    6c58:	8c580028 	lw	t8,40(v0)
    6c5c:	2484014c 	addiu	a0,a0,332
    6c60:	adf80004 	sw	t8,4(t7)
    6c64:	8c59002c 	lw	t9,44(v0)
    6c68:	adf90008 	sw	t9,8(t7)
    6c6c:	c7a40058 	lwc1	$f4,88(sp)
    6c70:	afa20074 	sw	v0,116(sp)
    6c74:	46062200 	add.s	$f8,$f4,$f6
    6c78:	0c000000 	jal	0 <func_8094F2C0>
    6c7c:	e7a80058 	swc1	$f8,88(sp)
    6c80:	0c000000 	jal	0 <func_8094F2C0>
    6c84:	02002025 	move	a0,s0
    6c88:	3c090000 	lui	t1,0x0
    6c8c:	91290000 	lbu	t1,0(t1)
    6c90:	02002025 	move	a0,s0
    6c94:	3c0a0000 	lui	t2,0x0
    6c98:	29210012 	slti	at,t1,18
    6c9c:	14200005 	bnez	at,6cb4 <func_80955EEC+0x88>
    6ca0:	00000000 	nop
    6ca4:	0c000000 	jal	0 <func_8094F2C0>
    6ca8:	8fa5007c 	lw	a1,124(sp)
    6cac:	100001b1 	b	7374 <func_80955EEC+0x748>
    6cb0:	8fbf0034 	lw	ra,52(sp)
    6cb4:	914a0000 	lbu	t2,0(t2)
    6cb8:	02002025 	move	a0,s0
    6cbc:	c7aa0058 	lwc1	$f10,88(sp)
    6cc0:	314b007e 	andi	t3,t2,0x7e
    6cc4:	11600005 	beqz	t3,6cdc <func_80955EEC+0xb0>
    6cc8:	3c014039 	lui	at,0x4039
    6ccc:	0c000000 	jal	0 <func_8094F2C0>
    6cd0:	8fa5007c 	lw	a1,124(sp)
    6cd4:	100001a7 	b	7374 <func_80955EEC+0x748>
    6cd8:	8fbf0034 	lw	ra,52(sp)
    6cdc:	44819800 	mtc1	at,$f19
    6ce0:	44809000 	mtc1	zero,$f18
    6ce4:	46005421 	cvt.d.s	$f16,$f10
    6ce8:	27a40054 	addiu	a0,sp,84
    6cec:	46328100 	add.d	$f4,$f16,$f18
    6cf0:	260501b4 	addiu	a1,s0,436
    6cf4:	462021a0 	cvt.s.d	$f6,$f4
    6cf8:	0c000000 	jal	0 <func_8094F2C0>
    6cfc:	e7a60058 	swc1	$f6,88(sp)
    6d00:	860c00b6 	lh	t4,182(s0)
    6d04:	00024400 	sll	t0,v0,0x10
    6d08:	00084403 	sra	t0,t0,0x10
    6d0c:	004c3023 	subu	a2,v0,t4
    6d10:	00062400 	sll	a0,a2,0x10
    6d14:	00042403 	sra	a0,a0,0x10
    6d18:	04800003 	bltz	a0,6d28 <func_80955EEC+0xfc>
    6d1c:	00041823 	negu	v1,a0
    6d20:	10000001 	b	6d28 <func_80955EEC+0xfc>
    6d24:	00801825 	move	v1,a0
    6d28:	28614651 	slti	at,v1,18001
    6d2c:	14200004 	bnez	at,6d40 <func_80955EEC+0x114>
    6d30:	3c0d0000 	lui	t5,0x0
    6d34:	92030195 	lbu	v1,405(s0)
    6d38:	106000af 	beqz	v1,6ff8 <func_80955EEC+0x3cc>
    6d3c:	00000000 	nop
    6d40:	91ad0000 	lbu	t5,0(t5)
    6d44:	92030195 	lbu	v1,405(s0)
    6d48:	8faf0074 	lw	t7,116(sp)
    6d4c:	31ae0080 	andi	t6,t5,0x80
    6d50:	15c000a9 	bnez	t6,6ff8 <func_80955EEC+0x3cc>
    6d54:	00000000 	nop
    6d58:	8df8067c 	lw	t8,1660(t7)
    6d5c:	0018c940 	sll	t9,t8,0x5
    6d60:	072000a5 	bltz	t9,6ff8 <func_80955EEC+0x3cc>
    6d64:	00000000 	nop
    6d68:	146000a1 	bnez	v1,6ff0 <func_80955EEC+0x3c4>
    6d6c:	00062c00 	sll	a1,a2,0x10
    6d70:	00052c03 	sra	a1,a1,0x10
    6d74:	04a00003 	bltz	a1,6d84 <func_80955EEC+0x158>
    6d78:	260401e6 	addiu	a0,s0,486
    6d7c:	10000002 	b	6d88 <func_80955EEC+0x15c>
    6d80:	00a01825 	move	v1,a1
    6d84:	00051823 	negu	v1,a1
    6d88:	28611771 	slti	at,v1,6001
    6d8c:	14200006 	bnez	at,6da8 <func_80955EEC+0x17c>
    6d90:	24060001 	li	a2,1
    6d94:	58a00004 	blezl	a1,6da8 <func_80955EEC+0x17c>
    6d98:	2405e890 	li	a1,-6000
    6d9c:	10000002 	b	6da8 <func_80955EEC+0x17c>
    6da0:	24051770 	li	a1,6000
    6da4:	2405e890 	li	a1,-6000
    6da8:	24070dac 	li	a3,3500
    6dac:	afa00010 	sw	zero,16(sp)
    6db0:	a7a50068 	sh	a1,104(sp)
    6db4:	0c000000 	jal	0 <func_8094F2C0>
    6db8:	a7a8006c 	sh	t0,108(sp)
    6dbc:	87a50068 	lh	a1,104(sp)
    6dc0:	04400003 	bltz	v0,6dd0 <func_80955EEC+0x1a4>
    6dc4:	87a8006c 	lh	t0,108(sp)
    6dc8:	10000003 	b	6dd8 <func_80955EEC+0x1ac>
    6dcc:	afa20060 	sw	v0,96(sp)
    6dd0:	00024823 	negu	t1,v0
    6dd4:	afa90060 	sw	t1,96(sp)
    6dd8:	01052823 	subu	a1,t0,a1
    6ddc:	00052c00 	sll	a1,a1,0x10
    6de0:	00052c03 	sra	a1,a1,0x10
    6de4:	04a00003 	bltz	a1,6df4 <func_80955EEC+0x1c8>
    6de8:	260401ec 	addiu	a0,s0,492
    6dec:	10000002 	b	6df8 <func_80955EEC+0x1cc>
    6df0:	00a01825 	move	v1,a1
    6df4:	00051823 	negu	v1,a1
    6df8:	28611771 	slti	at,v1,6001
    6dfc:	14200006 	bnez	at,6e18 <func_80955EEC+0x1ec>
    6e00:	24060001 	li	a2,1
    6e04:	58a00004 	blezl	a1,6e18 <func_80955EEC+0x1ec>
    6e08:	2405e890 	li	a1,-6000
    6e0c:	10000002 	b	6e18 <func_80955EEC+0x1ec>
    6e10:	24051770 	li	a1,6000
    6e14:	2405e890 	li	a1,-6000
    6e18:	24070dac 	li	a3,3500
    6e1c:	0c000000 	jal	0 <func_8094F2C0>
    6e20:	afa00010 	sw	zero,16(sp)
    6e24:	04400003 	bltz	v0,6e34 <func_80955EEC+0x208>
    6e28:	8faa0060 	lw	t2,96(sp)
    6e2c:	10000002 	b	6e38 <func_80955EEC+0x20c>
    6e30:	00401825 	move	v1,v0
    6e34:	00021823 	negu	v1,v0
    6e38:	01435821 	addu	t3,t2,v1
    6e3c:	260401cc 	addiu	a0,s0,460
    6e40:	afab0060 	sw	t3,96(sp)
    6e44:	afa40040 	sw	a0,64(sp)
    6e48:	0c000000 	jal	0 <func_8094F2C0>
    6e4c:	27a50054 	addiu	a1,sp,84
    6e50:	2445c000 	addiu	a1,v0,-16384
    6e54:	00052c00 	sll	a1,a1,0x10
    6e58:	00052c03 	sra	a1,a1,0x10
    6e5c:	260401f2 	addiu	a0,s0,498
    6e60:	24060001 	li	a2,1
    6e64:	24070ea6 	li	a3,3750
    6e68:	0c000000 	jal	0 <func_8094F2C0>
    6e6c:	afa00010 	sw	zero,16(sp)
    6e70:	04400003 	bltz	v0,6e80 <func_80955EEC+0x254>
    6e74:	8fac0060 	lw	t4,96(sp)
    6e78:	10000002 	b	6e84 <func_80955EEC+0x258>
    6e7c:	00401825 	move	v1,v0
    6e80:	00021823 	negu	v1,v0
    6e84:	01836821 	addu	t5,t4,v1
    6e88:	afad0060 	sw	t5,96(sp)
    6e8c:	8e02016c 	lw	v0,364(s0)
    6e90:	860f00b4 	lh	t7,180(s0)
    6e94:	27a40054 	addiu	a0,sp,84
    6e98:	844e001e 	lh	t6,30(v0)
    6e9c:	84590006 	lh	t9,6(v0)
    6ea0:	844a000c 	lh	t2,12(v0)
    6ea4:	01cfc021 	addu	t8,t6,t7
    6ea8:	844c0012 	lh	t4,18(v0)
    6eac:	844e0018 	lh	t6,24(v0)
    6eb0:	03194821 	addu	t1,t8,t9
    6eb4:	012a5821 	addu	t3,t1,t2
    6eb8:	016c6821 	addu	t5,t3,t4
    6ebc:	01ae7821 	addu	t7,t5,t6
    6ec0:	a7af006a 	sh	t7,106(sp)
    6ec4:	0c000000 	jal	0 <func_8094F2C0>
    6ec8:	260501c0 	addiu	a1,s0,448
    6ecc:	87b8006a 	lh	t8,106(sp)
    6ed0:	260401ea 	addiu	a0,s0,490
    6ed4:	24060001 	li	a2,1
    6ed8:	00582823 	subu	a1,v0,t8
    6edc:	00052c00 	sll	a1,a1,0x10
    6ee0:	00052c03 	sra	a1,a1,0x10
    6ee4:	24071b58 	li	a3,7000
    6ee8:	0c000000 	jal	0 <func_8094F2C0>
    6eec:	afa00010 	sw	zero,16(sp)
    6ef0:	04400003 	bltz	v0,6f00 <func_80955EEC+0x2d4>
    6ef4:	8fb90060 	lw	t9,96(sp)
    6ef8:	10000002 	b	6f04 <func_80955EEC+0x2d8>
    6efc:	00401825 	move	v1,v0
    6f00:	00021823 	negu	v1,v0
    6f04:	03234821 	addu	t1,t9,v1
    6f08:	afa90060 	sw	t1,96(sp)
    6f0c:	8fa40040 	lw	a0,64(sp)
