
build/src/overlays/actors/ovl_kaleido_scope/z_kaleido_debug.o:     file format elf32-tradbigmips


Disassembly of section .text:

00000000 <func_80815CE0>:
       0:	27bdffa0 	addiu	sp,sp,-96
       4:	afb00020 	sw	s0,32(sp)
       8:	27b00030 	addiu	s0,sp,48
       c:	afbf0024 	sw	ra,36(sp)
      10:	afa40060 	sw	a0,96(sp)
      14:	0c000000 	jal	0 <func_80815CE0>
      18:	02002025 	move	a0,s0
      1c:	8fae0060 	lw	t6,96(sp)
      20:	02002025 	move	a0,s0
      24:	0c000000 	jal	0 <func_80815CE0>
      28:	8dc50000 	lw	a1,0(t6)
      2c:	02002025 	move	a0,s0
      30:	24050004 	li	a1,4
      34:	0c000000 	jal	0 <func_80815CE0>
      38:	24060002 	li	a2,2
      3c:	240f00ff 	li	t7,255
      40:	afaf0010 	sw	t7,16(sp)
      44:	02002025 	move	a0,s0
      48:	240500ff 	li	a1,255
      4c:	2406003c 	li	a2,60
      50:	0c000000 	jal	0 <func_80815CE0>
      54:	00003825 	move	a3,zero
      58:	3c050000 	lui	a1,0x0
      5c:	3c060000 	lui	a2,0x0
      60:	24c60000 	addiu	a2,a2,0
      64:	24a50000 	addiu	a1,a1,0
      68:	0c000000 	jal	0 <func_80815CE0>
      6c:	02002025 	move	a0,s0
      70:	02002025 	move	a0,s0
      74:	2405000f 	li	a1,15
      78:	0c000000 	jal	0 <func_80815CE0>
      7c:	24060002 	li	a2,2
      80:	3c050000 	lui	a1,0x0
      84:	3c060000 	lui	a2,0x0
      88:	24c60000 	addiu	a2,a2,0
      8c:	24a50000 	addiu	a1,a1,0
      90:	0c000000 	jal	0 <func_80815CE0>
      94:	02002025 	move	a0,s0
      98:	02002025 	move	a0,s0
      9c:	2405001a 	li	a1,26
      a0:	0c000000 	jal	0 <func_80815CE0>
      a4:	24060003 	li	a2,3
      a8:	3c050000 	lui	a1,0x0
      ac:	3c060000 	lui	a2,0x0
      b0:	24c60000 	addiu	a2,a2,0
      b4:	24a50000 	addiu	a1,a1,0
      b8:	0c000000 	jal	0 <func_80815CE0>
      bc:	02002025 	move	a0,s0
      c0:	02002025 	move	a0,s0
      c4:	24050004 	li	a1,4
      c8:	0c000000 	jal	0 <func_80815CE0>
      cc:	24060005 	li	a2,5
      d0:	3c050000 	lui	a1,0x0
      d4:	3c060000 	lui	a2,0x0
      d8:	24c60000 	addiu	a2,a2,0
      dc:	24a50000 	addiu	a1,a1,0
      e0:	0c000000 	jal	0 <func_80815CE0>
      e4:	02002025 	move	a0,s0
      e8:	02002025 	move	a0,s0
      ec:	24050004 	li	a1,4
      f0:	0c000000 	jal	0 <func_80815CE0>
      f4:	2406000d 	li	a2,13
      f8:	3c050000 	lui	a1,0x0
      fc:	3c060000 	lui	a2,0x0
     100:	24c60000 	addiu	a2,a2,0
     104:	24a50000 	addiu	a1,a1,0
     108:	0c000000 	jal	0 <func_80815CE0>
     10c:	02002025 	move	a0,s0
     110:	02002025 	move	a0,s0
     114:	24050004 	li	a1,4
     118:	0c000000 	jal	0 <func_80815CE0>
     11c:	2406000f 	li	a2,15
     120:	3c050000 	lui	a1,0x0
     124:	3c060000 	lui	a2,0x0
     128:	24c60000 	addiu	a2,a2,0
     12c:	24a50000 	addiu	a1,a1,0
     130:	0c000000 	jal	0 <func_80815CE0>
     134:	02002025 	move	a0,s0
     138:	02002025 	move	a0,s0
     13c:	24050017 	li	a1,23
     140:	0c000000 	jal	0 <func_80815CE0>
     144:	2406000e 	li	a2,14
     148:	3c050000 	lui	a1,0x0
     14c:	3c060000 	lui	a2,0x0
     150:	24c60000 	addiu	a2,a2,0
     154:	24a50000 	addiu	a1,a1,0
     158:	0c000000 	jal	0 <func_80815CE0>
     15c:	02002025 	move	a0,s0
     160:	02002025 	move	a0,s0
     164:	24050017 	li	a1,23
     168:	0c000000 	jal	0 <func_80815CE0>
     16c:	2406000f 	li	a2,15
     170:	3c050000 	lui	a1,0x0
     174:	3c060000 	lui	a2,0x0
     178:	24c60000 	addiu	a2,a2,0
     17c:	24a50000 	addiu	a1,a1,0
     180:	0c000000 	jal	0 <func_80815CE0>
     184:	02002025 	move	a0,s0
     188:	02002025 	move	a0,s0
     18c:	24050004 	li	a1,4
     190:	0c000000 	jal	0 <func_80815CE0>
     194:	24060011 	li	a2,17
     198:	3c050000 	lui	a1,0x0
     19c:	3c060000 	lui	a2,0x0
     1a0:	24c60000 	addiu	a2,a2,0
     1a4:	24a50000 	addiu	a1,a1,0
     1a8:	0c000000 	jal	0 <func_80815CE0>
     1ac:	02002025 	move	a0,s0
     1b0:	02002025 	move	a0,s0
     1b4:	24050004 	li	a1,4
     1b8:	0c000000 	jal	0 <func_80815CE0>
     1bc:	24060013 	li	a2,19
     1c0:	3c050000 	lui	a1,0x0
     1c4:	3c060000 	lui	a2,0x0
     1c8:	24c60000 	addiu	a2,a2,0
     1cc:	24a50000 	addiu	a1,a1,0
     1d0:	0c000000 	jal	0 <func_80815CE0>
     1d4:	02002025 	move	a0,s0
     1d8:	02002025 	move	a0,s0
     1dc:	24050014 	li	a1,20
     1e0:	0c000000 	jal	0 <func_80815CE0>
     1e4:	24060013 	li	a2,19
     1e8:	3c050000 	lui	a1,0x0
     1ec:	3c060000 	lui	a2,0x0
     1f0:	24c60000 	addiu	a2,a2,0
     1f4:	24a50000 	addiu	a1,a1,0
     1f8:	0c000000 	jal	0 <func_80815CE0>
     1fc:	02002025 	move	a0,s0
     200:	02002025 	move	a0,s0
     204:	24050004 	li	a1,4
     208:	0c000000 	jal	0 <func_80815CE0>
     20c:	24060015 	li	a2,21
     210:	3c050000 	lui	a1,0x0
     214:	3c060000 	lui	a2,0x0
     218:	24c60000 	addiu	a2,a2,0
     21c:	24a50000 	addiu	a1,a1,0
     220:	0c000000 	jal	0 <func_80815CE0>
     224:	02002025 	move	a0,s0
     228:	02002025 	move	a0,s0
     22c:	24050004 	li	a1,4
     230:	0c000000 	jal	0 <func_80815CE0>
     234:	24060018 	li	a2,24
     238:	3c050000 	lui	a1,0x0
     23c:	3c060000 	lui	a2,0x0
     240:	24c60000 	addiu	a2,a2,0
     244:	24a50000 	addiu	a1,a1,0
     248:	0c000000 	jal	0 <func_80815CE0>
     24c:	02002025 	move	a0,s0
     250:	02002025 	move	a0,s0
     254:	2405000e 	li	a1,14
     258:	0c000000 	jal	0 <func_80815CE0>
     25c:	24060018 	li	a2,24
     260:	3c050000 	lui	a1,0x0
     264:	3c060000 	lui	a2,0x0
     268:	24c60000 	addiu	a2,a2,0
     26c:	24a50000 	addiu	a1,a1,0
     270:	0c000000 	jal	0 <func_80815CE0>
     274:	02002025 	move	a0,s0
     278:	02002025 	move	a0,s0
     27c:	24050017 	li	a1,23
     280:	0c000000 	jal	0 <func_80815CE0>
     284:	24060018 	li	a2,24
     288:	3c050000 	lui	a1,0x0
     28c:	3c060000 	lui	a2,0x0
     290:	24c60000 	addiu	a2,a2,0
     294:	24a50000 	addiu	a1,a1,0
     298:	0c000000 	jal	0 <func_80815CE0>
     29c:	02002025 	move	a0,s0
     2a0:	02002025 	move	a0,s0
     2a4:	2405001c 	li	a1,28
     2a8:	0c000000 	jal	0 <func_80815CE0>
     2ac:	24060018 	li	a2,24
     2b0:	3c050000 	lui	a1,0x0
     2b4:	3c060000 	lui	a2,0x0
     2b8:	24c60000 	addiu	a2,a2,0
     2bc:	24a50000 	addiu	a1,a1,0
     2c0:	0c000000 	jal	0 <func_80815CE0>
     2c4:	02002025 	move	a0,s0
     2c8:	0c000000 	jal	0 <func_80815CE0>
     2cc:	02002025 	move	a0,s0
     2d0:	8fb80060 	lw	t8,96(sp)
     2d4:	02002025 	move	a0,s0
     2d8:	0c000000 	jal	0 <func_80815CE0>
     2dc:	af020000 	sw	v0,0(t8)
     2e0:	8fbf0024 	lw	ra,36(sp)
     2e4:	8fb00020 	lw	s0,32(sp)
     2e8:	27bd0060 	addiu	sp,sp,96
     2ec:	03e00008 	jr	ra
     2f0:	00000000 	nop

000002f4 <func_80815FD4>:
     2f4:	27bdffa8 	addiu	sp,sp,-88
     2f8:	afbf0014 	sw	ra,20(sp)
     2fc:	afa40058 	sw	a0,88(sp)
     300:	afa5005c 	sw	a1,92(sp)
     304:	afa60060 	sw	a2,96(sp)
     308:	afa70064 	sw	a3,100(sp)
     30c:	8c850000 	lw	a1,0(a0)
     310:	3c060000 	lui	a2,0x0
     314:	24c60000 	addiu	a2,a2,0
     318:	27a40044 	addiu	a0,sp,68
     31c:	240700d0 	li	a3,208
     320:	0c000000 	jal	0 <func_80815CE0>
     324:	afa50054 	sw	a1,84(sp)
     328:	8fa30054 	lw	v1,84(sp)
     32c:	8fa50060 	lw	a1,96(sp)
     330:	8fa60064 	lw	a2,100(sp)
     334:	8c6202c0 	lw	v0,704(v1)
     338:	3c18fd90 	lui	t8,0xfd90
     33c:	3c090200 	lui	t1,0x200
     340:	244f0008 	addiu	t7,v0,8
     344:	ac6f02c0 	sw	t7,704(v1)
     348:	ac580000 	sw	t8,0(v0)
     34c:	8fb9005c 	lw	t9,92(sp)
     350:	25293040 	addiu	t1,t1,12352
     354:	3c0d0708 	lui	t5,0x708
     358:	001941c0 	sll	t0,t9,0x7
     35c:	01095021 	addu	t2,t0,t1
     360:	ac4a0004 	sw	t2,4(v0)
     364:	8c6202c0 	lw	v0,704(v1)
     368:	35ad0200 	ori	t5,t5,0x200
     36c:	3c0cf590 	lui	t4,0xf590
     370:	244b0008 	addiu	t3,v0,8
     374:	ac6b02c0 	sw	t3,704(v1)
     378:	ac4d0004 	sw	t5,4(v0)
     37c:	ac4c0000 	sw	t4,0(v0)
     380:	8c6202c0 	lw	v0,704(v1)
     384:	3c0fe600 	lui	t7,0xe600
     388:	3c080703 	lui	t0,0x703
     38c:	244e0008 	addiu	t6,v0,8
     390:	ac6e02c0 	sw	t6,704(v1)
     394:	ac400004 	sw	zero,4(v0)
     398:	ac4f0000 	sw	t7,0(v0)
     39c:	8c6202c0 	lw	v0,704(v1)
     3a0:	3508f800 	ori	t0,t0,0xf800
     3a4:	3c19f300 	lui	t9,0xf300
     3a8:	24580008 	addiu	t8,v0,8
     3ac:	ac7802c0 	sw	t8,704(v1)
     3b0:	ac480004 	sw	t0,4(v0)
     3b4:	ac590000 	sw	t9,0(v0)
     3b8:	8c6202c0 	lw	v0,704(v1)
     3bc:	3c0ae700 	lui	t2,0xe700
     3c0:	3c0cf588 	lui	t4,0xf588
     3c4:	24490008 	addiu	t1,v0,8
     3c8:	ac6902c0 	sw	t1,704(v1)
     3cc:	ac400004 	sw	zero,4(v0)
     3d0:	ac4a0000 	sw	t2,0(v0)
     3d4:	8c6202c0 	lw	v0,704(v1)
     3d8:	3c0d0008 	lui	t5,0x8
     3dc:	35ad0200 	ori	t5,t5,0x200
     3e0:	244b0008 	addiu	t3,v0,8
     3e4:	ac6b02c0 	sw	t3,704(v1)
     3e8:	358c0200 	ori	t4,t4,0x200
     3ec:	ac4c0000 	sw	t4,0(v0)
     3f0:	ac4d0004 	sw	t5,4(v0)
     3f4:	8c6202c0 	lw	v0,704(v1)
     3f8:	3c180001 	lui	t8,0x1
     3fc:	3718c03c 	ori	t8,t8,0xc03c
     400:	244e0008 	addiu	t6,v0,8
     404:	ac6e02c0 	sw	t6,704(v1)
     408:	3c0ff200 	lui	t7,0xf200
     40c:	ac4f0000 	sw	t7,0(v0)
     410:	ac580004 	sw	t8,4(v0)
     414:	8c6202c0 	lw	v0,704(v1)
     418:	24a80008 	addiu	t0,a1,8
     41c:	00084880 	sll	t1,t0,0x2
     420:	312a0fff 	andi	t2,t1,0xfff
     424:	24590008 	addiu	t9,v0,8
     428:	000a5b00 	sll	t3,t2,0xc
     42c:	ac7902c0 	sw	t9,704(v1)
     430:	3c01e400 	lui	at,0xe400
     434:	0005c880 	sll	t9,a1,0x2
     438:	24cd0010 	addiu	t5,a2,16
     43c:	000d7080 	sll	t6,t5,0x2
     440:	33280fff 	andi	t0,t9,0xfff
     444:	01616025 	or	t4,t3,at
     448:	00065080 	sll	t2,a2,0x2
     44c:	314b0fff 	andi	t3,t2,0xfff
     450:	00084b00 	sll	t1,t0,0xc
     454:	31cf0fff 	andi	t7,t6,0xfff
     458:	018fc025 	or	t8,t4,t7
     45c:	012b6825 	or	t5,t1,t3
     460:	ac4d0004 	sw	t5,4(v0)
     464:	ac580000 	sw	t8,0(v0)
     468:	8c6202c0 	lw	v0,704(v1)
     46c:	3c0ce100 	lui	t4,0xe100
     470:	3c190400 	lui	t9,0x400
     474:	244e0008 	addiu	t6,v0,8
     478:	ac6e02c0 	sw	t6,704(v1)
     47c:	ac400004 	sw	zero,4(v0)
     480:	ac4c0000 	sw	t4,0(v0)
     484:	8c6202c0 	lw	v0,704(v1)
     488:	37390400 	ori	t9,t9,0x400
     48c:	3c18f100 	lui	t8,0xf100
     490:	244f0008 	addiu	t7,v0,8
     494:	ac6f02c0 	sw	t7,704(v1)
     498:	ac590004 	sw	t9,4(v0)
     49c:	ac580000 	sw	t8,0(v0)
     4a0:	8fa80058 	lw	t0,88(sp)
     4a4:	3c060000 	lui	a2,0x0
     4a8:	24c60000 	addiu	a2,a2,0
     4ac:	27a40044 	addiu	a0,sp,68
     4b0:	240700dc 	li	a3,220
     4b4:	0c000000 	jal	0 <func_80815CE0>
     4b8:	8d050000 	lw	a1,0(t0)
     4bc:	8fbf0014 	lw	ra,20(sp)
     4c0:	27bd0058 	addiu	sp,sp,88
     4c4:	03e00008 	jr	ra
     4c8:	00000000 	nop

000004cc <func_808161AC>:
     4cc:	27bdff10 	addiu	sp,sp,-240
     4d0:	afbf003c 	sw	ra,60(sp)
     4d4:	afbe0038 	sw	s8,56(sp)
     4d8:	afb70034 	sw	s7,52(sp)
     4dc:	afb60030 	sw	s6,48(sp)
     4e0:	afb5002c 	sw	s5,44(sp)
     4e4:	afb40028 	sw	s4,40(sp)
     4e8:	afb30024 	sw	s3,36(sp)
     4ec:	afb20020 	sw	s2,32(sp)
     4f0:	afb1001c 	sw	s1,28(sp)
     4f4:	afb00018 	sw	s0,24(sp)
     4f8:	948e0014 	lhu	t6,20(a0)
     4fc:	00808025 	move	s0,a0
     500:	3c060000 	lui	a2,0x0
     504:	31cf0f00 	andi	t7,t6,0xf00
     508:	afaf00c8 	sw	t7,200(sp)
     50c:	8c850000 	lw	a1,0(a0)
     510:	afb000f0 	sw	s0,240(sp)
     514:	27a400b4 	addiu	a0,sp,180
     518:	24c60000 	addiu	a2,a2,0
     51c:	24070192 	li	a3,402
     520:	0c000000 	jal	0 <func_80815CE0>
     524:	afa500c4 	sw	a1,196(sp)
     528:	8fa200f0 	lw	v0,240(sp)
     52c:	3c010001 	lui	at,0x1
     530:	34210760 	ori	at,at,0x760
     534:	24430014 	addiu	v1,v0,20
     538:	80780014 	lb	t8,20(v1)
     53c:	00412821 	addu	a1,v0,at
     540:	a4b80214 	sh	t8,532(a1)
     544:	80790015 	lb	t9,21(v1)
     548:	a4b90216 	sh	t9,534(a1)
     54c:	8c440000 	lw	a0,0(v0)
     550:	afa50058 	sw	a1,88(sp)
     554:	0c000000 	jal	0 <func_80815CE0>
     558:	afa30054 	sw	v1,84(sp)
     55c:	8fa500c4 	lw	a1,196(sp)
     560:	3c0ae200 	lui	t2,0xe200
     564:	3c0b0050 	lui	t3,0x50
     568:	8ca202c0 	lw	v0,704(a1)
     56c:	356b4240 	ori	t3,t3,0x4240
     570:	354a001c 	ori	t2,t2,0x1c
     574:	24490008 	addiu	t1,v0,8
     578:	aca902c0 	sw	t1,704(a1)
     57c:	ac4b0004 	sw	t3,4(v0)
     580:	ac4a0000 	sw	t2,0(v0)
     584:	8ca202c0 	lw	v0,704(a1)
     588:	3c0dfcff 	lui	t5,0xfcff
     58c:	3c0efffd 	lui	t6,0xfffd
     590:	244c0008 	addiu	t4,v0,8
     594:	acac02c0 	sw	t4,704(a1)
     598:	35cef6fb 	ori	t6,t6,0xf6fb
     59c:	35adffff 	ori	t5,t5,0xffff
     5a0:	ac4d0000 	sw	t5,0(v0)
     5a4:	ac4e0004 	sw	t6,4(v0)
     5a8:	8ca202c0 	lw	v0,704(a1)
     5ac:	3c18fa00 	lui	t8,0xfa00
     5b0:	241900dc 	li	t9,220
     5b4:	244f0008 	addiu	t7,v0,8
     5b8:	acaf02c0 	sw	t7,704(a1)
     5bc:	ac590004 	sw	t9,4(v0)
     5c0:	ac580000 	sw	t8,0(v0)
     5c4:	8ca202c0 	lw	v0,704(a1)
     5c8:	3c0af64a 	lui	t2,0xf64a
     5cc:	3c0b0006 	lui	t3,0x6
     5d0:	24490008 	addiu	t1,v0,8
     5d4:	aca902c0 	sw	t1,704(a1)
     5d8:	356b0030 	ori	t3,t3,0x30
     5dc:	354a8390 	ori	t2,t2,0x8390
     5e0:	ac4a0000 	sw	t2,0(v0)
     5e4:	ac4b0004 	sw	t3,4(v0)
     5e8:	8ca202c0 	lw	v0,704(a1)
     5ec:	3c0de700 	lui	t5,0xe700
     5f0:	3c18ff2d 	lui	t8,0xff2d
     5f4:	244c0008 	addiu	t4,v0,8
     5f8:	acac02c0 	sw	t4,704(a1)
     5fc:	ac400004 	sw	zero,4(v0)
     600:	ac4d0000 	sw	t5,0(v0)
     604:	8ca202c0 	lw	v0,704(a1)
     608:	3c0ffcff 	lui	t7,0xfcff
     60c:	35ef97ff 	ori	t7,t7,0x97ff
     610:	244e0008 	addiu	t6,v0,8
     614:	acae02c0 	sw	t6,704(a1)
     618:	3718feff 	ori	t8,t8,0xfeff
     61c:	ac580004 	sw	t8,4(v0)
     620:	ac4f0000 	sw	t7,0(v0)
     624:	8cb002c0 	lw	s0,704(a1)
     628:	0c000000 	jal	0 <func_80815CE0>
     62c:	02002025 	move	a0,s0
     630:	8fa500c4 	lw	a1,196(sp)
     634:	afa200e4 	sw	v0,228(sp)
     638:	3c09de00 	lui	t1,0xde00
     63c:	8ca302b0 	lw	v1,688(a1)
     640:	27a400e4 	addiu	a0,sp,228
     644:	24790008 	addiu	t9,v1,8
     648:	acb902b0 	sw	t9,688(a1)
     64c:	ac690000 	sw	t1,0(v1)
     650:	8faa00e4 	lw	t2,228(sp)
     654:	0c000000 	jal	0 <func_80815CE0>
     658:	ac6a0004 	sw	t2,4(v1)
     65c:	8fab00e4 	lw	t3,228(sp)
     660:	3c0ddf00 	lui	t5,0xdf00
     664:	02002025 	move	a0,s0
     668:	256c0008 	addiu	t4,t3,8
     66c:	afac00e4 	sw	t4,228(sp)
     670:	ad600004 	sw	zero,4(t3)
     674:	ad6d0000 	sw	t5,0(t3)
     678:	0c000000 	jal	0 <func_80815CE0>
     67c:	8fa500e4 	lw	a1,228(sp)
     680:	8fae00e4 	lw	t6,228(sp)
     684:	8fa800c4 	lw	t0,196(sp)
     688:	3c18e700 	lui	t8,0xe700
     68c:	25cf0008 	addiu	t7,t6,8
     690:	ad0e02c0 	sw	t6,704(t0)
     694:	ad0f02c0 	sw	t7,704(t0)
     698:	adc00004 	sw	zero,4(t6)
     69c:	add80000 	sw	t8,0(t6)
     6a0:	8d0202c0 	lw	v0,704(t0)
     6a4:	3c0aff00 	lui	t2,0xff00
     6a8:	354a00ff 	ori	t2,t2,0xff
     6ac:	24590008 	addiu	t9,v0,8
     6b0:	ad1902c0 	sw	t9,704(t0)
     6b4:	3c09fa00 	lui	t1,0xfa00
     6b8:	ac490000 	sw	t1,0(v0)
     6bc:	ac4a0004 	sw	t2,4(v0)
     6c0:	8d0202c0 	lw	v0,704(t0)
     6c4:	3c0cfb00 	lui	t4,0xfb00
     6c8:	3c160000 	lui	s6,0x0
     6cc:	244b0008 	addiu	t3,v0,8
     6d0:	ad0b02c0 	sw	t3,704(t0)
     6d4:	26d60000 	addiu	s6,s6,0
     6d8:	ac400004 	sw	zero,4(v0)
     6dc:	ac4c0000 	sw	t4,0(v0)
     6e0:	86c50030 	lh	a1,48(s6)
     6e4:	8fa400f0 	lw	a0,240(sp)
     6e8:	240600c2 	li	a2,194
     6ec:	2407000f 	li	a3,15
     6f0:	00401825 	move	v1,v0
     6f4:	04a10004 	bgez	a1,708 <func_808161AC+0x23c>
     6f8:	30a5000f 	andi	a1,a1,0xf
     6fc:	10a00002 	beqz	a1,708 <func_808161AC+0x23c>
     700:	00000000 	nop
     704:	24a5fff0 	addiu	a1,a1,-16
     708:	04a10002 	bgez	a1,714 <func_808161AC+0x248>
     70c:	00a00821 	move	at,a1
     710:	24a10003 	addiu	at,a1,3
     714:	00012883 	sra	a1,at,0x2
     718:	0c000000 	jal	0 <func_80815CE0>
     71c:	00000000 	nop
     720:	8fa800c4 	lw	t0,196(sp)
     724:	3c0ee700 	lui	t6,0xe700
     728:	3c18fa00 	lui	t8,0xfa00
     72c:	8d0202c0 	lw	v0,704(t0)
     730:	2419ffff 	li	t9,-1
     734:	00001c00 	sll	v1,zero,0x10
     738:	244d0008 	addiu	t5,v0,8
     73c:	ad0d02c0 	sw	t5,704(t0)
     740:	ac400004 	sw	zero,4(v0)
     744:	ac4e0000 	sw	t6,0(v0)
     748:	8d0202c0 	lw	v0,704(t0)
     74c:	00031c03 	sra	v1,v1,0x10
     750:	00008c00 	sll	s1,zero,0x10
     754:	244f0008 	addiu	t7,v0,8
     758:	ad0f02c0 	sw	t7,704(t0)
     75c:	ac590004 	sw	t9,4(v0)
     760:	ac580000 	sw	t8,0(v0)
     764:	86c50034 	lh	a1,52(s6)
     768:	00118c03 	sra	s1,s1,0x10
     76c:	00008025 	move	s0,zero
     770:	28a103e8 	slti	at,a1,1000
     774:	1420000a 	bnez	at,7a0 <func_808161AC+0x2d4>
     778:	a7a300d8 	sh	v1,216(sp)
     77c:	24a5fc18 	addiu	a1,a1,-1000
     780:	00052c00 	sll	a1,a1,0x10
     784:	24630001 	addiu	v1,v1,1
     788:	00052c03 	sra	a1,a1,0x10
     78c:	28a103e8 	slti	at,a1,1000
     790:	00031c00 	sll	v1,v1,0x10
     794:	1020fff9 	beqz	at,77c <func_808161AC+0x2b0>
     798:	00031c03 	sra	v1,v1,0x10
     79c:	a7a300d8 	sh	v1,216(sp)
     7a0:	28a10064 	slti	at,a1,100
     7a4:	1420000a 	bnez	at,7d0 <func_808161AC+0x304>
     7a8:	a7b100da 	sh	s1,218(sp)
     7ac:	24a5ff9c 	addiu	a1,a1,-100
     7b0:	00052c00 	sll	a1,a1,0x10
     7b4:	26310001 	addiu	s1,s1,1
     7b8:	00052c03 	sra	a1,a1,0x10
     7bc:	28a10064 	slti	at,a1,100
     7c0:	00118c00 	sll	s1,s1,0x10
     7c4:	1020fff9 	beqz	at,7ac <func_808161AC+0x2e0>
     7c8:	00118c03 	sra	s1,s1,0x10
     7cc:	a7b100da 	sh	s1,218(sp)
     7d0:	28a1000a 	slti	at,a1,10
     7d4:	a7a500de 	sh	a1,222(sp)
     7d8:	1420000b 	bnez	at,808 <func_808161AC+0x33c>
     7dc:	a7b000dc 	sh	s0,220(sp)
     7e0:	24a5fff6 	addiu	a1,a1,-10
     7e4:	00052c00 	sll	a1,a1,0x10
     7e8:	26100001 	addiu	s0,s0,1
     7ec:	00052c03 	sra	a1,a1,0x10
     7f0:	28a1000a 	slti	at,a1,10
     7f4:	00108400 	sll	s0,s0,0x10
     7f8:	1020fff9 	beqz	at,7e0 <func_808161AC+0x314>
     7fc:	00108403 	sra	s0,s0,0x10
     800:	a7b000dc 	sh	s0,220(sp)
     804:	a7a500de 	sh	a1,222(sp)
     808:	0000a825 	move	s5,zero
     80c:	24120044 	li	s2,68
     810:	27b000d8 	addiu	s0,sp,216
     814:	00154840 	sll	t1,s5,0x1
     818:	02095021 	addu	t2,s0,t1
     81c:	85450000 	lh	a1,0(t2)
     820:	8fa400f0 	lw	a0,240(sp)
     824:	02403025 	move	a2,s2
     828:	0c000000 	jal	0 <func_80815CE0>
     82c:	2407000f 	li	a3,15
     830:	26b50001 	addiu	s5,s5,1
     834:	0015ac00 	sll	s5,s5,0x10
     838:	0015ac03 	sra	s5,s5,0x10
     83c:	2652000a 	addiu	s2,s2,10
     840:	00129400 	sll	s2,s2,0x10
     844:	2aa10004 	slti	at,s5,4
     848:	1420fff2 	bnez	at,814 <func_808161AC+0x348>
     84c:	00129403 	sra	s2,s2,0x10
     850:	86c5002e 	lh	a1,46(s6)
     854:	00008025 	move	s0,zero
     858:	24060092 	li	a2,146
     85c:	04a10002 	bgez	a1,868 <func_808161AC+0x39c>
     860:	00a00821 	move	at,a1
     864:	24a1000f 	addiu	at,a1,15
     868:	00012903 	sra	a1,at,0x4
     86c:	00052c00 	sll	a1,a1,0x10
     870:	00052c03 	sra	a1,a1,0x10
     874:	28a1000a 	slti	at,a1,10
     878:	1420000a 	bnez	at,8a4 <func_808161AC+0x3d8>
     87c:	a7a500de 	sh	a1,222(sp)
     880:	24a5fff6 	addiu	a1,a1,-10
     884:	00052c00 	sll	a1,a1,0x10
     888:	26100001 	addiu	s0,s0,1
     88c:	00052c03 	sra	a1,a1,0x10
     890:	28a1000a 	slti	at,a1,10
     894:	00108400 	sll	s0,s0,0x10
     898:	1020fff9 	beqz	at,880 <func_808161AC+0x3b4>
     89c:	00108403 	sra	s0,s0,0x10
     8a0:	a7a500de 	sh	a1,222(sp)
     8a4:	8fa400f0 	lw	a0,240(sp)
     8a8:	02002825 	move	a1,s0
     8ac:	2407000f 	li	a3,15
     8b0:	0c000000 	jal	0 <func_80815CE0>
     8b4:	a7b000dc 	sh	s0,220(sp)
     8b8:	87a500de 	lh	a1,222(sp)
     8bc:	8fa400f0 	lw	a0,240(sp)
     8c0:	2406009c 	li	a2,156
     8c4:	0c000000 	jal	0 <func_80815CE0>
     8c8:	2407000f 	li	a3,15
     8cc:	86c50030 	lh	a1,48(s6)
     8d0:	00008025 	move	s0,zero
     8d4:	240600ac 	li	a2,172
     8d8:	04a10002 	bgez	a1,8e4 <func_808161AC+0x418>
     8dc:	00a00821 	move	at,a1
     8e0:	24a1000f 	addiu	at,a1,15
     8e4:	00012903 	sra	a1,at,0x4
     8e8:	00052c00 	sll	a1,a1,0x10
     8ec:	00052c03 	sra	a1,a1,0x10
     8f0:	28a1000a 	slti	at,a1,10
     8f4:	1420000a 	bnez	at,920 <func_808161AC+0x454>
     8f8:	a7a500de 	sh	a1,222(sp)
     8fc:	24a5fff6 	addiu	a1,a1,-10
     900:	00052c00 	sll	a1,a1,0x10
     904:	26100001 	addiu	s0,s0,1
     908:	00052c03 	sra	a1,a1,0x10
     90c:	28a1000a 	slti	at,a1,10
     910:	00108400 	sll	s0,s0,0x10
     914:	1020fff9 	beqz	at,8fc <func_808161AC+0x430>
     918:	00108403 	sra	s0,s0,0x10
     91c:	a7a500de 	sh	a1,222(sp)
     920:	8fa400f0 	lw	a0,240(sp)
     924:	02002825 	move	a1,s0
     928:	2407000f 	li	a3,15
     92c:	0c000000 	jal	0 <func_80815CE0>
     930:	a7b000dc 	sh	s0,220(sp)
     934:	87a500de 	lh	a1,222(sp)
     938:	8fa400f0 	lw	a0,240(sp)
     93c:	240600b6 	li	a2,182
     940:	0c000000 	jal	0 <func_80815CE0>
     944:	2407000f 	li	a3,15
     948:	00008825 	move	s1,zero
     94c:	0000a825 	move	s5,zero
     950:	24140023 	li	s4,35
     954:	241e0008 	li	s8,8
     958:	24170006 	li	s7,6
     95c:	00009825 	move	s3,zero
     960:	2412004e 	li	s2,78
     964:	2a210004 	slti	at,s1,4
     968:	14200006 	bnez	at,984 <func_808161AC+0x4b8>
     96c:	00008025 	move	s0,zero
     970:	12370004 	beq	s1,s7,984 <func_808161AC+0x4b8>
     974:	00000000 	nop
     978:	123e0002 	beq	s1,s8,984 <func_808161AC+0x4b8>
     97c:	2401000e 	li	at,14
     980:	16210009 	bne	s1,at,9a8 <func_808161AC+0x4dc>
     984:	3c0b0000 	lui	t3,0x0
     988:	01715821 	addu	t3,t3,s1
     98c:	916b0000 	lbu	t3,0(t3)
     990:	3c0c0000 	lui	t4,0x0
     994:	018b6021 	addu	t4,t4,t3
     998:	918c0000 	lbu	t4,0(t4)
     99c:	02cc6821 	addu	t5,s6,t4
     9a0:	10000008 	b	9c4 <func_808161AC+0x4f8>
     9a4:	81a5008c 	lb	a1,140(t5)
     9a8:	24010007 	li	at,7
     9ac:	16210004 	bne	s1,at,9c0 <func_808161AC+0x4f4>
     9b0:	02d17821 	addu	t7,s6,s1
     9b4:	02d17021 	addu	t6,s6,s1
     9b8:	10000002 	b	9c4 <func_808161AC+0x4f8>
     9bc:	91c50074 	lbu	a1,116(t6)
     9c0:	91e50074 	lbu	a1,116(t7)
     9c4:	240100ff 	li	at,255
     9c8:	10a1000e 	beq	a1,at,a04 <func_808161AC+0x538>
     9cc:	02403025 	move	a2,s2
     9d0:	28a1000a 	slti	at,a1,10
     9d4:	1420000e 	bnez	at,a10 <func_808161AC+0x544>
     9d8:	a7a500de 	sh	a1,222(sp)
     9dc:	24a5fff6 	addiu	a1,a1,-10
     9e0:	00052c00 	sll	a1,a1,0x10
     9e4:	26100001 	addiu	s0,s0,1
     9e8:	00052c03 	sra	a1,a1,0x10
     9ec:	28a1000a 	slti	at,a1,10
     9f0:	00108400 	sll	s0,s0,0x10
     9f4:	1020fff9 	beqz	at,9dc <func_808161AC+0x510>
     9f8:	00108403 	sra	s0,s0,0x10
     9fc:	10000004 	b	a10 <func_808161AC+0x544>
     a00:	a7a500de 	sh	a1,222(sp)
     a04:	00008400 	sll	s0,zero,0x10
     a08:	00108403 	sra	s0,s0,0x10
     a0c:	a7a000de 	sh	zero,222(sp)
     a10:	8fa400f0 	lw	a0,240(sp)
     a14:	02002825 	move	a1,s0
     a18:	02803825 	move	a3,s4
     a1c:	0c000000 	jal	0 <func_80815CE0>
     a20:	a7b000dc 	sh	s0,220(sp)
     a24:	87a500de 	lh	a1,222(sp)
     a28:	8fa400f0 	lw	a0,240(sp)
     a2c:	2646000a 	addiu	a2,s2,10
     a30:	0c000000 	jal	0 <func_80815CE0>
     a34:	02803825 	move	a3,s4
     a38:	26730001 	addiu	s3,s3,1
     a3c:	00139c00 	sll	s3,s3,0x10
     a40:	00139c03 	sra	s3,s3,0x10
     a44:	26310001 	addiu	s1,s1,1
     a48:	2652001a 	addiu	s2,s2,26
     a4c:	00129400 	sll	s2,s2,0x10
     a50:	00118c00 	sll	s1,s1,0x10
     a54:	2a610006 	slti	at,s3,6
     a58:	00118c03 	sra	s1,s1,0x10
     a5c:	1420ffc1 	bnez	at,964 <func_808161AC+0x498>
     a60:	00129403 	sra	s2,s2,0x10
     a64:	26b50001 	addiu	s5,s5,1
     a68:	0015ac00 	sll	s5,s5,0x10
     a6c:	0015ac03 	sra	s5,s5,0x10
     a70:	2694000f 	addiu	s4,s4,15
     a74:	0014a400 	sll	s4,s4,0x10
     a78:	2aa10004 	slti	at,s5,4
     a7c:	1420ffb7 	bnez	at,95c <func_808161AC+0x490>
     a80:	0014a403 	sra	s4,s4,0x10
     a84:	2411004e 	li	s1,78
     a88:	0000a825 	move	s5,zero
     a8c:	02d5c021 	addu	t8,s6,s5
     a90:	830200bc 	lb	v0,188(t8)
     a94:	00008025 	move	s0,zero
     a98:	02203025 	move	a2,s1
     a9c:	00022c00 	sll	a1,v0,0x10
     aa0:	0440000e 	bltz	v0,adc <func_808161AC+0x610>
     aa4:	00052c03 	sra	a1,a1,0x10
     aa8:	2841000a 	slti	at,v0,10
     aac:	1420000d 	bnez	at,ae4 <func_808161AC+0x618>
     ab0:	a7a000dc 	sh	zero,220(sp)
     ab4:	24a5fff6 	addiu	a1,a1,-10
     ab8:	00052c00 	sll	a1,a1,0x10
     abc:	26100001 	addiu	s0,s0,1
     ac0:	00052c03 	sra	a1,a1,0x10
     ac4:	28a1000a 	slti	at,a1,10
     ac8:	00108400 	sll	s0,s0,0x10
     acc:	1020fff9 	beqz	at,ab4 <func_808161AC+0x5e8>
     ad0:	00108403 	sra	s0,s0,0x10
     ad4:	10000003 	b	ae4 <func_808161AC+0x618>
     ad8:	a7b000dc 	sh	s0,220(sp)
     adc:	00002825 	move	a1,zero
     ae0:	a7a000dc 	sh	zero,220(sp)
     ae4:	8fa400f0 	lw	a0,240(sp)
     ae8:	24070062 	li	a3,98
     aec:	a7a500de 	sh	a1,222(sp)
     af0:	0c000000 	jal	0 <func_80815CE0>
     af4:	a7b100da 	sh	s1,218(sp)
     af8:	87b100da 	lh	s1,218(sp)
     afc:	26b50001 	addiu	s5,s5,1
     b00:	0015ac00 	sll	s5,s5,0x10
     b04:	0015ac03 	sra	s5,s5,0x10
     b08:	2631000a 	addiu	s1,s1,10
     b0c:	2aa10011 	slti	at,s5,17
     b10:	00118c00 	sll	s1,s1,0x10
     b14:	1420ffdd 	bnez	at,a8c <func_808161AC+0x5c0>
     b18:	00118c03 	sra	s1,s1,0x10
     b1c:	3c140000 	lui	s4,0x0
     b20:	26940000 	addiu	s4,s4,0
     b24:	2411004e 	li	s1,78
     b28:	0000a825 	move	s5,zero
     b2c:	00154880 	sll	t1,s5,0x2
     b30:	02895021 	addu	t2,s4,t1
     b34:	8d4b0000 	lw	t3,0(t2)
     b38:	8ed900a0 	lw	t9,160(s6)
     b3c:	3c0d0000 	lui	t5,0x0
     b40:	01b56821 	addu	t5,t5,s5
     b44:	91ad0000 	lbu	t5,0(t5)
     b48:	032b6024 	and	t4,t9,t3
     b4c:	a7b100da 	sh	s1,218(sp)
     b50:	8fa400f0 	lw	a0,240(sp)
     b54:	02203025 	move	a2,s1
     b58:	24070073 	li	a3,115
     b5c:	0c000000 	jal	0 <func_80815CE0>
     b60:	01ac2807 	srav	a1,t4,t5
     b64:	87b100da 	lh	s1,218(sp)
     b68:	26b50001 	addiu	s5,s5,1
     b6c:	0015ac00 	sll	s5,s5,0x10
     b70:	0015ac03 	sra	s5,s5,0x10
     b74:	2631000c 	addiu	s1,s1,12
     b78:	00118c00 	sll	s1,s1,0x10
     b7c:	2aa10008 	slti	at,s5,8
     b80:	1420ffea 	bnez	at,b2c <func_808161AC+0x660>
     b84:	00118c03 	sra	s1,s1,0x10
     b88:	3c130000 	lui	s3,0x0
     b8c:	3c120000 	lui	s2,0x0
     b90:	26520000 	addiu	s2,s2,0
     b94:	26730000 	addiu	s3,s3,0
     b98:	241100ca 	li	s1,202
     b9c:	0000a825 	move	s5,zero
     ba0:	00157840 	sll	t7,s5,0x1
     ba4:	024fc021 	addu	t8,s2,t7
     ba8:	97090000 	lhu	t1,0(t8)
     bac:	96ce009c 	lhu	t6,156(s6)
     bb0:	0275c821 	addu	t9,s3,s5
     bb4:	932b0000 	lbu	t3,0(t9)
     bb8:	01c95024 	and	t2,t6,t1
     bbc:	a7b100da 	sh	s1,218(sp)
     bc0:	8fa400f0 	lw	a0,240(sp)
     bc4:	02203025 	move	a2,s1
     bc8:	24070073 	li	a3,115
     bcc:	0c000000 	jal	0 <func_80815CE0>
     bd0:	016a2807 	srav	a1,t2,t3
     bd4:	87b100da 	lh	s1,218(sp)
     bd8:	26b50001 	addiu	s5,s5,1
     bdc:	0015ac00 	sll	s5,s5,0x10
     be0:	0015ac03 	sra	s5,s5,0x10
     be4:	2631000c 	addiu	s1,s1,12
     be8:	00118c00 	sll	s1,s1,0x10
     bec:	2aa10004 	slti	at,s5,4
     bf0:	1420ffeb 	bnez	at,ba0 <func_808161AC+0x6d4>
     bf4:	00118c03 	sra	s1,s1,0x10
     bf8:	2411004e 	li	s1,78
     bfc:	0000a825 	move	s5,zero
     c00:	02d56821 	addu	t5,s6,s5
     c04:	91af00a8 	lbu	t7,168(t5)
     c08:	964c0000 	lhu	t4,0(s2)
     c0c:	a7b100da 	sh	s1,218(sp)
     c10:	8fa400f0 	lw	a0,240(sp)
     c14:	018f8024 	and	s0,t4,t7
     c18:	00108400 	sll	s0,s0,0x10
     c1c:	00102c03 	sra	a1,s0,0x10
     c20:	a7a500dc 	sh	a1,220(sp)
     c24:	02203025 	move	a2,s1
     c28:	0c000000 	jal	0 <func_80815CE0>
     c2c:	24070084 	li	a3,132
     c30:	87b100da 	lh	s1,218(sp)
     c34:	26b50001 	addiu	s5,s5,1
     c38:	0015ac00 	sll	s5,s5,0x10
     c3c:	0015ac03 	sra	s5,s5,0x10
     c40:	2631000c 	addiu	s1,s1,12
     c44:	00118c00 	sll	s1,s1,0x10
     c48:	2aa1000c 	slti	at,s5,12
     c4c:	1420ffec 	bnez	at,c00 <func_808161AC+0x734>
     c50:	00118c03 	sra	s1,s1,0x10
     c54:	3c120000 	lui	s2,0x0
     c58:	26520000 	addiu	s2,s2,0
     c5c:	2411004e 	li	s1,78
     c60:	0000a825 	move	s5,zero
     c64:	0015c080 	sll	t8,s5,0x2
     c68:	02587021 	addu	t6,s2,t8
     c6c:	8dc90000 	lw	t1,0(t6)
     c70:	8ed900a4 	lw	t9,164(s6)
     c74:	00008025 	move	s0,zero
     c78:	8fa400f0 	lw	a0,240(sp)
     c7c:	01395024 	and	t2,t1,t9
     c80:	11400002 	beqz	t2,c8c <func_808161AC+0x7c0>
     c84:	02203025 	move	a2,s1
     c88:	24100001 	li	s0,1
     c8c:	02002825 	move	a1,s0
     c90:	24070095 	li	a3,149
     c94:	a7b000dc 	sh	s0,220(sp)
     c98:	0c000000 	jal	0 <func_80815CE0>
     c9c:	a7b100da 	sh	s1,218(sp)
     ca0:	87b100da 	lh	s1,218(sp)
     ca4:	26b50001 	addiu	s5,s5,1
     ca8:	0015ac00 	sll	s5,s5,0x10
     cac:	0015ac03 	sra	s5,s5,0x10
     cb0:	2631000c 	addiu	s1,s1,12
     cb4:	00118c00 	sll	s1,s1,0x10
     cb8:	2aa10006 	slti	at,s5,6
     cbc:	1420ffe9 	bnez	at,c64 <func_808161AC+0x798>
     cc0:	00118c03 	sra	s1,s1,0x10
     cc4:	241100d2 	li	s1,210
     cc8:	0000a825 	move	s5,zero
     ccc:	00155880 	sll	t3,s5,0x2
     cd0:	024b6821 	addu	t5,s2,t3
     cd4:	8dac0048 	lw	t4,72(t5)
     cd8:	8ecf00a4 	lw	t7,164(s6)
     cdc:	00008025 	move	s0,zero
     ce0:	8fa400f0 	lw	a0,240(sp)
     ce4:	018fc024 	and	t8,t4,t7
     ce8:	13000002 	beqz	t8,cf4 <func_808161AC+0x828>
     cec:	02203025 	move	a2,s1
     cf0:	24100001 	li	s0,1
     cf4:	02002825 	move	a1,s0
     cf8:	24070095 	li	a3,149
     cfc:	a7b000dc 	sh	s0,220(sp)
     d00:	0c000000 	jal	0 <func_80815CE0>
     d04:	a7b100da 	sh	s1,218(sp)
     d08:	87b100da 	lh	s1,218(sp)
     d0c:	26b50001 	addiu	s5,s5,1
     d10:	0015ac00 	sll	s5,s5,0x10
     d14:	0015ac03 	sra	s5,s5,0x10
     d18:	2631000c 	addiu	s1,s1,12
     d1c:	00118c00 	sll	s1,s1,0x10
     d20:	2aa10003 	slti	at,s5,3
     d24:	1420ffe9 	bnez	at,ccc <func_808161AC+0x800>
     d28:	00118c03 	sra	s1,s1,0x10
     d2c:	2411004e 	li	s1,78
     d30:	0000a825 	move	s5,zero
     d34:	00157080 	sll	t6,s5,0x2
     d38:	024e4821 	addu	t1,s2,t6
     d3c:	8d390018 	lw	t9,24(t1)
     d40:	8eca00a4 	lw	t2,164(s6)
     d44:	00008025 	move	s0,zero
     d48:	8fa400f0 	lw	a0,240(sp)
     d4c:	032a5824 	and	t3,t9,t2
     d50:	11600002 	beqz	t3,d5c <func_808161AC+0x890>
     d54:	02203025 	move	a2,s1
     d58:	24100001 	li	s0,1
     d5c:	02002825 	move	a1,s0
     d60:	240700a6 	li	a3,166
     d64:	a7b000dc 	sh	s0,220(sp)
     d68:	0c000000 	jal	0 <func_80815CE0>
     d6c:	a7b100da 	sh	s1,218(sp)
     d70:	87b100da 	lh	s1,218(sp)
     d74:	26b50001 	addiu	s5,s5,1
     d78:	0015ac00 	sll	s5,s5,0x10
     d7c:	0015ac03 	sra	s5,s5,0x10
     d80:	2631000c 	addiu	s1,s1,12
     d84:	00118c00 	sll	s1,s1,0x10
     d88:	2aa1000c 	slti	at,s5,12
     d8c:	1420ffe9 	bnez	at,d34 <func_808161AC+0x868>
     d90:	00118c03 	sra	s1,s1,0x10
     d94:	2411004e 	li	s1,78
     d98:	0000a825 	move	s5,zero
     d9c:	00156880 	sll	t5,s5,0x2
     da0:	024d6021 	addu	t4,s2,t5
     da4:	8d8f0054 	lw	t7,84(t4)
     da8:	8ed800a4 	lw	t8,164(s6)
     dac:	00008025 	move	s0,zero
     db0:	8fa400f0 	lw	a0,240(sp)
     db4:	01f87024 	and	t6,t7,t8
     db8:	11c00002 	beqz	t6,dc4 <func_808161AC+0x8f8>
     dbc:	02203025 	move	a2,s1
     dc0:	24100001 	li	s0,1
     dc4:	02002825 	move	a1,s0
     dc8:	240700b9 	li	a3,185
     dcc:	a7b000dc 	sh	s0,220(sp)
     dd0:	0c000000 	jal	0 <func_80815CE0>
     dd4:	a7b100da 	sh	s1,218(sp)
     dd8:	87b100da 	lh	s1,218(sp)
     ddc:	26b50001 	addiu	s5,s5,1
     de0:	0015ac00 	sll	s5,s5,0x10
     de4:	0015ac03 	sra	s5,s5,0x10
     de8:	2631000c 	addiu	s1,s1,12
     dec:	00118c00 	sll	s1,s1,0x10
     df0:	2aa10002 	slti	at,s5,2
     df4:	1420ffe9 	bnez	at,d9c <func_808161AC+0x8d0>
     df8:	00118c03 	sra	s1,s1,0x10
     dfc:	86c500d0 	lh	a1,208(s6)
     e00:	00008825 	move	s1,zero
     e04:	00008025 	move	s0,zero
     e08:	28a10064 	slti	at,a1,100
     e0c:	14200009 	bnez	at,e34 <func_808161AC+0x968>
     e10:	24060091 	li	a2,145
     e14:	24a5ff9c 	addiu	a1,a1,-100
     e18:	00052c00 	sll	a1,a1,0x10
     e1c:	26310001 	addiu	s1,s1,1
     e20:	00052c03 	sra	a1,a1,0x10
     e24:	28a10064 	slti	at,a1,100
     e28:	00118c00 	sll	s1,s1,0x10
     e2c:	1020fff9 	beqz	at,e14 <func_808161AC+0x948>
     e30:	00118c03 	sra	s1,s1,0x10
     e34:	28a1000a 	slti	at,a1,10
     e38:	a7a500de 	sh	a1,222(sp)
     e3c:	1420000b 	bnez	at,e6c <func_808161AC+0x9a0>
     e40:	a7b000dc 	sh	s0,220(sp)
     e44:	24a5fff6 	addiu	a1,a1,-10
     e48:	00052c00 	sll	a1,a1,0x10
     e4c:	26100001 	addiu	s0,s0,1
     e50:	00052c03 	sra	a1,a1,0x10
     e54:	28a1000a 	slti	at,a1,10
     e58:	00108400 	sll	s0,s0,0x10
     e5c:	1020fff9 	beqz	at,e44 <func_808161AC+0x978>
     e60:	00108403 	sra	s0,s0,0x10
     e64:	a7b000dc 	sh	s0,220(sp)
     e68:	a7a500de 	sh	a1,222(sp)
     e6c:	8fa400f0 	lw	a0,240(sp)
     e70:	02202825 	move	a1,s1
     e74:	240700b9 	li	a3,185
     e78:	0c000000 	jal	0 <func_80815CE0>
     e7c:	a7b100da 	sh	s1,218(sp)
     e80:	87a500dc 	lh	a1,220(sp)
     e84:	8fa400f0 	lw	a0,240(sp)
     e88:	2406009b 	li	a2,155
     e8c:	0c000000 	jal	0 <func_80815CE0>
     e90:	240700b9 	li	a3,185
     e94:	87a500de 	lh	a1,222(sp)
     e98:	8fa400f0 	lw	a0,240(sp)
     e9c:	240600a5 	li	a2,165
     ea0:	0c000000 	jal	0 <func_80815CE0>
     ea4:	240700b9 	li	a3,185
     ea8:	8ec900a4 	lw	t1,164(s6)
     eac:	3c10f000 	lui	s0,0xf000
     eb0:	8fa400f0 	lw	a0,240(sp)
     eb4:	0130c824 	and	t9,t1,s0
     eb8:	03302824 	and	a1,t9,s0
     ebc:	00052f02 	srl	a1,a1,0x1c
     ec0:	240600d2 	li	a2,210
     ec4:	0c000000 	jal	0 <func_80815CE0>
     ec8:	240700b9 	li	a3,185
     ecc:	3c020000 	lui	v0,0x0
     ed0:	8c420000 	lw	v0,0(v0)
     ed4:	8fa400c8 	lw	a0,200(sp)
     ed8:	24030010 	li	v1,16
     edc:	3c010000 	lui	at,0x0
     ee0:	1482000e 	bne	a0,v0,f1c <func_808161AC+0xa50>
     ee4:	3c0d0000 	lui	t5,0x0
     ee8:	3c030000 	lui	v1,0x0
     eec:	8c630000 	lw	v1,0(v1)
     ef0:	3c010000 	lui	at,0x0
     ef4:	2463ffff 	addiu	v1,v1,-1
     ef8:	04610005 	bgez	v1,f10 <func_808161AC+0xa44>
     efc:	00000000 	nop
     f00:	24030001 	li	v1,1
     f04:	3c010000 	lui	at,0x0
     f08:	10000007 	b	f28 <func_808161AC+0xa5c>
     f0c:	ac230000 	sw	v1,0(at)
     f10:	ac230000 	sw	v1,0(at)
     f14:	10000004 	b	f28 <func_808161AC+0xa5c>
     f18:	00822026 	xor	a0,a0,v0
     f1c:	ac240000 	sw	a0,0(at)
     f20:	3c010000 	lui	at,0x0
     f24:	ac230000 	sw	v1,0(at)
     f28:	308a0400 	andi	t2,a0,0x400
     f2c:	11400012 	beqz	t2,f78 <func_808161AC+0xaac>
     f30:	308c0800 	andi	t4,a0,0x800
     f34:	3c020000 	lui	v0,0x0
     f38:	84420000 	lh	v0,0(v0)
     f3c:	24420001 	addiu	v0,v0,1
     f40:	00021400 	sll	v0,v0,0x10
     f44:	00021403 	sra	v0,v0,0x10
     f48:	2c41000b 	sltiu	at,v0,11
     f4c:	54200003 	bnezl	at,f5c <func_808161AC+0xa90>
     f50:	00025840 	sll	t3,v0,0x1
     f54:	00001025 	move	v0,zero
     f58:	00025840 	sll	t3,v0,0x1
     f5c:	01ab6821 	addu	t5,t5,t3
     f60:	95ad0000 	lhu	t5,0(t5)
     f64:	3c010000 	lui	at,0x0
     f68:	a42d0000 	sh	t5,0(at)
     f6c:	3c010000 	lui	at,0x0
     f70:	1000002e 	b	102c <func_808161AC+0xb60>
     f74:	a4220000 	sh	v0,0(at)
     f78:	11800012 	beqz	t4,fc4 <func_808161AC+0xaf8>
     f7c:	308e0200 	andi	t6,a0,0x200
     f80:	3c020000 	lui	v0,0x0
     f84:	84420000 	lh	v0,0(v0)
     f88:	3c180000 	lui	t8,0x0
     f8c:	2442ffff 	addiu	v0,v0,-1
     f90:	00021400 	sll	v0,v0,0x10
     f94:	00021403 	sra	v0,v0,0x10
     f98:	04430003 	bgezl	v0,fa8 <func_808161AC+0xadc>
     f9c:	00027840 	sll	t7,v0,0x1
     fa0:	24020016 	li	v0,22
     fa4:	00027840 	sll	t7,v0,0x1
     fa8:	030fc021 	addu	t8,t8,t7
     fac:	97180000 	lhu	t8,0(t8)
     fb0:	3c010000 	lui	at,0x0
     fb4:	a4380000 	sh	t8,0(at)
     fb8:	3c010000 	lui	at,0x0
     fbc:	1000001b 	b	102c <func_808161AC+0xb60>
     fc0:	a4220000 	sh	v0,0(at)
     fc4:	11c0000d 	beqz	t6,ffc <func_808161AC+0xb30>
     fc8:	308c0100 	andi	t4,a0,0x100
     fcc:	3c090000 	lui	t1,0x0
     fd0:	85290000 	lh	t1,0(t1)
     fd4:	3c010000 	lui	at,0x0
     fd8:	240d005c 	li	t5,92
     fdc:	2539ffff 	addiu	t9,t1,-1
     fe0:	00195400 	sll	t2,t9,0x10
     fe4:	000a5c03 	sra	t3,t2,0x10
     fe8:	05610010 	bgez	t3,102c <func_808161AC+0xb60>
     fec:	a4390000 	sh	t9,0(at)
     ff0:	3c010000 	lui	at,0x0
     ff4:	1000000d 	b	102c <func_808161AC+0xb60>
     ff8:	a42d0000 	sh	t5,0(at)
     ffc:	1180000b 	beqz	t4,102c <func_808161AC+0xb60>
    1000:	3c0f0000 	lui	t7,0x0
    1004:	85ef0000 	lh	t7,0(t7)
    1008:	3c010000 	lui	at,0x0
    100c:	25f80001 	addiu	t8,t7,1
    1010:	00187400 	sll	t6,t8,0x10
    1014:	000e4c03 	sra	t1,t6,0x10
    1018:	a4380000 	sh	t8,0(at)
    101c:	2921005d 	slti	at,t1,93
    1020:	14200002 	bnez	at,102c <func_808161AC+0xb60>
    1024:	3c010000 	lui	at,0x0
    1028:	a4200000 	sh	zero,0(at)
    102c:	3c190000 	lui	t9,0x0
    1030:	87390000 	lh	t9,0(t9)
    1034:	24110001 	li	s1,1
    1038:	5320000c 	beqzl	t9,106c <func_808161AC+0xba0>
    103c:	8faa0054 	lw	t2,84(sp)
    1040:	13310041 	beq	t9,s1,1148 <func_808161AC+0xc7c>
    1044:	8fab0054 	lw	t3,84(sp)
    1048:	24010002 	li	at,2
    104c:	13210060 	beq	t9,at,11d0 <func_808161AC+0xd04>
    1050:	8fb80054 	lw	t8,84(sp)
    1054:	2401005c 	li	at,92
    1058:	1321007e 	beq	t9,at,1254 <func_808161AC+0xd88>
    105c:	8fab0054 	lw	t3,84(sp)
    1060:	1000009d 	b	12d8 <func_808161AC+0xe0c>
    1064:	3c0c0000 	lui	t4,0x0
    1068:	8faa0054 	lw	t2,84(sp)
    106c:	2401fff7 	li	at,-9
    1070:	9542000c 	lhu	v0,12(t2)
    1074:	00415827 	nor	t3,v0,at
    1078:	5560000b 	bnezl	t3,10a8 <func_808161AC+0xbdc>
    107c:	2401fffb 	li	at,-5
    1080:	86cd0034 	lh	t5,52(s6)
    1084:	24110001 	li	s1,1
    1088:	25acff9c 	addiu	t4,t5,-100
    108c:	a6cc0034 	sh	t4,52(s6)
    1090:	86cf0034 	lh	t7,52(s6)
    1094:	05e1002a 	bgez	t7,1140 <func_808161AC+0xc74>
    1098:	00000000 	nop
    109c:	10000346 	b	1db8 <func_808161AC+0x18ec>
    10a0:	a6c00034 	sh	zero,52(s6)
    10a4:	2401fffb 	li	at,-5
    10a8:	0041c027 	nor	t8,v0,at
    10ac:	1700000c 	bnez	t8,10e0 <func_808161AC+0xc14>
    10b0:	2401fffd 	li	at,-3
    10b4:	86ce0034 	lh	t6,52(s6)
    10b8:	240a270f 	li	t2,9999
    10bc:	24110001 	li	s1,1
    10c0:	25c90064 	addiu	t1,t6,100
    10c4:	a6c90034 	sh	t1,52(s6)
    10c8:	86d90034 	lh	t9,52(s6)
    10cc:	2b21270f 	slti	at,t9,9999
    10d0:	1420001b 	bnez	at,1140 <func_808161AC+0xc74>
    10d4:	00000000 	nop
    10d8:	10000337 	b	1db8 <func_808161AC+0x18ec>
    10dc:	a6ca0034 	sh	t2,52(s6)
    10e0:	00415827 	nor	t3,v0,at
    10e4:	1560000a 	bnez	t3,1110 <func_808161AC+0xc44>
    10e8:	2401fffe 	li	at,-2
    10ec:	86cd0034 	lh	t5,52(s6)
    10f0:	24110001 	li	s1,1
    10f4:	25acffff 	addiu	t4,t5,-1
    10f8:	a6cc0034 	sh	t4,52(s6)
    10fc:	86cf0034 	lh	t7,52(s6)
    1100:	05e1000f 	bgez	t7,1140 <func_808161AC+0xc74>
    1104:	00000000 	nop
    1108:	1000032b 	b	1db8 <func_808161AC+0x18ec>
    110c:	a6c00034 	sh	zero,52(s6)
    1110:	0041c027 	nor	t8,v0,at
    1114:	1700000a 	bnez	t8,1140 <func_808161AC+0xc74>
    1118:	00000000 	nop
    111c:	86ce0034 	lh	t6,52(s6)
    1120:	240a270f 	li	t2,9999
    1124:	25c90001 	addiu	t1,t6,1
    1128:	a6c90034 	sh	t1,52(s6)
    112c:	86d90034 	lh	t9,52(s6)
    1130:	2b21270f 	slti	at,t9,9999
    1134:	14200002 	bnez	at,1140 <func_808161AC+0xc74>
    1138:	00000000 	nop
    113c:	a6ca0034 	sh	t2,52(s6)
    1140:	1000031d 	b	1db8 <func_808161AC+0x18ec>
    1144:	24110001 	li	s1,1
    1148:	9562000c 	lhu	v0,12(t3)
    114c:	2401fff7 	li	at,-9
    1150:	00416827 	nor	t5,v0,at
    1154:	11a00004 	beqz	t5,1168 <func_808161AC+0xc9c>
    1158:	2401fffd 	li	at,-3
    115c:	00416027 	nor	t4,v0,at
    1160:	1580000b 	bnez	t4,1190 <func_808161AC+0xcc4>
    1164:	2401fffb 	li	at,-5
    1168:	86cf002e 	lh	t7,46(s6)
    116c:	24090030 	li	t1,48
    1170:	25f8fff0 	addiu	t8,t7,-16
    1174:	a6d8002e 	sh	t8,46(s6)
    1178:	86ce002e 	lh	t6,46(s6)
    117c:	29c10030 	slti	at,t6,48
    1180:	5020030e 	beqzl	at,1dbc <func_808161AC+0x18f0>
    1184:	8fad00c4 	lw	t5,196(sp)
    1188:	1000030b 	b	1db8 <func_808161AC+0x18ec>
    118c:	a6c9002e 	sh	t1,46(s6)
    1190:	0041c827 	nor	t9,v0,at
    1194:	13200004 	beqz	t9,11a8 <func_808161AC+0xcdc>
    1198:	2401fffe 	li	at,-2
    119c:	00415027 	nor	t2,v0,at
    11a0:	55400306 	bnezl	t2,1dbc <func_808161AC+0x18f0>
    11a4:	8fad00c4 	lw	t5,196(sp)
    11a8:	86cb002e 	lh	t3,46(s6)
    11ac:	240f0140 	li	t7,320
    11b0:	256d0010 	addiu	t5,t3,16
    11b4:	a6cd002e 	sh	t5,46(s6)
    11b8:	86cc002e 	lh	t4,46(s6)
    11bc:	29810140 	slti	at,t4,320
    11c0:	542002fe 	bnezl	at,1dbc <func_808161AC+0x18f0>
    11c4:	8fad00c4 	lw	t5,196(sp)
    11c8:	100002fb 	b	1db8 <func_808161AC+0x18ec>
    11cc:	a6cf002e 	sh	t7,46(s6)
    11d0:	9702000c 	lhu	v0,12(t8)
    11d4:	2401fffd 	li	at,-3
    11d8:	8fa400f0 	lw	a0,240(sp)
    11dc:	00417027 	nor	t6,v0,at
    11e0:	15c00005 	bnez	t6,11f8 <func_808161AC+0xd2c>
    11e4:	2401fffe 	li	at,-2
    11e8:	0c000000 	jal	0 <func_80815CE0>
    11ec:	2405fffc 	li	a1,-4
    11f0:	100002f2 	b	1dbc <func_808161AC+0x18f0>
    11f4:	8fad00c4 	lw	t5,196(sp)
    11f8:	00414827 	nor	t1,v0,at
    11fc:	15200006 	bnez	t1,1218 <func_808161AC+0xd4c>
    1200:	2401fff7 	li	at,-9
    1204:	8fa400f0 	lw	a0,240(sp)
    1208:	0c000000 	jal	0 <func_80815CE0>
    120c:	24050004 	li	a1,4
    1210:	100002ea 	b	1dbc <func_808161AC+0x18f0>
    1214:	8fad00c4 	lw	t5,196(sp)
    1218:	0041c827 	nor	t9,v0,at
    121c:	17200006 	bnez	t9,1238 <func_808161AC+0xd6c>
    1220:	2401fffb 	li	at,-5
    1224:	8fa400f0 	lw	a0,240(sp)
    1228:	0c000000 	jal	0 <func_80815CE0>
    122c:	2405fff0 	li	a1,-16
    1230:	100002e2 	b	1dbc <func_808161AC+0x18f0>
    1234:	8fad00c4 	lw	t5,196(sp)
    1238:	00415027 	nor	t2,v0,at
    123c:	154002de 	bnez	t2,1db8 <func_808161AC+0x18ec>
    1240:	8fa400f0 	lw	a0,240(sp)
    1244:	0c000000 	jal	0 <func_80815CE0>
    1248:	24050010 	li	a1,16
    124c:	100002db 	b	1dbc <func_808161AC+0x18f0>
    1250:	8fad00c4 	lw	t5,196(sp)
    1254:	9562000c 	lhu	v0,12(t3)
    1258:	2401fff7 	li	at,-9
    125c:	00416827 	nor	t5,v0,at
    1260:	11a00004 	beqz	t5,1274 <func_808161AC+0xda8>
    1264:	2401fffd 	li	at,-3
    1268:	00416027 	nor	t4,v0,at
    126c:	1580000a 	bnez	t4,1298 <func_808161AC+0xdcc>
    1270:	2401fffb 	li	at,-5
    1274:	8ec200a4 	lw	v0,164(s6)
    1278:	3c01f000 	lui	at,0xf000
    127c:	00507824 	and	t7,v0,s0
    1280:	01f0c024 	and	t8,t7,s0
    1284:	00187702 	srl	t6,t8,0x1c
    1288:	11c002cb 	beqz	t6,1db8 <func_808161AC+0x18ec>
    128c:	00414821 	addu	t1,v0,at
    1290:	100002c9 	b	1db8 <func_808161AC+0x18ec>
    1294:	aec900a4 	sw	t1,164(s6)
    1298:	0041c827 	nor	t9,v0,at
    129c:	13200004 	beqz	t9,12b0 <func_808161AC+0xde4>
    12a0:	2401fffe 	li	at,-2
    12a4:	00415027 	nor	t2,v0,at
    12a8:	554002c4 	bnezl	t2,1dbc <func_808161AC+0x18f0>
    12ac:	8fad00c4 	lw	t5,196(sp)
    12b0:	8ec200a4 	lw	v0,164(s6)
    12b4:	3c014000 	lui	at,0x4000
    12b8:	34210001 	ori	at,at,0x1
    12bc:	00505824 	and	t3,v0,s0
    12c0:	0161082b 	sltu	at,t3,at
    12c4:	102002bc 	beqz	at,1db8 <func_808161AC+0x18ec>
    12c8:	3c011000 	lui	at,0x1000
    12cc:	00416821 	addu	t5,v0,at
    12d0:	100002b9 	b	1db8 <func_808161AC+0x18ec>
    12d4:	aecd00a4 	sw	t5,164(s6)
    12d8:	858c0000 	lh	t4,0(t4)
    12dc:	3c0d0000 	lui	t5,0x0
    12e0:	2981001b 	slti	at,t4,27
    12e4:	1020017d 	beqz	at,18dc <func_808161AC+0x1410>
    12e8:	2582fffd 	addiu	v0,t4,-3
    12ec:	00022c00 	sll	a1,v0,0x10
    12f0:	00052c03 	sra	a1,a1,0x10
    12f4:	0002ac00 	sll	s5,v0,0x10
    12f8:	28a10004 	slti	at,a1,4
    12fc:	14200007 	bnez	at,131c <func_808161AC+0xe50>
    1300:	0015ac03 	sra	s5,s5,0x10
    1304:	50b70006 	beql	a1,s7,1320 <func_808161AC+0xe54>
    1308:	8faf0054 	lw	t7,84(sp)
    130c:	10be0003 	beq	a1,s8,131c <func_808161AC+0xe50>
    1310:	2401000e 	li	at,14
    1314:	54a10042 	bnel	a1,at,1420 <func_808161AC+0xf54>
    1318:	24010007 	li	at,7
    131c:	8faf0054 	lw	t7,84(sp)
    1320:	2401fff7 	li	at,-9
    1324:	3c0e0000 	lui	t6,0x0
    1328:	95e2000c 	lhu	v0,12(t7)
    132c:	25ce0000 	addiu	t6,t6,0
    1330:	02ae8021 	addu	s0,s5,t6
    1334:	0041c027 	nor	t8,v0,at
    1338:	5700000f 	bnezl	t8,1378 <func_808161AC+0xeac>
    133c:	2401fffd 	li	at,-3
    1340:	92040000 	lbu	a0,0(s0)
    1344:	3c050000 	lui	a1,0x0
    1348:	00a42821 	addu	a1,a1,a0
    134c:	0c000000 	jal	0 <func_80815CE0>
    1350:	90a50000 	lbu	a1,0(a1)
    1354:	92090000 	lbu	t1,0(s0)
    1358:	3c190000 	lui	t9,0x0
    135c:	0329c821 	addu	t9,t9,t1
    1360:	93390000 	lbu	t9,0(t9)
    1364:	02d95021 	addu	t2,s6,t9
    1368:	a140008c 	sb	zero,140(t2)
    136c:	8fab0054 	lw	t3,84(sp)
    1370:	9562000c 	lhu	v0,12(t3)
    1374:	2401fffd 	li	at,-3
    1378:	00416827 	nor	t5,v0,at
    137c:	15a00016 	bnez	t5,13d8 <func_808161AC+0xf0c>
    1380:	2401fffe 	li	at,-2
    1384:	3c040000 	lui	a0,0x0
    1388:	00952021 	addu	a0,a0,s5
    138c:	90840000 	lbu	a0,0(a0)
    1390:	3c0c0000 	lui	t4,0x0
    1394:	24190063 	li	t9,99
    1398:	01846021 	addu	t4,t4,a0
    139c:	918c0000 	lbu	t4,0(t4)
    13a0:	02cc1021 	addu	v0,s6,t4
    13a4:	904f0074 	lbu	t7,116(v0)
    13a8:	52af0003 	beql	s5,t7,13b8 <func_808161AC+0xeec>
    13ac:	8058008c 	lb	t8,140(v0)
    13b0:	a0440074 	sb	a0,116(v0)
    13b4:	8058008c 	lb	t8,140(v0)
    13b8:	270e0001 	addiu	t6,t8,1
    13bc:	a04e008c 	sb	t6,140(v0)
    13c0:	8049008c 	lb	t1,140(v0)
    13c4:	29210064 	slti	at,t1,100
    13c8:	5420027c 	bnezl	at,1dbc <func_808161AC+0x18f0>
    13cc:	8fad00c4 	lw	t5,196(sp)
    13d0:	10000279 	b	1db8 <func_808161AC+0x18ec>
    13d4:	a059008c 	sb	t9,140(v0)
    13d8:	00415027 	nor	t2,v0,at
    13dc:	15400276 	bnez	t2,1db8 <func_808161AC+0x18ec>
    13e0:	3c0b0000 	lui	t3,0x0
    13e4:	01755821 	addu	t3,t3,s5
    13e8:	916b0000 	lbu	t3,0(t3)
    13ec:	3c0d0000 	lui	t5,0x0
    13f0:	01ab6821 	addu	t5,t5,t3
    13f4:	91ad0000 	lbu	t5,0(t5)
    13f8:	02cd1021 	addu	v0,s6,t5
    13fc:	804c008c 	lb	t4,140(v0)
    1400:	258fffff 	addiu	t7,t4,-1
    1404:	a04f008c 	sb	t7,140(v0)
    1408:	8058008c 	lb	t8,140(v0)
    140c:	0703026b 	bgezl	t8,1dbc <func_808161AC+0x18f0>
    1410:	8fad00c4 	lw	t5,196(sp)
    1414:	10000268 	b	1db8 <func_808161AC+0x18ec>
    1418:	a040008c 	sb	zero,140(v0)
    141c:	24010007 	li	at,7
    1420:	14a1002f 	bne	a1,at,14e0 <func_808161AC+0x1014>
    1424:	8fae0054 	lw	t6,84(sp)
    1428:	95c2000c 	lhu	v0,12(t6)
    142c:	2401fff7 	li	at,-9
    1430:	24040007 	li	a0,7
    1434:	00414827 	nor	t1,v0,at
    1438:	15200006 	bnez	t1,1454 <func_808161AC+0xf88>
    143c:	2401fffd 	li	at,-3
    1440:	3c050000 	lui	a1,0x0
    1444:	0c000000 	jal	0 <func_80815CE0>
    1448:	90a50007 	lbu	a1,7(a1)
    144c:	1000025b 	b	1dbc <func_808161AC+0x18f0>
    1450:	8fad00c4 	lw	t5,196(sp)
    1454:	0041c827 	nor	t9,v0,at
    1458:	17200010 	bnez	t9,149c <func_808161AC+0xfd0>
    145c:	2401fffe 	li	at,-2
    1460:	02c51821 	addu	v1,s6,a1
    1464:	90640074 	lbu	a0,116(v1)
    1468:	240100ff 	li	at,255
    146c:	240a0007 	li	t2,7
    1470:	14810003 	bne	a0,at,1480 <func_808161AC+0xfb4>
    1474:	00801025 	move	v0,a0
    1478:	1000024f 	b	1db8 <func_808161AC+0x18ec>
    147c:	a06a0074 	sb	t2,116(v1)
    1480:	28410007 	slti	at,v0,7
    1484:	1420024c 	bnez	at,1db8 <func_808161AC+0x18ec>
    1488:	28410008 	slti	at,v0,8
    148c:	1020024a 	beqz	at,1db8 <func_808161AC+0x18ec>
    1490:	248b0001 	addiu	t3,a0,1
    1494:	10000248 	b	1db8 <func_808161AC+0x18ec>
    1498:	a06b0074 	sb	t3,116(v1)
    149c:	00416827 	nor	t5,v0,at
    14a0:	15a00245 	bnez	t5,1db8 <func_808161AC+0x18ec>
    14a4:	02c51821 	addu	v1,s6,a1
    14a8:	90640074 	lbu	a0,116(v1)
    14ac:	240100ff 	li	at,255
    14b0:	240c0008 	li	t4,8
    14b4:	14810003 	bne	a0,at,14c4 <func_808161AC+0xff8>
    14b8:	00801025 	move	v0,a0
    14bc:	1000023e 	b	1db8 <func_808161AC+0x18ec>
    14c0:	a06c0074 	sb	t4,116(v1)
    14c4:	28410008 	slti	at,v0,8
    14c8:	1420023b 	bnez	at,1db8 <func_808161AC+0x18ec>
    14cc:	28410009 	slti	at,v0,9
    14d0:	10200239 	beqz	at,1db8 <func_808161AC+0x18ec>
    14d4:	248fffff 	addiu	t7,a0,-1
    14d8:	10000237 	b	1db8 <func_808161AC+0x18ec>
    14dc:	a06f0074 	sb	t7,116(v1)
    14e0:	24010009 	li	at,9
    14e4:	14a10030 	bne	a1,at,15a8 <func_808161AC+0x10dc>
    14e8:	24030016 	li	v1,22
    14ec:	8fb80054 	lw	t8,84(sp)
    14f0:	2401fff7 	li	at,-9
    14f4:	2404000a 	li	a0,10
    14f8:	9702000c 	lhu	v0,12(t8)
    14fc:	00417027 	nor	t6,v0,at
    1500:	15c00006 	bnez	t6,151c <func_808161AC+0x1050>
    1504:	2401fffd 	li	at,-3
    1508:	3c050000 	lui	a1,0x0
    150c:	0c000000 	jal	0 <func_80815CE0>
    1510:	90a5000a 	lbu	a1,10(a1)
    1514:	10000229 	b	1dbc <func_808161AC+0x18f0>
    1518:	8fad00c4 	lw	t5,196(sp)
    151c:	00414827 	nor	t1,v0,at
    1520:	15200010 	bnez	t1,1564 <func_808161AC+0x1098>
    1524:	2401fffe 	li	at,-2
    1528:	02c51821 	addu	v1,s6,a1
    152c:	90640074 	lbu	a0,116(v1)
    1530:	240100ff 	li	at,255
    1534:	2419000a 	li	t9,10
    1538:	14810003 	bne	a0,at,1548 <func_808161AC+0x107c>
    153c:	00801025 	move	v0,a0
    1540:	1000021d 	b	1db8 <func_808161AC+0x18ec>
    1544:	a0790074 	sb	t9,116(v1)
    1548:	2841000a 	slti	at,v0,10
    154c:	1420021a 	bnez	at,1db8 <func_808161AC+0x18ec>
    1550:	2841000b 	slti	at,v0,11
    1554:	10200218 	beqz	at,1db8 <func_808161AC+0x18ec>
    1558:	248a0001 	addiu	t2,a0,1
    155c:	10000216 	b	1db8 <func_808161AC+0x18ec>
    1560:	a06a0074 	sb	t2,116(v1)
    1564:	00415827 	nor	t3,v0,at
    1568:	15600213 	bnez	t3,1db8 <func_808161AC+0x18ec>
    156c:	02c51821 	addu	v1,s6,a1
    1570:	90640074 	lbu	a0,116(v1)
    1574:	240100ff 	li	at,255
    1578:	240d000b 	li	t5,11
    157c:	14810003 	bne	a0,at,158c <func_808161AC+0x10c0>
    1580:	00801025 	move	v0,a0
    1584:	1000020c 	b	1db8 <func_808161AC+0x18ec>
    1588:	a06d0074 	sb	t5,116(v1)
    158c:	2841000b 	slti	at,v0,11
    1590:	14200209 	bnez	at,1db8 <func_808161AC+0x18ec>
    1594:	2841000c 	slti	at,v0,12
    1598:	10200207 	beqz	at,1db8 <func_808161AC+0x18ec>
    159c:	248cffff 	addiu	t4,a0,-1
    15a0:	10000205 	b	1db8 <func_808161AC+0x18ec>
    15a4:	a06c0074 	sb	t4,116(v1)
    15a8:	14a30030 	bne	a1,v1,166c <func_808161AC+0x11a0>
    15ac:	24010017 	li	at,23
    15b0:	8faf0054 	lw	t7,84(sp)
    15b4:	2401fff7 	li	at,-9
    15b8:	2404002d 	li	a0,45
    15bc:	95e2000c 	lhu	v0,12(t7)
    15c0:	0041c027 	nor	t8,v0,at
    15c4:	17000006 	bnez	t8,15e0 <func_808161AC+0x1114>
    15c8:	2401fffd 	li	at,-3
    15cc:	3c050000 	lui	a1,0x0
    15d0:	0c000000 	jal	0 <func_80815CE0>
    15d4:	90a5002d 	lbu	a1,45(a1)
    15d8:	100001f8 	b	1dbc <func_808161AC+0x18f0>
    15dc:	8fad00c4 	lw	t5,196(sp)
    15e0:	00417027 	nor	t6,v0,at
    15e4:	15c00010 	bnez	t6,1628 <func_808161AC+0x115c>
    15e8:	2401fffe 	li	at,-2
    15ec:	02c51821 	addu	v1,s6,a1
    15f0:	90640074 	lbu	a0,116(v1)
    15f4:	240100ff 	li	at,255
    15f8:	2409002d 	li	t1,45
    15fc:	14810003 	bne	a0,at,160c <func_808161AC+0x1140>
    1600:	00801025 	move	v0,a0
    1604:	100001ec 	b	1db8 <func_808161AC+0x18ec>
    1608:	a0690074 	sb	t1,116(v1)
    160c:	2841002d 	slti	at,v0,45
    1610:	142001e9 	bnez	at,1db8 <func_808161AC+0x18ec>
    1614:	28410037 	slti	at,v0,55
    1618:	102001e7 	beqz	at,1db8 <func_808161AC+0x18ec>
    161c:	24990001 	addiu	t9,a0,1
    1620:	100001e5 	b	1db8 <func_808161AC+0x18ec>
    1624:	a0790074 	sb	t9,116(v1)
    1628:	00415027 	nor	t2,v0,at
    162c:	154001e2 	bnez	t2,1db8 <func_808161AC+0x18ec>
    1630:	02c51821 	addu	v1,s6,a1
    1634:	90640074 	lbu	a0,116(v1)
    1638:	240100ff 	li	at,255
    163c:	240b0037 	li	t3,55
    1640:	14810003 	bne	a0,at,1650 <func_808161AC+0x1184>
    1644:	00801025 	move	v0,a0
    1648:	100001db 	b	1db8 <func_808161AC+0x18ec>
    164c:	a06b0074 	sb	t3,116(v1)
    1650:	2841002e 	slti	at,v0,46
    1654:	142001d8 	bnez	at,1db8 <func_808161AC+0x18ec>
    1658:	28410038 	slti	at,v0,56
    165c:	102001d6 	beqz	at,1db8 <func_808161AC+0x18ec>
    1660:	248dffff 	addiu	t5,a0,-1
    1664:	100001d4 	b	1db8 <func_808161AC+0x18ec>
    1668:	a06d0074 	sb	t5,116(v1)
    166c:	14a1002f 	bne	a1,at,172c <func_808161AC+0x1260>
    1670:	8fac0054 	lw	t4,84(sp)
    1674:	9582000c 	lhu	v0,12(t4)
    1678:	2401fff7 	li	at,-9
    167c:	24040021 	li	a0,33
    1680:	00417827 	nor	t7,v0,at
    1684:	15e00006 	bnez	t7,16a0 <func_808161AC+0x11d4>
    1688:	2401fffd 	li	at,-3
    168c:	3c050000 	lui	a1,0x0
    1690:	0c000000 	jal	0 <func_80815CE0>
    1694:	90a50021 	lbu	a1,33(a1)
    1698:	100001c8 	b	1dbc <func_808161AC+0x18f0>
    169c:	8fad00c4 	lw	t5,196(sp)
    16a0:	0041c027 	nor	t8,v0,at
    16a4:	17000010 	bnez	t8,16e8 <func_808161AC+0x121c>
    16a8:	2401fffe 	li	at,-2
    16ac:	02c51821 	addu	v1,s6,a1
    16b0:	90640074 	lbu	a0,116(v1)
    16b4:	240100ff 	li	at,255
    16b8:	240e0021 	li	t6,33
    16bc:	14810003 	bne	a0,at,16cc <func_808161AC+0x1200>
    16c0:	00801025 	move	v0,a0
    16c4:	100001bc 	b	1db8 <func_808161AC+0x18ec>
    16c8:	a06e0074 	sb	t6,116(v1)
    16cc:	28410021 	slti	at,v0,33
    16d0:	142001b9 	bnez	at,1db8 <func_808161AC+0x18ec>
    16d4:	2841002c 	slti	at,v0,44
    16d8:	102001b7 	beqz	at,1db8 <func_808161AC+0x18ec>
    16dc:	24890001 	addiu	t1,a0,1
    16e0:	100001b5 	b	1db8 <func_808161AC+0x18ec>
    16e4:	a0690074 	sb	t1,116(v1)
    16e8:	0041c827 	nor	t9,v0,at
    16ec:	172001b2 	bnez	t9,1db8 <func_808161AC+0x18ec>
    16f0:	02c51821 	addu	v1,s6,a1
    16f4:	90640074 	lbu	a0,116(v1)
    16f8:	240100ff 	li	at,255
    16fc:	240a002c 	li	t2,44
    1700:	14810003 	bne	a0,at,1710 <func_808161AC+0x1244>
    1704:	00801025 	move	v0,a0
    1708:	100001ab 	b	1db8 <func_808161AC+0x18ec>
    170c:	a06a0074 	sb	t2,116(v1)
    1710:	28410022 	slti	at,v0,34
    1714:	142001a8 	bnez	at,1db8 <func_808161AC+0x18ec>
    1718:	2841002d 	slti	at,v0,45
    171c:	102001a6 	beqz	at,1db8 <func_808161AC+0x18ec>
    1720:	248bffff 	addiu	t3,a0,-1
    1724:	100001a4 	b	1db8 <func_808161AC+0x18ec>
    1728:	a06b0074 	sb	t3,116(v1)
    172c:	28a10012 	slti	at,a1,18
    1730:	14200035 	bnez	at,1808 <func_808161AC+0x133c>
    1734:	28a10016 	slti	at,a1,22
    1738:	10200033 	beqz	at,1808 <func_808161AC+0x133c>
    173c:	8fad0054 	lw	t5,84(sp)
    1740:	95a2000c 	lhu	v0,12(t5)
    1744:	2401fff7 	li	at,-9
    1748:	3c0f0000 	lui	t7,0x0
    174c:	00416027 	nor	t4,v0,at
    1750:	1580000a 	bnez	t4,177c <func_808161AC+0x12b0>
    1754:	2401fffd 	li	at,-3
    1758:	91ef0014 	lbu	t7,20(t7)
    175c:	26a40002 	addiu	a0,s5,2
    1760:	3084ffff 	andi	a0,a0,0xffff
    1764:	01f52821 	addu	a1,t7,s5
    1768:	24a5ffee 	addiu	a1,a1,-18
    176c:	0c000000 	jal	0 <func_80815CE0>
    1770:	30a5ffff 	andi	a1,a1,0xffff
    1774:	10000191 	b	1dbc <func_808161AC+0x18f0>
    1778:	8fad00c4 	lw	t5,196(sp)
    177c:	0041c027 	nor	t8,v0,at
    1780:	17000010 	bnez	t8,17c4 <func_808161AC+0x12f8>
    1784:	2401fffe 	li	at,-2
    1788:	02c51821 	addu	v1,s6,a1
    178c:	90640074 	lbu	a0,116(v1)
    1790:	240100ff 	li	at,255
    1794:	240e0014 	li	t6,20
    1798:	14810003 	bne	a0,at,17a8 <func_808161AC+0x12dc>
    179c:	00801025 	move	v0,a0
    17a0:	10000185 	b	1db8 <func_808161AC+0x18ec>
    17a4:	a06e0074 	sb	t6,116(v1)
    17a8:	28410014 	slti	at,v0,20
    17ac:	14200182 	bnez	at,1db8 <func_808161AC+0x18ec>
    17b0:	28410020 	slti	at,v0,32
    17b4:	10200180 	beqz	at,1db8 <func_808161AC+0x18ec>
    17b8:	24890001 	addiu	t1,a0,1
    17bc:	1000017e 	b	1db8 <func_808161AC+0x18ec>
    17c0:	a0690074 	sb	t1,116(v1)
    17c4:	0041c827 	nor	t9,v0,at
    17c8:	1720017b 	bnez	t9,1db8 <func_808161AC+0x18ec>
    17cc:	02c51821 	addu	v1,s6,a1
    17d0:	90640074 	lbu	a0,116(v1)
    17d4:	240100ff 	li	at,255
    17d8:	240a0020 	li	t2,32
    17dc:	14810003 	bne	a0,at,17ec <func_808161AC+0x1320>
    17e0:	00801025 	move	v0,a0
    17e4:	10000174 	b	1db8 <func_808161AC+0x18ec>
    17e8:	a06a0074 	sb	t2,116(v1)
    17ec:	28410015 	slti	at,v0,21
    17f0:	14200171 	bnez	at,1db8 <func_808161AC+0x18ec>
    17f4:	28410021 	slti	at,v0,33
    17f8:	1020016f 	beqz	at,1db8 <func_808161AC+0x18ec>
    17fc:	248bffff 	addiu	t3,a0,-1
    1800:	1000016d 	b	1db8 <func_808161AC+0x18ec>
    1804:	a06b0074 	sb	t3,116(v1)
    1808:	28a1001b 	slti	at,a1,27
    180c:	1020016a 	beqz	at,1db8 <func_808161AC+0x18ec>
    1810:	8fad0054 	lw	t5,84(sp)
    1814:	95a2000c 	lhu	v0,12(t5)
    1818:	2401fff7 	li	at,-9
    181c:	00416027 	nor	t4,v0,at
    1820:	1180000a 	beqz	t4,184c <func_808161AC+0x1380>
    1824:	2401fffd 	li	at,-3
    1828:	00417827 	nor	t7,v0,at
    182c:	11e00007 	beqz	t7,184c <func_808161AC+0x1380>
    1830:	2401fffb 	li	at,-5
    1834:	0041c027 	nor	t8,v0,at
    1838:	13000004 	beqz	t8,184c <func_808161AC+0x1380>
    183c:	2401fffe 	li	at,-2
    1840:	00417027 	nor	t6,v0,at
    1844:	55c0015d 	bnezl	t6,1dbc <func_808161AC+0x18f0>
    1848:	8fad00c4 	lw	t5,196(sp)
    184c:	14a3000f 	bne	a1,v1,188c <func_808161AC+0x13c0>
    1850:	00155040 	sll	t2,s5,0x1
    1854:	02c51821 	addu	v1,s6,a1
    1858:	90690074 	lbu	t1,116(v1)
    185c:	240100ff 	li	at,255
    1860:	24190010 	li	t9,16
    1864:	15210003 	bne	t1,at,1874 <func_808161AC+0x13a8>
    1868:	00000000 	nop
    186c:	10000152 	b	1db8 <func_808161AC+0x18ec>
    1870:	a0790074 	sb	t9,116(v1)
    1874:	3c050000 	lui	a1,0x0
    1878:	90a50010 	lbu	a1,16(a1)
    187c:	0c000000 	jal	0 <func_80815CE0>
    1880:	24040010 	li	a0,16
    1884:	1000014d 	b	1dbc <func_808161AC+0x18f0>
    1888:	8fad00c4 	lw	t5,196(sp)
    188c:	3c130000 	lui	s3,0x0
    1890:	026a9821 	addu	s3,s3,t2
    1894:	86730000 	lh	s3,0(s3)
    1898:	3c040000 	lui	a0,0x0
    189c:	24840000 	addiu	a0,a0,0
    18a0:	02a02825 	move	a1,s5
    18a4:	0c000000 	jal	0 <func_80815CE0>
    18a8:	02603025 	move	a2,s3
    18ac:	02d51021 	addu	v0,s6,s5
    18b0:	904b0074 	lbu	t3,116(v0)
    18b4:	240100ff 	li	at,255
    18b8:	55610004 	bnel	t3,at,18cc <func_808161AC+0x1400>
    18bc:	3264ffff 	andi	a0,s3,0xffff
    18c0:	1000013d 	b	1db8 <func_808161AC+0x18ec>
    18c4:	a0530074 	sb	s3,116(v0)
    18c8:	3264ffff 	andi	a0,s3,0xffff
    18cc:	0c000000 	jal	0 <func_80815CE0>
    18d0:	32a5ffff 	andi	a1,s5,0xffff
    18d4:	10000139 	b	1dbc <func_808161AC+0x18f0>
    18d8:	8fad00c4 	lw	t5,196(sp)
    18dc:	85ad0000 	lh	t5,0(t5)
    18e0:	8fac0054 	lw	t4,84(sp)
    18e4:	3c180000 	lui	t8,0x0
    18e8:	29a1002c 	slti	at,t5,44
    18ec:	10200030 	beqz	at,19b0 <func_808161AC+0x14e4>
    18f0:	00000000 	nop
    18f4:	9582000c 	lhu	v0,12(t4)
    18f8:	2401fff7 	li	at,-9
    18fc:	3c0e0000 	lui	t6,0x0
    1900:	00417827 	nor	t7,v0,at
    1904:	11e00004 	beqz	t7,1918 <func_808161AC+0x144c>
    1908:	2401fffd 	li	at,-3
    190c:	0041c027 	nor	t8,v0,at
    1910:	1700000f 	bnez	t8,1950 <func_808161AC+0x1484>
    1914:	2401fffb 	li	at,-5
    1918:	85ce0000 	lh	t6,0(t6)
    191c:	240fffff 	li	t7,-1
    1920:	25c9ffe5 	addiu	t1,t6,-27
    1924:	0009cc00 	sll	t9,t1,0x10
    1928:	00195403 	sra	t2,t9,0x10
    192c:	02ca1021 	addu	v0,s6,t2
    1930:	804b00bc 	lb	t3,188(v0)
    1934:	256dffff 	addiu	t5,t3,-1
    1938:	a04d00bc 	sb	t5,188(v0)
    193c:	804c00bc 	lb	t4,188(v0)
    1940:	0583011e 	bgezl	t4,1dbc <func_808161AC+0x18f0>
    1944:	8fad00c4 	lw	t5,196(sp)
    1948:	1000011b 	b	1db8 <func_808161AC+0x18ec>
    194c:	a04f00bc 	sb	t7,188(v0)
    1950:	0041c027 	nor	t8,v0,at
    1954:	13000003 	beqz	t8,1964 <func_808161AC+0x1498>
    1958:	2401fffe 	li	at,-2
    195c:	00417027 	nor	t6,v0,at
    1960:	15c00115 	bnez	t6,1db8 <func_808161AC+0x18ec>
    1964:	3c090000 	lui	t1,0x0
    1968:	85290000 	lh	t1,0(t1)
    196c:	2539ffe5 	addiu	t9,t1,-27
    1970:	00195400 	sll	t2,t9,0x10
    1974:	000a5c03 	sra	t3,t2,0x10
    1978:	02cb1021 	addu	v0,s6,t3
    197c:	804300bc 	lb	v1,188(v0)
    1980:	04610003 	bgez	v1,1990 <func_808161AC+0x14c4>
    1984:	246d0001 	addiu	t5,v1,1
    1988:	1000010b 	b	1db8 <func_808161AC+0x18ec>
    198c:	a05100bc 	sb	s1,188(v0)
    1990:	a04d00bc 	sb	t5,188(v0)
    1994:	804c00bc 	lb	t4,188(v0)
    1998:	240f0009 	li	t7,9
    199c:	29810009 	slti	at,t4,9
    19a0:	54200106 	bnezl	at,1dbc <func_808161AC+0x18f0>
    19a4:	8fad00c4 	lw	t5,196(sp)
    19a8:	10000103 	b	1db8 <func_808161AC+0x18ec>
    19ac:	a04f00bc 	sb	t7,188(v0)
    19b0:	87180000 	lh	t8,0(t8)
    19b4:	3c0b0000 	lui	t3,0x0
    19b8:	2b010038 	slti	at,t8,56
    19bc:	10200098 	beqz	at,1c20 <func_808161AC+0x1754>
    19c0:	2704ffd4 	addiu	a0,t8,-44
    19c4:	0004ac00 	sll	s5,a0,0x10
    19c8:	2b01002c 	slti	at,t8,44
    19cc:	1420004d 	bnez	at,1b04 <func_808161AC+0x1638>
    19d0:	0015ac03 	sra	s5,s5,0x10
    19d4:	2b010034 	slti	at,t8,52
    19d8:	1020004a 	beqz	at,1b04 <func_808161AC+0x1638>
    19dc:	8fae0054 	lw	t6,84(sp)
    19e0:	95c2000c 	lhu	v0,12(t6)
    19e4:	2401fff7 	li	at,-9
    19e8:	3c0f0000 	lui	t7,0x0
    19ec:	00414827 	nor	t1,v0,at
    19f0:	11200004 	beqz	t1,1a04 <func_808161AC+0x1538>
    19f4:	2401fffd 	li	at,-3
    19f8:	0041c827 	nor	t9,v0,at
    19fc:	1720001c 	bnez	t9,1a70 <func_808161AC+0x15a4>
    1a00:	2401fffb 	li	at,-5
    1a04:	00041400 	sll	v0,a0,0x10
    1a08:	00021403 	sra	v0,v0,0x10
    1a0c:	00025080 	sll	t2,v0,0x2
    1a10:	028a5821 	addu	t3,s4,t2
    1a14:	25ef0000 	addiu	t7,t7,0
    1a18:	8d6d0000 	lw	t5,0(t3)
    1a1c:	8ec300a0 	lw	v1,160(s6)
    1a20:	004fc021 	addu	t8,v0,t7
    1a24:	930e0000 	lbu	t6,0(t8)
    1a28:	006d6024 	and	t4,v1,t5
    1a2c:	00152400 	sll	a0,s5,0x10
    1a30:	01cc4807 	srav	t1,t4,t6
    1a34:	112000e0 	beqz	t1,1db8 <func_808161AC+0x18ec>
    1a38:	0015c880 	sll	t9,s5,0x2
    1a3c:	02995021 	addu	t2,s4,t9
    1a40:	8d4b0000 	lw	t3,0(t2)
    1a44:	02afc021 	addu	t8,s5,t7
    1a48:	930c0000 	lbu	t4,0(t8)
    1a4c:	006b6824 	and	t5,v1,t3
    1a50:	00042403 	sra	a0,a0,0x10
    1a54:	018d2807 	srav	a1,t5,t4
    1a58:	24a5ffff 	addiu	a1,a1,-1
    1a5c:	00052c00 	sll	a1,a1,0x10
    1a60:	0c000000 	jal	0 <func_80815CE0>
    1a64:	00052c03 	sra	a1,a1,0x10
    1a68:	100000d4 	b	1dbc <func_808161AC+0x18f0>
    1a6c:	8fad00c4 	lw	t5,196(sp)
    1a70:	00417027 	nor	t6,v0,at
    1a74:	11c00003 	beqz	t6,1a84 <func_808161AC+0x15b8>
    1a78:	2401fffe 	li	at,-2
    1a7c:	00414827 	nor	t1,v0,at
    1a80:	152000cd 	bnez	t1,1db8 <func_808161AC+0x18ec>
    1a84:	00041400 	sll	v0,a0,0x10
    1a88:	00021403 	sra	v0,v0,0x10
    1a8c:	0002c880 	sll	t9,v0,0x2
    1a90:	3c180000 	lui	t8,0x0
    1a94:	27180000 	addiu	t8,t8,0
    1a98:	02995021 	addu	t2,s4,t9
    1a9c:	8d4b0000 	lw	t3,0(t2)
    1aa0:	8ec300a0 	lw	v1,160(s6)
    1aa4:	00586821 	addu	t5,v0,t8
    1aa8:	3c090000 	lui	t1,0x0
    1aac:	91ac0000 	lbu	t4,0(t5)
    1ab0:	01224821 	addu	t1,t1,v0
    1ab4:	91290000 	lbu	t1,0(t1)
    1ab8:	006b7824 	and	t7,v1,t3
    1abc:	018f7007 	srav	t6,t7,t4
    1ac0:	01c9082a 	slt	at,t6,t1
    1ac4:	102000bc 	beqz	at,1db8 <func_808161AC+0x18ec>
    1ac8:	00152400 	sll	a0,s5,0x10
    1acc:	0015c880 	sll	t9,s5,0x2
    1ad0:	02995021 	addu	t2,s4,t9
    1ad4:	8d4b0000 	lw	t3,0(t2)
    1ad8:	02b87821 	addu	t7,s5,t8
    1adc:	91ec0000 	lbu	t4,0(t7)
    1ae0:	006b6824 	and	t5,v1,t3
    1ae4:	00042403 	sra	a0,a0,0x10
    1ae8:	018d2807 	srav	a1,t5,t4
    1aec:	24a50001 	addiu	a1,a1,1
    1af0:	00052c00 	sll	a1,a1,0x10
    1af4:	0c000000 	jal	0 <func_80815CE0>
    1af8:	00052c03 	sra	a1,a1,0x10
    1afc:	100000af 	b	1dbc <func_808161AC+0x18f0>
    1b00:	8fad00c4 	lw	t5,196(sp)
    1b04:	8fa30054 	lw	v1,84(sp)
    1b08:	2401fffd 	li	at,-3
    1b0c:	3c190000 	lui	t9,0x0
    1b10:	9462000c 	lhu	v0,12(v1)
    1b14:	00417027 	nor	t6,v0,at
    1b18:	55c0000f 	bnezl	t6,1b58 <func_808161AC+0x168c>
    1b1c:	2401fffb 	li	at,-5
    1b20:	87390000 	lh	t9,0(t9)
    1b24:	96c9009c 	lhu	t1,156(s6)
    1b28:	240c0001 	li	t4,1
    1b2c:	272affcc 	addiu	t2,t9,-52
    1b30:	000a5c00 	sll	t3,t2,0x10
    1b34:	000bc403 	sra	t8,t3,0x10
    1b38:	02787821 	addu	t7,s3,t8
    1b3c:	91ed0000 	lbu	t5,0(t7)
    1b40:	3c010000 	lui	at,0x0
    1b44:	01ac7004 	sllv	t6,t4,t5
    1b48:	012ec826 	xor	t9,t1,t6
    1b4c:	a439009c 	sh	t9,156(at)
    1b50:	9462000c 	lhu	v0,12(v1)
    1b54:	2401fffb 	li	at,-5
    1b58:	00415027 	nor	t2,v0,at
    1b5c:	1540000e 	bnez	t2,1b98 <func_808161AC+0x16cc>
    1b60:	3c180000 	lui	t8,0x0
    1b64:	87180000 	lh	t8,0(t8)
    1b68:	96cb009c 	lhu	t3,156(s6)
    1b6c:	24190002 	li	t9,2
    1b70:	270fffcc 	addiu	t7,t8,-52
    1b74:	000f6400 	sll	t4,t7,0x10
    1b78:	000c6c03 	sra	t5,t4,0x10
    1b7c:	026d4821 	addu	t1,s3,t5
    1b80:	912e0000 	lbu	t6,0(t1)
    1b84:	3c010000 	lui	at,0x0
    1b88:	01d95004 	sllv	t2,t9,t6
    1b8c:	016ac026 	xor	t8,t3,t2
    1b90:	a438009c 	sh	t8,156(at)
    1b94:	9462000c 	lhu	v0,12(v1)
    1b98:	2401fffe 	li	at,-2
    1b9c:	00417827 	nor	t7,v0,at
    1ba0:	15e0000e 	bnez	t7,1bdc <func_808161AC+0x1710>
    1ba4:	3c0d0000 	lui	t5,0x0
    1ba8:	85ad0000 	lh	t5,0(t5)
    1bac:	96cc009c 	lhu	t4,156(s6)
    1bb0:	24180004 	li	t8,4
    1bb4:	25a9ffcc 	addiu	t1,t5,-52
    1bb8:	0009cc00 	sll	t9,t1,0x10
    1bbc:	00197403 	sra	t6,t9,0x10
    1bc0:	026e5821 	addu	t3,s3,t6
    1bc4:	916a0000 	lbu	t2,0(t3)
    1bc8:	3c010000 	lui	at,0x0
    1bcc:	01587804 	sllv	t7,t8,t2
    1bd0:	018f6826 	xor	t5,t4,t7
    1bd4:	a42d009c 	sh	t5,156(at)
    1bd8:	9462000c 	lhu	v0,12(v1)
    1bdc:	2401fff7 	li	at,-9
    1be0:	00414827 	nor	t1,v0,at
    1be4:	15200074 	bnez	t1,1db8 <func_808161AC+0x18ec>
    1be8:	3c0e0000 	lui	t6,0x0
    1bec:	85ce0000 	lh	t6,0(t6)
    1bf0:	96d9009c 	lhu	t9,156(s6)
    1bf4:	240d0008 	li	t5,8
    1bf8:	25cbffcc 	addiu	t3,t6,-52
    1bfc:	000bc400 	sll	t8,t3,0x10
    1c00:	00185403 	sra	t2,t8,0x10
    1c04:	026a6021 	addu	t4,s3,t2
    1c08:	918f0000 	lbu	t7,0(t4)
    1c0c:	3c010000 	lui	at,0x0
    1c10:	01ed4804 	sllv	t1,t5,t7
    1c14:	03297026 	xor	t6,t9,t1
    1c18:	10000067 	b	1db8 <func_808161AC+0x18ec>
    1c1c:	a42e009c 	sh	t6,156(at)
    1c20:	856b0000 	lh	t3,0(t3)
    1c24:	8fb80054 	lw	t8,84(sp)
    1c28:	3c190000 	lui	t9,0x0
    1c2c:	29610044 	slti	at,t3,68
    1c30:	10200029 	beqz	at,1cd8 <func_808161AC+0x180c>
    1c34:	00000000 	nop
    1c38:	9702000c 	lhu	v0,12(t8)
    1c3c:	2401fffd 	li	at,-3
    1c40:	256cffc8 	addiu	t4,t3,-56
    1c44:	00415027 	nor	t2,v0,at
    1c48:	15400009 	bnez	t2,1c70 <func_808161AC+0x17a4>
    1c4c:	2401fffb 	li	at,-5
    1c50:	000c6c00 	sll	t5,t4,0x10
    1c54:	000d7c03 	sra	t7,t5,0x10
    1c58:	02cf1821 	addu	v1,s6,t7
    1c5c:	907900a8 	lbu	t9,168(v1)
    1c60:	8fae0054 	lw	t6,84(sp)
    1c64:	3b290004 	xori	t1,t9,0x4
    1c68:	a06900a8 	sb	t1,168(v1)
    1c6c:	95c2000c 	lhu	v0,12(t6)
    1c70:	0041c027 	nor	t8,v0,at
    1c74:	1700000c 	bnez	t8,1ca8 <func_808161AC+0x17dc>
    1c78:	2401fffe 	li	at,-2
    1c7c:	3c0a0000 	lui	t2,0x0
    1c80:	854a0000 	lh	t2,0(t2)
    1c84:	8fa90054 	lw	t1,84(sp)
    1c88:	254bffc8 	addiu	t3,t2,-56
    1c8c:	000b6400 	sll	t4,t3,0x10
    1c90:	000c6c03 	sra	t5,t4,0x10
    1c94:	02cd1821 	addu	v1,s6,t5
    1c98:	906f00a8 	lbu	t7,168(v1)
    1c9c:	39f90002 	xori	t9,t7,0x2
    1ca0:	a07900a8 	sb	t9,168(v1)
    1ca4:	9522000c 	lhu	v0,12(t1)
    1ca8:	00417027 	nor	t6,v0,at
    1cac:	15c00042 	bnez	t6,1db8 <func_808161AC+0x18ec>
    1cb0:	3c180000 	lui	t8,0x0
    1cb4:	87180000 	lh	t8,0(t8)
    1cb8:	270affc8 	addiu	t2,t8,-56
    1cbc:	000a5c00 	sll	t3,t2,0x10
    1cc0:	000b6403 	sra	t4,t3,0x10
    1cc4:	02cc1821 	addu	v1,s6,t4
    1cc8:	906d00a8 	lbu	t5,168(v1)
    1ccc:	39af0001 	xori	t7,t5,0x1
    1cd0:	10000039 	b	1db8 <func_808161AC+0x18ec>
    1cd4:	a06f00a8 	sb	t7,168(v1)
    1cd8:	87390000 	lh	t9,0(t9)
    1cdc:	2401005b 	li	at,91
    1ce0:	8fa90054 	lw	t1,84(sp)
    1ce4:	1721001b 	bne	t9,at,1d54 <func_808161AC+0x1888>
    1ce8:	3c0e0000 	lui	t6,0x0
    1cec:	9522000c 	lhu	v0,12(t1)
    1cf0:	2401fff7 	li	at,-9
    1cf4:	00417027 	nor	t6,v0,at
    1cf8:	11c00004 	beqz	t6,1d0c <func_808161AC+0x1840>
    1cfc:	2401fffd 	li	at,-3
    1d00:	0041c027 	nor	t8,v0,at
    1d04:	17000005 	bnez	t8,1d1c <func_808161AC+0x1850>
    1d08:	2401fffb 	li	at,-5
    1d0c:	86ca00d0 	lh	t2,208(s6)
    1d10:	254b0001 	addiu	t3,t2,1
    1d14:	10000028 	b	1db8 <func_808161AC+0x18ec>
    1d18:	a6cb00d0 	sh	t3,208(s6)
    1d1c:	00416027 	nor	t4,v0,at
    1d20:	11800004 	beqz	t4,1d34 <func_808161AC+0x1868>
    1d24:	2401fffe 	li	at,-2
    1d28:	00416827 	nor	t5,v0,at
    1d2c:	55a00023 	bnezl	t5,1dbc <func_808161AC+0x18f0>
    1d30:	8fad00c4 	lw	t5,196(sp)
    1d34:	86cf00d0 	lh	t7,208(s6)
    1d38:	25f9ffff 	addiu	t9,t7,-1
    1d3c:	a6d900d0 	sh	t9,208(s6)
    1d40:	86c900d0 	lh	t1,208(s6)
    1d44:	5d20001d 	bgtzl	t1,1dbc <func_808161AC+0x18f0>
    1d48:	8fad00c4 	lw	t5,196(sp)
    1d4c:	1000001a 	b	1db8 <func_808161AC+0x18ec>
    1d50:	a6c000d0 	sh	zero,208(s6)
    1d54:	85ce0000 	lh	t6,0(t6)
    1d58:	8fb80054 	lw	t8,84(sp)
    1d5c:	29c1005c 	slti	at,t6,92
    1d60:	50200016 	beqzl	at,1dbc <func_808161AC+0x18f0>
    1d64:	8fad00c4 	lw	t5,196(sp)
    1d68:	9702000c 	lhu	v0,12(t8)
    1d6c:	2401fff7 	li	at,-9
    1d70:	3c0d0000 	lui	t5,0x0
    1d74:	00415027 	nor	t2,v0,at
    1d78:	11400004 	beqz	t2,1d8c <func_808161AC+0x18c0>
    1d7c:	2401fffd 	li	at,-3
    1d80:	00415827 	nor	t3,v0,at
    1d84:	5560000d 	bnezl	t3,1dbc <func_808161AC+0x18f0>
    1d88:	8fad00c4 	lw	t5,196(sp)
    1d8c:	85ad0000 	lh	t5,0(t5)
    1d90:	8ecc00a4 	lw	t4,164(s6)
    1d94:	3c010000 	lui	at,0x0
    1d98:	25afffbc 	addiu	t7,t5,-68
    1d9c:	000fcc00 	sll	t9,t7,0x10
    1da0:	00194c03 	sra	t1,t9,0x10
    1da4:	00097080 	sll	t6,t1,0x2
    1da8:	024ec021 	addu	t8,s2,t6
    1dac:	8f0a0000 	lw	t2,0(t8)
    1db0:	018a5826 	xor	t3,t4,t2
    1db4:	ac2b00a4 	sw	t3,164(at)
    1db8:	8fad00c4 	lw	t5,196(sp)
    1dbc:	3c19e700 	lui	t9,0xe700
    1dc0:	3c18e200 	lui	t8,0xe200
    1dc4:	8da202c0 	lw	v0,704(t5)
    1dc8:	3c0c0050 	lui	t4,0x50
    1dcc:	358c4240 	ori	t4,t4,0x4240
    1dd0:	244f0008 	addiu	t7,v0,8
    1dd4:	adaf02c0 	sw	t7,704(t5)
    1dd8:	ac400004 	sw	zero,4(v0)
    1ddc:	ac590000 	sw	t9,0(v0)
    1de0:	8fa900c4 	lw	t1,196(sp)
    1de4:	3718001c 	ori	t8,t8,0x1c
    1de8:	3c0ffcff 	lui	t7,0xfcff
    1dec:	8d2202c0 	lw	v0,704(t1)
    1df0:	3c0dfffd 	lui	t5,0xfffd
    1df4:	35adf6fb 	ori	t5,t5,0xf6fb
    1df8:	244e0008 	addiu	t6,v0,8
    1dfc:	ad2e02c0 	sw	t6,704(t1)
    1e00:	ac4c0004 	sw	t4,4(v0)
    1e04:	ac580000 	sw	t8,0(v0)
    1e08:	8faa00c4 	lw	t2,196(sp)
    1e0c:	35efffff 	ori	t7,t7,0xffff
    1e10:	3418c878 	li	t8,0xc878
    1e14:	8d4202c0 	lw	v0,704(t2)
    1e18:	3c09fa00 	lui	t1,0xfa00
    1e1c:	3c0c0000 	lui	t4,0x0
    1e20:	244b0008 	addiu	t3,v0,8
    1e24:	ad4b02c0 	sw	t3,704(t2)
    1e28:	ac4d0004 	sw	t5,4(v0)
    1e2c:	ac4f0000 	sw	t7,0(v0)
    1e30:	8fb900c4 	lw	t9,196(sp)
    1e34:	3c060000 	lui	a2,0x0
    1e38:	24c60000 	addiu	a2,a2,0
    1e3c:	8f2202c0 	lw	v0,704(t9)
    1e40:	27a400b4 	addiu	a0,sp,180
    1e44:	244e0008 	addiu	t6,v0,8
    1e48:	af2e02c0 	sw	t6,704(t9)
    1e4c:	ac580004 	sw	t8,4(v0)
    1e50:	ac490000 	sw	t1,0(v0)
    1e54:	858c0000 	lh	t4,0(t4)
    1e58:	8fab00c4 	lw	t3,196(sp)
    1e5c:	3c0e0000 	lui	t6,0x0
    1e60:	1580001f 	bnez	t4,1ee0 <func_808161AC+0x1a14>
    1e64:	00000000 	nop
    1e68:	8d6202c0 	lw	v0,704(t3)
    1e6c:	3c0f0000 	lui	t7,0x0
    1e70:	3c0e0000 	lui	t6,0x0
    1e74:	244a0008 	addiu	t2,v0,8
    1e78:	ad6a02c0 	sw	t2,704(t3)
    1e7c:	85ef0000 	lh	t7,0(t7)
    1e80:	25ce0000 	addiu	t6,t6,0
    1e84:	3c01f600 	lui	at,0xf600
    1e88:	000f6880 	sll	t5,t7,0x2
    1e8c:	01ae1821 	addu	v1,t5,t6
    1e90:	94790002 	lhu	t9,2(v1)
    1e94:	946b0000 	lhu	t3,0(v1)
    1e98:	27290010 	addiu	t1,t9,16
    1e9c:	313803ff 	andi	t8,t1,0x3ff
    1ea0:	256f002d 	addiu	t7,t3,45
    1ea4:	31ed03ff 	andi	t5,t7,0x3ff
    1ea8:	00186080 	sll	t4,t8,0x2
    1eac:	01815025 	or	t2,t4,at
    1eb0:	000d7380 	sll	t6,t5,0xe
    1eb4:	014ec825 	or	t9,t2,t6
    1eb8:	ac590000 	sw	t9,0(v0)
    1ebc:	946b0000 	lhu	t3,0(v1)
    1ec0:	94690002 	lhu	t1,2(v1)
    1ec4:	316f03ff 	andi	t7,t3,0x3ff
    1ec8:	313803ff 	andi	t8,t1,0x3ff
    1ecc:	00186080 	sll	t4,t8,0x2
    1ed0:	000f6b80 	sll	t5,t7,0xe
    1ed4:	018d5025 	or	t2,t4,t5
    1ed8:	10000045 	b	1ff0 <func_808161AC+0x1b24>
    1edc:	ac4a0004 	sw	t2,4(v0)
    1ee0:	85ce0000 	lh	t6,0(t6)
    1ee4:	8fb900c4 	lw	t9,196(sp)
    1ee8:	29c1001b 	slti	at,t6,27
    1eec:	10200003 	beqz	at,1efc <func_808161AC+0x1a30>
    1ef0:	2401005b 	li	at,91
    1ef4:	15c10020 	bne	t6,at,1f78 <func_808161AC+0x1aac>
    1ef8:	8fac00c4 	lw	t4,196(sp)
    1efc:	8f2202c0 	lw	v0,704(t9)
    1f00:	3c180000 	lui	t8,0x0
    1f04:	3c0f0000 	lui	t7,0x0
    1f08:	24490008 	addiu	t1,v0,8
    1f0c:	af2902c0 	sw	t1,704(t9)
    1f10:	87180000 	lh	t8,0(t8)
    1f14:	25ef0000 	addiu	t7,t7,0
    1f18:	3c01f600 	lui	at,0xf600
    1f1c:	00185880 	sll	t3,t8,0x2
    1f20:	016f1821 	addu	v1,t3,t7
    1f24:	946c0002 	lhu	t4,2(v1)
    1f28:	94790000 	lhu	t9,0(v1)
    1f2c:	258d0010 	addiu	t5,t4,16
    1f30:	31aa03ff 	andi	t2,t5,0x3ff
    1f34:	2738000e 	addiu	t8,t9,14
    1f38:	330b03ff 	andi	t3,t8,0x3ff
    1f3c:	000a7080 	sll	t6,t2,0x2
    1f40:	01c14825 	or	t1,t6,at
    1f44:	000b7b80 	sll	t7,t3,0xe
    1f48:	012f6025 	or	t4,t1,t7
    1f4c:	ac4c0000 	sw	t4,0(v0)
    1f50:	94790000 	lhu	t9,0(v1)
    1f54:	946d0002 	lhu	t5,2(v1)
    1f58:	2738fffe 	addiu	t8,t9,-2
    1f5c:	330b03ff 	andi	t3,t8,0x3ff
    1f60:	31aa03ff 	andi	t2,t5,0x3ff
    1f64:	000a7080 	sll	t6,t2,0x2
    1f68:	000b4b80 	sll	t1,t3,0xe
    1f6c:	01c97825 	or	t7,t6,t1
    1f70:	1000001f 	b	1ff0 <func_808161AC+0x1b24>
    1f74:	ac4f0004 	sw	t7,4(v0)
    1f78:	8d8202c0 	lw	v0,704(t4)
    1f7c:	3c0a0000 	lui	t2,0x0
    1f80:	3c180000 	lui	t8,0x0
    1f84:	244d0008 	addiu	t5,v0,8
    1f88:	ad8d02c0 	sw	t5,704(t4)
    1f8c:	854a0000 	lh	t2,0(t2)
    1f90:	27180000 	addiu	t8,t8,0
    1f94:	3c01f600 	lui	at,0xf600
    1f98:	000ac880 	sll	t9,t2,0x2
    1f9c:	03381821 	addu	v1,t9,t8
    1fa0:	946b0002 	lhu	t3,2(v1)
    1fa4:	946c0000 	lhu	t4,0(v1)
    1fa8:	256e0010 	addiu	t6,t3,16
    1fac:	31c903ff 	andi	t1,t6,0x3ff
    1fb0:	258a0018 	addiu	t2,t4,24
    1fb4:	315903ff 	andi	t9,t2,0x3ff
    1fb8:	00097880 	sll	t7,t1,0x2
    1fbc:	01e16825 	or	t5,t7,at
    1fc0:	0019c380 	sll	t8,t9,0xe
    1fc4:	01b85825 	or	t3,t5,t8
    1fc8:	ac4b0000 	sw	t3,0(v0)
    1fcc:	946c0000 	lhu	t4,0(v1)
    1fd0:	946e0002 	lhu	t6,2(v1)
    1fd4:	258afffc 	addiu	t2,t4,-4
    1fd8:	315903ff 	andi	t9,t2,0x3ff
    1fdc:	31c903ff 	andi	t1,t6,0x3ff
    1fe0:	00097880 	sll	t7,t1,0x2
    1fe4:	00196b80 	sll	t5,t9,0xe
    1fe8:	01edc025 	or	t8,t7,t5
    1fec:	ac580004 	sw	t8,4(v0)
    1ff0:	8fa30058 	lw	v1,88(sp)
    1ff4:	240b0002 	li	t3,2
    1ff8:	24010002 	li	at,2
    1ffc:	946201d6 	lhu	v0,470(v1)
    2000:	16220003 	bne	s1,v0,2010 <func_808161AC+0x1b44>
    2004:	00000000 	nop
    2008:	10000009 	b	2030 <func_808161AC+0x1b64>
    200c:	a46b01d6 	sh	t3,470(v1)
    2010:	14410007 	bne	v0,at,2030 <func_808161AC+0x1b64>
    2014:	8fae0054 	lw	t6,84(sp)
    2018:	95c9000c 	lhu	t1,12(t6)
    201c:	2401ffdf 	li	at,-33
    2020:	01216027 	nor	t4,t1,at
    2024:	55800003 	bnezl	t4,2034 <func_808161AC+0x1b68>
    2028:	8faa00f0 	lw	t2,240(sp)
    202c:	a46001d6 	sh	zero,470(v1)
    2030:	8faa00f0 	lw	t2,240(sp)
    2034:	2407035d 	li	a3,861
    2038:	0c000000 	jal	0 <func_80815CE0>
    203c:	8d450000 	lw	a1,0(t2)
    2040:	8fbf003c 	lw	ra,60(sp)
    2044:	8fb00018 	lw	s0,24(sp)
    2048:	8fb1001c 	lw	s1,28(sp)
    204c:	8fb20020 	lw	s2,32(sp)
    2050:	8fb30024 	lw	s3,36(sp)
    2054:	8fb40028 	lw	s4,40(sp)
    2058:	8fb5002c 	lw	s5,44(sp)
    205c:	8fb60030 	lw	s6,48(sp)
    2060:	8fb70034 	lw	s7,52(sp)
    2064:	8fbe0038 	lw	s8,56(sp)
    2068:	03e00008 	jr	ra
    206c:	27bd00f0 	addiu	sp,sp,240
